 UnityPlugin

 Timestamp is 66827a76 (Mon Jul  1 17:44:22 2024)

 Preferred load address is 0000000180000000

 Start         Length     Name                   Class
 0001:00000000 0007b3f5H .textbss                DATA
 0002:00000000 0000b4b0H .text$di                CODE
 0002:0000b4b0 000f7e30H .text$mn                CODE
 0002:001032e0 00001040H .text$mn$00             CODE
 0002:00104320 00002a60H .text$x                 CODE
 0002:00106d80 000010ddH .text$yd                CODE
 0003:00000000 00000110H .CRT$XCA                DATA
 0003:00000110 00000110H .CRT$XCC                DATA
 0003:00000220 00000128H .CRT$XCU                DATA
 0003:00000348 00000110H .CRT$XCZ                DATA
 0003:00000458 00000110H .CRT$XIA                DATA
 0003:00000568 00000158H .CRT$XIC                DATA
 0003:000006c0 00000110H .CRT$XIZ                DATA
 0003:000007d0 00000110H .CRT$XPA                DATA
 0003:000008e0 00000120H .CRT$XPX                DATA
 0003:00000a00 00000110H .CRT$XPXA               DATA
 0003:00000b10 00000110H .CRT$XPZ                DATA
 0003:00000c20 00000110H .CRT$XTA                DATA
 0003:00000d30 00000110H .CRT$XTZ                DATA
 0003:00000e40 0002cbc0H .rdata                  DATA
 0003:0002da00 00000110H .rdata$CastGuardVftablesA DATA
 0003:0002db10 00000110H .rdata$CastGuardVftablesC DATA
 0003:0002dc20 00000fecH .rdata$r                DATA
 0003:0002ec0c 0000017cH .rdata$zzzdbg           DATA
 0003:0002ed88 00000110H .rtc$IAA                DATA
 0003:0002ee98 00000120H .rtc$IMZ                DATA
 0003:0002efb8 00000110H .rtc$IZZ                DATA
 0003:0002f0c8 00000110H .rtc$TAA                DATA
 0003:0002f1d8 00000120H .rtc$TMZ                DATA
 0003:0002f2f8 00000110H .rtc$TZZ                DATA
 0003:0002f408 0000aa00H .xdata                  DATA
 0003:00039e08 00000668H .xdata$x                DATA
 0003:0003a470 0000017cH .edata                  DATA
 0004:00000000 00000e88H .data                   DATA
 0004:00000e88 000003d8H .data$r                 DATA
 0004:00001260 000003d0H .data$rs                DATA
 0004:00001630 000026dcH .bss                    DATA
 0005:00000000 0000d02cH .pdata                  DATA
 0006:00000000 00000518H .idata$5                DATA
 0006:00000518 00000014H .idata$2                DATA
 0006:0000052c 00000014H .idata$3                DATA
 0006:00000540 00000518H .idata$4                DATA
 0006:00000a58 00000c0dH .idata$6                DATA
 0007:00000000 00000150H .msvcjmc                DATA
 0008:00000000 00000151H .00cfg                  DATA
 0009:00000000 00000222H _RDATA                  DATA
 000a:00000000 00000170H .rsrc$01                DATA
 000a:00000170 000002ccH .rsrc$02                DATA

  Address         Publics by Value              Rva+Base               Lib:Object

 0000:00000000       ___safe_se_handler_count   0000000000000000     <absolute>
 0000:00000000       __guard_iat_table          0000000000000000     <absolute>
 0000:00000000       __arm64x_redirection_metadata 0000000000000000     <absolute>
 0000:00000000       __hybrid_code_map_count    0000000000000000     <absolute>
 0000:00000000       __enclave_config           0000000000000000     <absolute>
 0000:00000000       __arm64x_redirection_metadata_count 0000000000000000     <absolute>
 0000:00000000       __x64_code_ranges_to_entry_points 0000000000000000     <absolute>
 0000:00000000       __guard_fids_table         0000000000000000     <absolute>
 0000:00000000       __guard_longjmp_table      0000000000000000     <absolute>
 0000:00000000       __arm64x_extra_rfe_table_size 0000000000000000     <absolute>
 0000:00000000       __volatile_metadata        0000000000000000     <absolute>
 0000:00000000       __guard_iat_count          0000000000000000     <absolute>
 0000:00000000       __guard_check_icall_a64n_fptr 0000000000000000     <absolute>
 0000:00000000       __hybrid_code_map          0000000000000000     <absolute>
 0000:00000000       __guard_eh_cont_count      0000000000000000     <absolute>
 0000:00000000       __guard_fids_count         0000000000000000     <absolute>
 0000:00000000       __guard_longjmp_count      0000000000000000     <absolute>
 0000:00000000       __guard_eh_cont_table      0000000000000000     <absolute>
 0000:00000000       __dynamic_value_reloc_table 0000000000000000     <absolute>
 0000:00000000       __AbsoluteZero             0000000000000000     <absolute>
 0000:00000000       __hybrid_auxiliary_iat     0000000000000000     <absolute>
 0000:00000000       __arm64x_native_entrypoint 0000000000000000     <absolute>
 0000:00000000       ___safe_se_handler_table   0000000000000000     <absolute>
 0000:00000000       __x64_code_ranges_to_entry_points_count 0000000000000000     <absolute>
 0000:00000000       __arm64x_extra_rfe_table   0000000000000000     <absolute>
 0000:00000000       __hybrid_auxiliary_iat_copy 0000000000000000     <absolute>
 0000:00000100       __guard_flags              0000000000000100     <absolute>
 0000:00000000       __ImageBase                0000000180000000     <linker-defined>
 0001:00000000       __enc$textbss$begin        0000000180001000     <linker-defined>
 0001:0007b3f5       __enc$textbss$end          000000018007c3f5     <linker-defined>
 0002:0000b4b0       ?crc32@@YAIPEAE_K@Z        00000001800884b0 f   crc32.obj
 0002:0000b590       ?crc32_ex@@YAIPEAE_KI@Z    0000000180088590 f   crc32.obj
 0002:0000b670       __JustMyCode_Default       0000000180088670 f i crc32.obj
 0002:0000b680       ??$?0$$V@?$_Compressed_pair@V?$allocator@U?$_Tree_node@HPEAX@std@@@std@@V?$_Tree_val@U?$_Tree_simple_types@H@std@@@2@$00@std@@QEAA@U_Zero_then_variadic_args_t@1@@Z 0000000180088680 f i UnityPlugin.obj
 0002:0000b6f0       ??$?0$$V@?$_Compressed_pair@V?$allocator@U?$_Tree_node@PEAXPEAX@std@@@std@@V?$_Tree_val@U?$_Tree_simple_types@PEAX@std@@@2@$00@std@@QEAA@U_Zero_then_variadic_args_t@1@@Z 00000001800886f0 f i UnityPlugin.obj
 0002:0000b760       ??$?0AEAPEAU?$_Tree_node@HPEAX@std@@_N$0A@@?$pair@PEAU?$_Tree_node@HPEAX@std@@_N@std@@QEAA@AEAPEAU?$_Tree_node@HPEAX@1@$$QEA_N@Z 0000000180088760 f i UnityPlugin.obj
 0002:0000b7f0       ??$?0AEAPEAU?$_Tree_node@PEAXPEAX@std@@_N$0A@@?$pair@PEAU?$_Tree_node@PEAXPEAX@std@@_N@std@@QEAA@AEAPEAU?$_Tree_node@PEAXPEAX@1@$$QEA_N@Z 00000001800887f0 f i UnityPlugin.obj
 0002:0000b880       ??$?0AEBH@?$_Tree_temp_node@V?$allocator@U?$_Tree_node@HPEAX@std@@@std@@@std@@QEAA@AEAV?$allocator@U?$_Tree_node@HPEAX@std@@@1@PEAU?$_Tree_node@HPEAX@1@AEBH@Z 0000000180088880 f i UnityPlugin.obj
 0002:0000b9d0       ??$?0AEBU?$less@H@std@@U_Zero_then_variadic_args_t@1@@?$_Compressed_pair@U?$less@H@std@@V?$_Compressed_pair@V?$allocator@U?$_Tree_node@HPEAX@std@@@std@@V?$_Tree_val@U?$_Tree_simple_types@H@std@@@2@$00@2@$00@std@@QEAA@U_One_then_variadic_args_t@1@AEBU?$less@H@1@$$QEAU_Zero_then_variadic_args_t@1@@Z 00000001800889d0 f i UnityPlugin.obj
 0002:0000ba50       ??$?0AEBU?$less@PEAX@std@@U_Zero_then_variadic_args_t@1@@?$_Compressed_pair@U?$less@PEAX@std@@V?$_Compressed_pair@V?$allocator@U?$_Tree_node@PEAXPEAX@std@@@std@@V?$_Tree_val@U?$_Tree_simple_types@PEAX@std@@@2@$00@2@$00@std@@QEAA@U_One_then_variadic_args_t@1@AEBU?$less@PEAX@1@$$QEAU_Zero_then_variadic_args_t@1@@Z 0000000180088a50 f i UnityPlugin.obj
 0002:0000bad0       ??$?0PEAU?$_Tree_node@HPEAX@std@@_N$0A@@?$pair@PEAU?$_Tree_node@HPEAX@std@@_N@std@@QEAA@$$QEAPEAU?$_Tree_node@HPEAX@1@$$QEA_N@Z 0000000180088ad0 f i UnityPlugin.obj
 0002:0000bb60       ??$?0PEAU?$_Tree_node@PEAXPEAX@std@@_N$0A@@?$pair@PEAU?$_Tree_node@PEAXPEAX@std@@_N@std@@QEAA@$$QEAPEAU?$_Tree_node@PEAXPEAX@1@$$QEA_N@Z 0000000180088b60 f i UnityPlugin.obj
 0002:0000bbf0       ??$?0PEAX@?$_Tree_temp_node@V?$allocator@U?$_Tree_node@PEAXPEAX@std@@@std@@@std@@QEAA@AEAV?$allocator@U?$_Tree_node@PEAXPEAX@std@@@1@PEAU?$_Tree_node@PEAXPEAX@1@$$QEAPEAX@Z 0000000180088bf0 f i UnityPlugin.obj
 0002:0000bd40       ??$?0U?$_Tree_node@HPEAX@std@@@?$allocator@U_Container_proxy@std@@@std@@QEAA@AEBV?$allocator@U?$_Tree_node@HPEAX@std@@@1@@Z 0000000180088d40 f i UnityPlugin.obj
 0002:0000bd90       ??$?0U?$_Tree_node@PEAXPEAX@std@@@?$allocator@U_Container_proxy@std@@@std@@QEAA@AEBV?$allocator@U?$_Tree_node@PEAXPEAX@std@@@1@@Z 0000000180088d90 f i UnityPlugin.obj
 0002:0000bde0       ??$?0V?$_Tree_const_iterator@V?$_Tree_val@U?$_Tree_simple_types@H@std@@@std@@@std@@AEB_N$0A@@?$pair@V?$_Tree_const_iterator@V?$_Tree_val@U?$_Tree_simple_types@H@std@@@std@@@std@@_N@std@@QEAA@$$QEAV?$_Tree_const_iterator@V?$_Tree_val@U?$_Tree_simple_types@H@std@@@std@@@1@AEB_N@Z 0000000180088de0 f i UnityPlugin.obj
 0002:0000be70       ??$?0V?$_Tree_const_iterator@V?$_Tree_val@U?$_Tree_simple_types@PEAX@std@@@std@@@std@@AEB_N$0A@@?$pair@V?$_Tree_const_iterator@V?$_Tree_val@U?$_Tree_simple_types@PEAX@std@@@std@@@std@@_N@std@@QEAA@$$QEAV?$_Tree_const_iterator@V?$_Tree_val@U?$_Tree_simple_types@PEAX@std@@@std@@@1@AEB_N@Z 0000000180088e70 f i UnityPlugin.obj
 0002:0000bf00       ??$_Allocate@$0BA@U_Default_allocate_traits@std@@$0A@@std@@YAPEAX_K@Z 0000000180088f00 f i UnityPlugin.obj
 0002:0000bf80       ??$_Allocate_manually_vector_aligned@U_Default_allocate_traits@std@@@std@@YAPEAX_K@Z 0000000180088f80 f i UnityPlugin.obj
 0002:0000c0e0       ??$_Buyheadnode@V?$allocator@U?$_Tree_node@HPEAX@std@@@std@@@?$_Tree_node@HPEAX@std@@SAPEAU01@AEAV?$allocator@U?$_Tree_node@HPEAX@std@@@1@@Z 00000001800890e0 f i UnityPlugin.obj
 0002:0000c1f0       ??$_Buyheadnode@V?$allocator@U?$_Tree_node@PEAXPEAX@std@@@std@@@?$_Tree_node@PEAXPEAX@std@@SAPEAU01@AEAV?$allocator@U?$_Tree_node@PEAXPEAX@std@@@1@@Z 00000001800891f0 f i UnityPlugin.obj
 0002:0000c300       ??$_Construct_in_place@PEAU?$_Tree_node@HPEAX@std@@AEAPEAU12@@std@@YAXAEAPEAU?$_Tree_node@HPEAX@0@0@Z 0000000180089300 f i UnityPlugin.obj
 0002:0000c390       ??$_Construct_in_place@PEAU?$_Tree_node@HPEAX@std@@AEBQEAU12@@std@@YAXAEAPEAU?$_Tree_node@HPEAX@0@AEBQEAU10@@Z 0000000180089390 f i UnityPlugin.obj
 0002:0000c420       ??$_Construct_in_place@PEAU?$_Tree_node@PEAXPEAX@std@@AEAPEAU12@@std@@YAXAEAPEAU?$_Tree_node@PEAXPEAX@0@0@Z 0000000180089420 f i UnityPlugin.obj
 0002:0000c4b0       ??$_Construct_in_place@PEAU?$_Tree_node@PEAXPEAX@std@@AEBQEAU12@@std@@YAXAEAPEAU?$_Tree_node@PEAXPEAX@0@AEBQEAU10@@Z 00000001800894b0 f i UnityPlugin.obj
 0002:0000c540       ??$_Construct_in_place@U_Container_proxy@std@@PEAU_Container_base12@2@@std@@YAXAEAU_Container_proxy@0@$$QEAPEAU_Container_base12@0@@Z 0000000180089540 f i UnityPlugin.obj
 0002:0000c5d0       ??$_Deallocate@$0BA@$0A@@std@@YAXPEAX_K@Z 00000001800895d0 f i UnityPlugin.obj
 0002:0000c650       ??$_Deallocate_plain@V?$allocator@U_Container_proxy@std@@@std@@@std@@YAXAEAV?$allocator@U_Container_proxy@std@@@0@QEAU_Container_proxy@0@@Z 0000000180089650 f i UnityPlugin.obj
 0002:0000c6b0       ??$_Debug_lt_pred@AEBU?$less@H@std@@AEBHAEBH$0A@@std@@YA_NAEBU?$less@H@0@AEBH1@Z 00000001800896b0 f i UnityPlugin.obj
 0002:0000c7f0       ??$_Debug_lt_pred@AEBU?$less@PEAX@std@@AEBQEAXAEBQEAX$0A@@std@@YA_NAEBU?$less@PEAX@0@AEBQEAX1@Z 00000001800897f0 f i UnityPlugin.obj
 0002:0000c930       ??$_Delete_plain_internal@V?$allocator@U_Container_proxy@std@@@std@@@std@@YAXAEAV?$allocator@U_Container_proxy@std@@@0@QEAU_Container_proxy@0@@Z 0000000180089930 f i UnityPlugin.obj
 0002:0000c990       ??$_Destroy_in_place@PEAU?$_Tree_node@HPEAX@std@@@std@@YAXAEAPEAU?$_Tree_node@HPEAX@0@@Z 0000000180089990 f i UnityPlugin.obj
 0002:0000c9d0       ??$_Destroy_in_place@PEAU?$_Tree_node@PEAXPEAX@std@@@std@@YAXAEAPEAU?$_Tree_node@PEAXPEAX@0@@Z 00000001800899d0 f i UnityPlugin.obj
 0002:0000ca10       ??$_Emplace@AEBH@?$_Tree@V?$_Tset_traits@HU?$less@H@std@@V?$allocator@H@2@$0A@@std@@@std@@IEAA?AU?$pair@PEAU?$_Tree_node@HPEAX@std@@_N@1@AEBH@Z 0000000180089a10 f i UnityPlugin.obj
 0002:0000cc70       ??$_Emplace@PEAX@?$_Tree@V?$_Tset_traits@PEAXU?$less@PEAX@std@@V?$allocator@PEAX@2@$0A@@std@@@std@@IEAA?AU?$pair@PEAU?$_Tree_node@PEAXPEAX@std@@_N@1@$$QEAPEAX@Z 0000000180089c70 f i UnityPlugin.obj
 0002:0000ced0       ??$_Erase_head@V?$allocator@U?$_Tree_node@HPEAX@std@@@std@@@?$_Tree_val@U?$_Tree_simple_types@H@std@@@std@@QEAAXAEAV?$allocator@U?$_Tree_node@HPEAX@std@@@1@@Z 0000000180089ed0 f i UnityPlugin.obj
 0002:0000cf60       ??$_Erase_head@V?$allocator@U?$_Tree_node@PEAXPEAX@std@@@std@@@?$_Tree_val@U?$_Tree_simple_types@PEAX@std@@@std@@QEAAXAEAV?$allocator@U?$_Tree_node@PEAXPEAX@std@@@1@@Z 0000000180089f60 f i UnityPlugin.obj
 0002:0000cff0       ??$_Erase_tree@V?$allocator@U?$_Tree_node@HPEAX@std@@@std@@@?$_Tree_val@U?$_Tree_simple_types@H@std@@@std@@QEAAXAEAV?$allocator@U?$_Tree_node@HPEAX@std@@@1@PEAU?$_Tree_node@HPEAX@1@@Z 0000000180089ff0 f i UnityPlugin.obj
 0002:0000d0a0       ??$_Erase_tree@V?$allocator@U?$_Tree_node@PEAXPEAX@std@@@std@@@?$_Tree_val@U?$_Tree_simple_types@PEAX@std@@@std@@QEAAXAEAV?$allocator@U?$_Tree_node@PEAXPEAX@std@@@1@PEAU?$_Tree_node@PEAXPEAX@1@@Z 000000018008a0a0 f i UnityPlugin.obj
 0002:0000d150       ??$_Find@H@?$_Tree@V?$_Tset_traits@HU?$less@H@std@@V?$allocator@H@2@$0A@@std@@@std@@AEBAPEAU?$_Tree_node@HPEAX@1@AEBH@Z 000000018008a150 f i UnityPlugin.obj
 0002:0000d250       ??$_Find@PEAX@?$_Tree@V?$_Tset_traits@PEAXU?$less@PEAX@std@@V?$allocator@PEAX@2@$0A@@std@@@std@@AEBAPEAU?$_Tree_node@PEAXPEAX@1@AEBQEAX@Z 000000018008a250 f i UnityPlugin.obj
 0002:0000d350       ??$_Find_lower_bound@H@?$_Tree@V?$_Tset_traits@HU?$less@H@std@@V?$allocator@H@2@$0A@@std@@@std@@IEBA?AU?$_Tree_find_result@PEAU?$_Tree_node@HPEAX@std@@@1@AEBH@Z 000000018008a350 f i UnityPlugin.obj
 0002:0000d510       ??$_Find_lower_bound@PEAX@?$_Tree@V?$_Tset_traits@PEAXU?$less@PEAX@std@@V?$allocator@PEAX@2@$0A@@std@@@std@@IEBA?AU?$_Tree_find_result@PEAU?$_Tree_node@PEAXPEAX@std@@@1@AEBQEAX@Z 000000018008a510 f i UnityPlugin.obj
 0002:0000d6d0       ??$_Freenode0@V?$allocator@U?$_Tree_node@HPEAX@std@@@std@@@?$_Tree_node@HPEAX@std@@SAXAEAV?$allocator@U?$_Tree_node@HPEAX@std@@@1@PEAU01@@Z 000000018008a6d0 f i UnityPlugin.obj
 0002:0000d770       ??$_Freenode0@V?$allocator@U?$_Tree_node@PEAXPEAX@std@@@std@@@?$_Tree_node@PEAXPEAX@std@@SAXAEAV?$allocator@U?$_Tree_node@PEAXPEAX@std@@@1@PEAU01@@Z 000000018008a770 f i UnityPlugin.obj
 0002:0000d810       ??$_Freenode@V?$allocator@U?$_Tree_node@HPEAX@std@@@std@@@?$_Tree_node@HPEAX@std@@SAXAEAV?$allocator@U?$_Tree_node@HPEAX@std@@@1@PEAU01@@Z 000000018008a810 f i UnityPlugin.obj
 0002:0000d890       ??$_Freenode@V?$allocator@U?$_Tree_node@PEAXPEAX@std@@@std@@@?$_Tree_node@PEAXPEAX@std@@SAXAEAV?$allocator@U?$_Tree_node@PEAXPEAX@std@@@1@PEAU01@@Z 000000018008a890 f i UnityPlugin.obj
 0002:0000d910       ??$_Get_size_of_n@$0BA@@std@@YA_K_K@Z 000000018008a910 f i UnityPlugin.obj
 0002:0000d990       ??$_Get_size_of_n@$0CA@@std@@YA_K_K@Z 000000018008a990 f i UnityPlugin.obj
 0002:0000da10       ??$_Get_size_of_n@$0CI@@std@@YA_K_K@Z 000000018008aa10 f i UnityPlugin.obj
 0002:0000da90       ??$_Lower_bound_duplicate@H@?$_Tree@V?$_Tset_traits@HU?$less@H@std@@V?$allocator@H@2@$0A@@std@@@std@@IEBA_NQEAU?$_Tree_node@HPEAX@1@AEBH@Z 000000018008aa90 f i UnityPlugin.obj
 0002:0000db60       ??$_Lower_bound_duplicate@PEAX@?$_Tree@V?$_Tset_traits@PEAXU?$less@PEAX@std@@V?$allocator@PEAX@2@$0A@@std@@@std@@IEBA_NQEAU?$_Tree_node@PEAXPEAX@1@AEBQEAX@Z 000000018008ab60 f i UnityPlugin.obj
 0002:0000dc30       ??$_Unfancy@U_Container_proxy@std@@@std@@YAPEAU_Container_proxy@0@PEAU10@@Z 000000018008ac30 f i UnityPlugin.obj
 0002:0000dc70       ??$_Voidify_iter@PEAH@std@@YAPEAXPEAH@Z 000000018008ac70 f i UnityPlugin.obj
 0002:0000dcb0       ??$_Voidify_iter@PEAPEAU?$_Tree_node@HPEAX@std@@@std@@YAPEAXPEAPEAU?$_Tree_node@HPEAX@0@@Z 000000018008acb0 f i UnityPlugin.obj
 0002:0000dcf0       ??$_Voidify_iter@PEAPEAU?$_Tree_node@PEAXPEAX@std@@@std@@YAPEAXPEAPEAU?$_Tree_node@PEAXPEAX@0@@Z 000000018008acf0 f i UnityPlugin.obj
 0002:0000dd30       ??$_Voidify_iter@PEAPEAX@std@@YAPEAXPEAPEAX@Z 000000018008ad30 f i UnityPlugin.obj
 0002:0000dd70       ??$_Voidify_iter@PEAU_Container_proxy@std@@@std@@YAPEAXPEAU_Container_proxy@0@@Z 000000018008ad70 f i UnityPlugin.obj
 0002:0000ddb0       ??$addressof@$$CBV?$_Tree_val@U?$_Tree_simple_types@H@std@@@std@@@std@@YAPEBV?$_Tree_val@U?$_Tree_simple_types@H@std@@@0@AEBV10@@Z 000000018008adb0 f i UnityPlugin.obj
 0002:0000ddf0       ??$addressof@$$CBV?$_Tree_val@U?$_Tree_simple_types@PEAX@std@@@std@@@std@@YAPEBV?$_Tree_val@U?$_Tree_simple_types@PEAX@std@@@0@AEBV10@@Z 000000018008adf0 f i UnityPlugin.obj
 0002:0000de30       ??$addressof@H@std@@YAPEAHAEAH@Z 000000018008ae30 f i UnityPlugin.obj
 0002:0000de70       ??$addressof@PEAU?$_Tree_node@HPEAX@std@@@std@@YAPEAPEAU?$_Tree_node@HPEAX@0@AEAPEAU10@@Z 000000018008ae70 f i UnityPlugin.obj
 0002:0000deb0       ??$addressof@PEAU?$_Tree_node@PEAXPEAX@std@@@std@@YAPEAPEAU?$_Tree_node@PEAXPEAX@0@AEAPEAU10@@Z 000000018008aeb0 f i UnityPlugin.obj
 0002:0000def0       ??$addressof@PEAX@std@@YAPEAPEAXAEAPEAX@Z 000000018008aef0 f i UnityPlugin.obj
 0002:0000df30       ??$addressof@U_Container_base12@std@@@std@@YAPEAU_Container_base12@0@AEAU10@@Z 000000018008af30 f i UnityPlugin.obj
 0002:0000df70       ??$addressof@U_Container_proxy@std@@@std@@YAPEAU_Container_proxy@0@AEAU10@@Z 000000018008af70 f i UnityPlugin.obj
 0002:0000dfb0       ??$addressof@V?$_Tree_val@U?$_Tree_simple_types@H@std@@@std@@@std@@YAPEAV?$_Tree_val@U?$_Tree_simple_types@H@std@@@0@AEAV10@@Z 000000018008afb0 f i UnityPlugin.obj
 0002:0000dff0       ??$addressof@V?$_Tree_val@U?$_Tree_simple_types@PEAX@std@@@std@@@std@@YAPEAV?$_Tree_val@U?$_Tree_simple_types@PEAX@std@@@0@AEAV10@@Z 000000018008aff0 f i UnityPlugin.obj
 0002:0000e030       ??$construct@HAEBH@?$_Default_allocator_traits@V?$allocator@U?$_Tree_node@HPEAX@std@@@std@@@std@@SAXAEAV?$allocator@U?$_Tree_node@HPEAX@std@@@1@QEAHAEBH@Z 000000018008b030 f i UnityPlugin.obj
 0002:0000e0c0       ??$construct@PEAXPEAX@?$_Default_allocator_traits@V?$allocator@U?$_Tree_node@PEAXPEAX@std@@@std@@@std@@SAXAEAV?$allocator@U?$_Tree_node@PEAXPEAX@std@@@1@QEAPEAX$$QEAPEAX@Z 000000018008b0c0 f i UnityPlugin.obj
 0002:0000e150       ??$destroy@H@?$_Default_allocator_traits@V?$allocator@U?$_Tree_node@HPEAX@std@@@std@@@std@@SAXAEAV?$allocator@U?$_Tree_node@HPEAX@std@@@1@QEAH@Z 000000018008b150 f i UnityPlugin.obj
 0002:0000e190       ??$destroy@PEAX@?$_Default_allocator_traits@V?$allocator@U?$_Tree_node@PEAXPEAX@std@@@std@@@std@@SAXAEAV?$allocator@U?$_Tree_node@PEAXPEAX@std@@@1@QEAPEAX@Z 000000018008b190 f i UnityPlugin.obj
 0002:0000e1d0       ??$exchange@PEAU?$_Tree_node@HPEAX@std@@$$T@std@@YAPEAU?$_Tree_node@HPEAX@0@AEAPEAU10@$$QEA$$T@Z 000000018008b1d0 f i UnityPlugin.obj
 0002:0000e240       ??$exchange@PEAU?$_Tree_node@HPEAX@std@@AEAPEAU12@@std@@YAPEAU?$_Tree_node@HPEAX@0@AEAPEAU10@0@Z 000000018008b240 f i UnityPlugin.obj
 0002:0000e2b0       ??$exchange@PEAU?$_Tree_node@PEAXPEAX@std@@$$T@std@@YAPEAU?$_Tree_node@PEAXPEAX@0@AEAPEAU10@$$QEA$$T@Z 000000018008b2b0 f i UnityPlugin.obj
 0002:0000e320       ??$exchange@PEAU?$_Tree_node@PEAXPEAX@std@@AEAPEAU12@@std@@YAPEAU?$_Tree_node@PEAXPEAX@0@AEAPEAU10@0@Z 000000018008b320 f i UnityPlugin.obj
 0002:0000e390       ??$forward@AEAPEAU?$_Tree_node@HPEAX@std@@@std@@YAAEAPEAU?$_Tree_node@HPEAX@0@AEAPEAU10@@Z 000000018008b390 f i UnityPlugin.obj
 0002:0000e3d0       ??$forward@AEAPEAU?$_Tree_node@PEAXPEAX@std@@@std@@YAAEAPEAU?$_Tree_node@PEAXPEAX@0@AEAPEAU10@@Z 000000018008b3d0 f i UnityPlugin.obj
 0002:0000e410       ??$forward@AEBH@std@@YAAEBHAEBH@Z 000000018008b410 f i UnityPlugin.obj
 0002:0000e450       ??$forward@AEBQEAU?$_Tree_node@HPEAX@std@@@std@@YAAEBQEAU?$_Tree_node@HPEAX@0@AEBQEAU10@@Z 000000018008b450 f i UnityPlugin.obj
 0002:0000e490       ??$forward@AEBQEAU?$_Tree_node@PEAXPEAX@std@@@std@@YAAEBQEAU?$_Tree_node@PEAXPEAX@0@AEBQEAU10@@Z 000000018008b490 f i UnityPlugin.obj
 0002:0000e4d0       ??$forward@AEBU?$less@H@std@@@std@@YAAEBU?$less@H@0@AEBU10@@Z 000000018008b4d0 f i UnityPlugin.obj
 0002:0000e510       ??$forward@AEBU?$less@PEAX@std@@@std@@YAAEBU?$less@PEAX@0@AEBU10@@Z 000000018008b510 f i UnityPlugin.obj
 0002:0000e550       ??$forward@AEB_N@std@@YAAEB_NAEB_N@Z 000000018008b550 f i UnityPlugin.obj
 0002:0000e590       ??$forward@PEAU?$_Tree_node@HPEAX@std@@@std@@YA$$QEAPEAU?$_Tree_node@HPEAX@0@AEAPEAU10@@Z 000000018008b590 f i UnityPlugin.obj
 0002:0000e5d0       ??$forward@PEAU?$_Tree_node@PEAXPEAX@std@@@std@@YA$$QEAPEAU?$_Tree_node@PEAXPEAX@0@AEAPEAU10@@Z 000000018008b5d0 f i UnityPlugin.obj
 0002:0000e610       ??$forward@PEAU_Container_base12@std@@@std@@YA$$QEAPEAU_Container_base12@0@AEAPEAU10@@Z 000000018008b610 f i UnityPlugin.obj
 0002:0000e650       ??$forward@PEAX@std@@YA$$QEAPEAXAEAPEAX@Z 000000018008b650 f i UnityPlugin.obj
 0002:0000e690       ??$forward@U_Zero_then_variadic_args_t@std@@@std@@YA$$QEAU_Zero_then_variadic_args_t@0@AEAU10@@Z 000000018008b690 f i UnityPlugin.obj
 0002:0000e6d0       ??$forward@V?$_Tree_const_iterator@V?$_Tree_val@U?$_Tree_simple_types@H@std@@@std@@@std@@@std@@YA$$QEAV?$_Tree_const_iterator@V?$_Tree_val@U?$_Tree_simple_types@H@std@@@std@@@0@AEAV10@@Z 000000018008b6d0 f i UnityPlugin.obj
 0002:0000e710       ??$forward@V?$_Tree_const_iterator@V?$_Tree_val@U?$_Tree_simple_types@PEAX@std@@@std@@@std@@@std@@YA$$QEAV?$_Tree_const_iterator@V?$_Tree_val@U?$_Tree_simple_types@PEAX@std@@@std@@@0@AEAV10@@Z 000000018008b710 f i UnityPlugin.obj
 0002:0000e750       ??$forward@_N@std@@YA$$QEA_NAEA_N@Z 000000018008b750 f i UnityPlugin.obj
 0002:0000e790       ??$insert@$0A@$0A@@?$_Tree@V?$_Tset_traits@HU?$less@H@std@@V?$allocator@H@2@$0A@@std@@@std@@QEAA?AU?$pair@V?$_Tree_const_iterator@V?$_Tree_val@U?$_Tree_simple_types@H@std@@@std@@@std@@_N@1@AEBH@Z 000000018008b790 f i UnityPlugin.obj
 0002:0000e8e0       ??$insert@$0A@$0A@@?$_Tree@V?$_Tset_traits@PEAXU?$less@PEAX@std@@V?$allocator@PEAX@2@$0A@@std@@@std@@QEAA?AU?$pair@V?$_Tree_const_iterator@V?$_Tree_val@U?$_Tree_simple_types@PEAX@std@@@std@@@std@@_N@1@$$QEAPEAX@Z 000000018008b8e0 f i UnityPlugin.obj
 0002:0000ea30       ??$min@_K@std@@YAAEB_KAEB_K0@Z 000000018008ba30 f i UnityPlugin.obj
 0002:0000ead0       ??$move@AEAPEAX@std@@YA$$QEAPEAXAEAPEAX@Z 000000018008bad0 f i UnityPlugin.obj
 0002:0000eb10       ??0?$_Alloc_construct_ptr@V?$allocator@U?$_Tree_node@HPEAX@std@@@std@@@std@@QEAA@AEAV?$allocator@U?$_Tree_node@HPEAX@std@@@1@@Z 000000018008bb10 f i UnityPlugin.obj
 0002:0000eb80       ??0?$_Alloc_construct_ptr@V?$allocator@U?$_Tree_node@PEAXPEAX@std@@@std@@@std@@QEAA@AEAV?$allocator@U?$_Tree_node@PEAXPEAX@std@@@1@@Z 000000018008bb80 f i UnityPlugin.obj
 0002:0000ebf0       ??0?$_Container_proxy_ptr12@V?$allocator@U_Container_proxy@std@@@std@@@std@@QEAA@AEAV?$allocator@U_Container_proxy@std@@@1@AEAU_Container_base12@1@@Z 000000018008bbf0 f i UnityPlugin.obj
 0002:0000ece0       ??0?$_Tree@V?$_Tset_traits@HU?$less@H@std@@V?$allocator@H@2@$0A@@std@@@std@@QEAA@AEBU?$less@H@1@@Z 000000018008bce0 f i UnityPlugin.obj
 0002:0000ed60       ??0?$_Tree@V?$_Tset_traits@PEAXU?$less@PEAX@std@@V?$allocator@PEAX@2@$0A@@std@@@std@@QEAA@AEBU?$less@PEAX@1@@Z 000000018008bd60 f i UnityPlugin.obj
 0002:0000ede0       ??0?$_Tree_const_iterator@V?$_Tree_val@U?$_Tree_simple_types@H@std@@@std@@@std@@QEAA@$$QEAV01@@Z 000000018008bde0 f i UnityPlugin.obj
 0002:0000ee30       ??0?$_Tree_const_iterator@V?$_Tree_val@U?$_Tree_simple_types@H@std@@@std@@@std@@QEAA@PEAU?$_Tree_node@HPEAX@1@PEBV?$_Tree_val@U?$_Tree_simple_types@H@std@@@1@@Z 000000018008be30 f i UnityPlugin.obj
 0002:0000ee90       ??0?$_Tree_const_iterator@V?$_Tree_val@U?$_Tree_simple_types@PEAX@std@@@std@@@std@@QEAA@$$QEAV01@@Z 000000018008be90 f i UnityPlugin.obj
 0002:0000eee0       ??0?$_Tree_const_iterator@V?$_Tree_val@U?$_Tree_simple_types@PEAX@std@@@std@@@std@@QEAA@PEAU?$_Tree_node@PEAXPEAX@1@PEBV?$_Tree_val@U?$_Tree_simple_types@PEAX@std@@@1@@Z 000000018008bee0 f i UnityPlugin.obj
 0002:0000ef40       ??0?$_Tree_temp_node_alloc@V?$allocator@U?$_Tree_node@HPEAX@std@@@std@@@std@@QEAA@AEAV?$allocator@U?$_Tree_node@HPEAX@std@@@1@@Z 000000018008bf40 f i UnityPlugin.obj
 0002:0000efb0       ??0?$_Tree_temp_node_alloc@V?$allocator@U?$_Tree_node@PEAXPEAX@std@@@std@@@std@@QEAA@AEAV?$allocator@U?$_Tree_node@PEAXPEAX@std@@@1@@Z 000000018008bfb0 f i UnityPlugin.obj
 0002:0000f020       ??0?$_Tree_unchecked_const_iterator@V?$_Tree_val@U?$_Tree_simple_types@H@std@@@std@@U_Iterator_base12@2@@std@@QEAA@$$QEAV01@@Z 000000018008c020 f i UnityPlugin.obj
 0002:0000f090       ??0?$_Tree_unchecked_const_iterator@V?$_Tree_val@U?$_Tree_simple_types@H@std@@@std@@U_Iterator_base12@2@@std@@QEAA@PEAU?$_Tree_node@HPEAX@1@PEBV?$_Tree_val@U?$_Tree_simple_types@H@std@@@1@@Z 000000018008c090 f i UnityPlugin.obj
 0002:0000f120       ??0?$_Tree_unchecked_const_iterator@V?$_Tree_val@U?$_Tree_simple_types@PEAX@std@@@std@@U_Iterator_base12@2@@std@@QEAA@$$QEAV01@@Z 000000018008c120 f i UnityPlugin.obj
 0002:0000f190       ??0?$_Tree_unchecked_const_iterator@V?$_Tree_val@U?$_Tree_simple_types@PEAX@std@@@std@@U_Iterator_base12@2@@std@@QEAA@PEAU?$_Tree_node@PEAXPEAX@1@PEBV?$_Tree_val@U?$_Tree_simple_types@PEAX@std@@@1@@Z 000000018008c190 f i UnityPlugin.obj
 0002:0000f220       ??0?$_Tree_val@U?$_Tree_simple_types@H@std@@@std@@QEAA@XZ 000000018008c220 f i UnityPlugin.obj
 0002:0000f290       ??0?$_Tree_val@U?$_Tree_simple_types@PEAX@std@@@std@@QEAA@XZ 000000018008c290 f i UnityPlugin.obj
 0002:0000f300       ??0?$allocator@U?$_Tree_node@HPEAX@std@@@std@@QEAA@XZ 000000018008c300 f i UnityPlugin.obj
 0002:0000f340       ??0?$allocator@U?$_Tree_node@PEAXPEAX@std@@@std@@QEAA@XZ 000000018008c340 f i UnityPlugin.obj
 0002:0000f380       ??0?$lock_guard@Vmutex@std@@@std@@QEAA@AEAVmutex@1@@Z 000000018008c380 f i UnityPlugin.obj
 0002:0000f3f0       ??0?$set@HU?$less@H@std@@V?$allocator@H@2@@std@@QEAA@XZ 000000018008c3f0 f i UnityPlugin.obj
 0002:0000f450       ??0?$set@PEAXU?$less@PEAX@std@@V?$allocator@PEAX@2@@std@@QEAA@XZ 000000018008c450 f i UnityPlugin.obj
 0002:0000f4b0       ??0_Basic_container_proxy_ptr12@std@@IEAA@XZ 000000018008c4b0 f i UnityPlugin.obj
 0002:0000f500       ??0_Container_base12@std@@QEAA@XZ 000000018008c500 f i UnityPlugin.obj
 0002:0000f550       ??0_Container_proxy@std@@QEAA@PEAU_Container_base12@1@@Z 000000018008c550 f i UnityPlugin.obj
 0002:0000f5c0       ??0_Iterator_base12@std@@QEAA@AEBU01@@Z 000000018008c5c0 f i UnityPlugin.obj
 0002:0000f640       ??0_Iterator_base12@std@@QEAA@XZ 000000018008c640 f i UnityPlugin.obj
 0002:0000f6a0       ??0_Mutex_base@std@@QEAA@H@Z 000000018008c6a0 f i UnityPlugin.obj
 0002:0000f720       ??0bad_alloc@std@@AEAA@QEBD@Z 000000018008c720 f i UnityPlugin.obj
 0002:0000f7a0       ??0bad_alloc@std@@QEAA@AEBV01@@Z 000000018008c7a0 f i UnityPlugin.obj
 0002:0000f800       ??0bad_array_new_length@std@@QEAA@AEBV01@@Z 000000018008c800 f i UnityPlugin.obj
 0002:0000f860       ??0bad_array_new_length@std@@QEAA@XZ 000000018008c860 f i UnityPlugin.obj
 0002:0000f8d0       ??0exception@std@@QEAA@AEBV01@@Z 000000018008c8d0 f i UnityPlugin.obj
 0002:0000f970       ??0exception@std@@QEAA@QEBDH@Z 000000018008c970 f i UnityPlugin.obj
 0002:0000fa10       ??0mutex@std@@QEAA@XZ      000000018008ca10 f i UnityPlugin.obj
 0002:0000fa60       ??1?$_Alloc_construct_ptr@V?$allocator@U?$_Tree_node@HPEAX@std@@@std@@@std@@QEAA@XZ 000000018008ca60 f i UnityPlugin.obj
 0002:0000fad0       ??1?$_Alloc_construct_ptr@V?$allocator@U?$_Tree_node@PEAXPEAX@std@@@std@@@std@@QEAA@XZ 000000018008cad0 f i UnityPlugin.obj
 0002:0000fb40       ??1?$_Container_proxy_ptr12@V?$allocator@U_Container_proxy@std@@@std@@@std@@QEAA@XZ 000000018008cb40 f i UnityPlugin.obj
 0002:0000fbb0       ??1?$_Tree@V?$_Tset_traits@HU?$less@H@std@@V?$allocator@H@2@$0A@@std@@@std@@QEAA@XZ 000000018008cbb0 f i UnityPlugin.obj
 0002:0000fcb0       ??1?$_Tree@V?$_Tset_traits@PEAXU?$less@PEAX@std@@V?$allocator@PEAX@2@$0A@@std@@@std@@QEAA@XZ 000000018008ccb0 f i UnityPlugin.obj
 0002:0000fdb0       ??1?$_Tree_const_iterator@V?$_Tree_val@U?$_Tree_simple_types@H@std@@@std@@@std@@QEAA@XZ 000000018008cdb0 f i UnityPlugin.obj
 0002:0000fdf0       ??1?$_Tree_const_iterator@V?$_Tree_val@U?$_Tree_simple_types@PEAX@std@@@std@@@std@@QEAA@XZ 000000018008cdf0 f i UnityPlugin.obj
 0002:0000fe30       ??1?$_Tree_temp_node@V?$allocator@U?$_Tree_node@HPEAX@std@@@std@@@std@@QEAA@XZ 000000018008ce30 f i UnityPlugin.obj
 0002:0000ff10       ??1?$_Tree_temp_node@V?$allocator@U?$_Tree_node@PEAXPEAX@std@@@std@@@std@@QEAA@XZ 000000018008cf10 f i UnityPlugin.obj
 0002:0000fff0       ??1?$_Tree_temp_node_alloc@V?$allocator@U?$_Tree_node@HPEAX@std@@@std@@@std@@QEAA@XZ 000000018008cff0 f i UnityPlugin.obj
 0002:00010030       ??1?$_Tree_temp_node_alloc@V?$allocator@U?$_Tree_node@PEAXPEAX@std@@@std@@@std@@QEAA@XZ 000000018008d030 f i UnityPlugin.obj
 0002:00010070       ??1?$_Tree_unchecked_const_iterator@V?$_Tree_val@U?$_Tree_simple_types@H@std@@@std@@U_Iterator_base12@2@@std@@QEAA@XZ 000000018008d070 f i UnityPlugin.obj
 0002:000100b0       ??1?$_Tree_unchecked_const_iterator@V?$_Tree_val@U?$_Tree_simple_types@PEAX@std@@@std@@U_Iterator_base12@2@@std@@QEAA@XZ 000000018008d0b0 f i UnityPlugin.obj
 0002:000100f0       ??1?$lock_guard@Vmutex@std@@@std@@QEAA@XZ 000000018008d0f0 f i UnityPlugin.obj
 0002:00010140       ??1?$pair@V?$_Tree_const_iterator@V?$_Tree_val@U?$_Tree_simple_types@H@std@@@std@@@std@@_N@std@@QEAA@XZ 000000018008d140 f i UnityPlugin.obj
 0002:00010180       ??1?$pair@V?$_Tree_const_iterator@V?$_Tree_val@U?$_Tree_simple_types@PEAX@std@@@std@@@std@@_N@std@@QEAA@XZ 000000018008d180 f i UnityPlugin.obj
 0002:000101c0       ??1?$set@HU?$less@H@std@@V?$allocator@H@2@@std@@QEAA@XZ 000000018008d1c0 f i UnityPlugin.obj
 0002:00010200       ??1?$set@PEAXU?$less@PEAX@std@@V?$allocator@PEAX@2@@std@@QEAA@XZ 000000018008d200 f i UnityPlugin.obj
 0002:00010240       ??1_Iterator_base12@std@@QEAA@XZ 000000018008d240 f i UnityPlugin.obj
 0002:00010290       ??1_Mutex_base@std@@QEAA@XZ 000000018008d290 f i UnityPlugin.obj
 0002:000102e0       ??1bad_alloc@std@@UEAA@XZ  000000018008d2e0 f i UnityPlugin.obj
 0002:00010320       ??1bad_array_new_length@std@@UEAA@XZ 000000018008d320 f i UnityPlugin.obj
 0002:00010360       ??1exception@std@@UEAA@XZ  000000018008d360 f i UnityPlugin.obj
 0002:000103c0       ??1mutex@std@@QEAA@XZ      000000018008d3c0 f i UnityPlugin.obj
 0002:00010400       ??2@YAPEAX_KPEAX@Z         000000018008d400 f i UnityPlugin.obj
 0002:00010450       ??4_Iterator_base12@std@@QEAAAEAU01@AEBU01@@Z 000000018008d450 f i UnityPlugin.obj
 0002:000104b0       ??8?$_Tree_const_iterator@V?$_Tree_val@U?$_Tree_simple_types@H@std@@@std@@@std@@QEBA_NAEBV01@@Z 000000018008d4b0 f i UnityPlugin.obj
 0002:00010600       ??8?$_Tree_const_iterator@V?$_Tree_val@U?$_Tree_simple_types@PEAX@std@@@std@@@std@@QEBA_NAEBV01@@Z 000000018008d600 f i UnityPlugin.obj
 0002:00010750       ??R?$less@H@std@@QEBA_NAEBH0@Z 000000018008d750 f i UnityPlugin.obj
 0002:000107d0       ??R?$less@PEAX@std@@QEBA_NAEBQEAX0@Z 000000018008d7d0 f i UnityPlugin.obj
 0002:00010850       ??_Ebad_alloc@std@@UEAAPEAXI@Z 000000018008d850 f i UnityPlugin.obj
 0002:00010850       ??_Gbad_alloc@std@@UEAAPEAXI@Z 000000018008d850 f i UnityPlugin.obj
 0002:000108c0       ??_Gbad_array_new_length@std@@UEAAPEAXI@Z 000000018008d8c0 f i UnityPlugin.obj
 0002:000108c0       ??_Ebad_array_new_length@std@@UEAAPEAXI@Z 000000018008d8c0 f i UnityPlugin.obj
 0002:00010930       ??_Gexception@std@@UEAAPEAXI@Z 000000018008d930 f i UnityPlugin.obj
 0002:00010930       ??_Eexception@std@@UEAAPEAXI@Z 000000018008d930 f i UnityPlugin.obj
 0002:000109a0       ?EncryptData@@YA_NPEAE_K0101@Z 000000018008d9a0 f i UnityPlugin.obj
 0002:00010b10       ?Hash@@YAII@Z              000000018008db10 f i UnityPlugin.obj
 0002:00010be0       ?_Adjust_manually_vector_aligned@std@@YAXAEAPEAXAEA_K@Z 000000018008dbe0 f i UnityPlugin.obj
 0002:00010e20       ?_Adopt@_Iterator_base12@std@@QEAAXPEBU_Container_base12@2@@Z 000000018008de20 f i UnityPlugin.obj
 0002:00010e80       ?_Adopt_locked@_Iterator_base12@std@@AEAAXPEBU_Container_base12@2@@Z 000000018008de80 f i UnityPlugin.obj
 0002:00010f50       ?_Adopt_unlocked@_Iterator_base12@std@@AEAAXPEBU_Container_base12@2@@Z 000000018008df50 f i UnityPlugin.obj
 0002:00011030       ?_Alloc_sentinel_and_proxy@?$_Tree@V?$_Tset_traits@HU?$less@H@std@@V?$allocator@H@2@$0A@@std@@@std@@IEAAXXZ 000000018008e030 f i UnityPlugin.obj
 0002:00011150       ?_Alloc_sentinel_and_proxy@?$_Tree@V?$_Tset_traits@PEAXU?$less@PEAX@std@@V?$allocator@PEAX@2@$0A@@std@@@std@@IEAAXXZ 000000018008e150 f i UnityPlugin.obj
 0002:00011270       ?_Allocate@?$_Alloc_construct_ptr@V?$allocator@U?$_Tree_node@HPEAX@std@@@std@@@std@@QEAAXXZ 000000018008e270 f i UnityPlugin.obj
 0002:000112e0       ?_Allocate@?$_Alloc_construct_ptr@V?$allocator@U?$_Tree_node@PEAXPEAX@std@@@std@@@std@@QEAAXXZ 000000018008e2e0 f i UnityPlugin.obj
 0002:00011350       ?_Allocate@_Default_allocate_traits@std@@SAPEAX_K@Z 000000018008e350 f i UnityPlugin.obj
 0002:000113a0       ?_Assign_locked@_Iterator_base12@std@@AEAAXAEBU12@@Z 000000018008e3a0 f i UnityPlugin.obj
 0002:00011470       ?_Assign_unlocked@_Iterator_base12@std@@AEAAXAEBU12@@Z 000000018008e470 f i UnityPlugin.obj
 0002:00011510       ?_Check_C_return@std@@YAHH@Z 000000018008e510 f i UnityPlugin.obj
 0002:00011570       ?_Check_grow_by_1@?$_Tree@V?$_Tset_traits@HU?$less@H@std@@V?$allocator@H@2@$0A@@std@@@std@@IEAAXXZ 000000018008e570 f i UnityPlugin.obj
 0002:000115e0       ?_Check_grow_by_1@?$_Tree@V?$_Tset_traits@PEAXU?$less@PEAX@std@@V?$allocator@PEAX@2@$0A@@std@@@std@@IEAAXXZ 000000018008e5e0 f i UnityPlugin.obj
 0002:00011650       ?_Extract@?$_In_place_key_extract_set@HH@std@@SAAEBHAEBH@Z 000000018008e650 f i UnityPlugin.obj
 0002:00011690       ?_Extract@?$_In_place_key_extract_set@PEAXPEAX@std@@SAAEBQEAXAEBQEAX@Z 000000018008e690 f i UnityPlugin.obj
 0002:000116d0       ?_Get_first@?$_Compressed_pair@U?$less@H@std@@V?$_Compressed_pair@V?$allocator@U?$_Tree_node@HPEAX@std@@@std@@V?$_Tree_val@U?$_Tree_simple_types@H@std@@@2@$00@2@$00@std@@QEBAAEBU?$less@H@2@XZ 000000018008e6d0 f i UnityPlugin.obj
 0002:00011710       ?_Get_first@?$_Compressed_pair@U?$less@PEAX@std@@V?$_Compressed_pair@V?$allocator@U?$_Tree_node@PEAXPEAX@std@@@std@@V?$_Tree_val@U?$_Tree_simple_types@PEAX@std@@@2@$00@2@$00@std@@QEBAAEBU?$less@PEAX@2@XZ 000000018008e710 f i UnityPlugin.obj
 0002:00011750       ?_Get_first@?$_Compressed_pair@V?$allocator@U?$_Tree_node@HPEAX@std@@@std@@V?$_Tree_val@U?$_Tree_simple_types@H@std@@@2@$00@std@@QEAAAEAV?$allocator@U?$_Tree_node@HPEAX@std@@@2@XZ 000000018008e750 f i UnityPlugin.obj
 0002:00011790       ?_Get_first@?$_Compressed_pair@V?$allocator@U?$_Tree_node@HPEAX@std@@@std@@V?$_Tree_val@U?$_Tree_simple_types@H@std@@@2@$00@std@@QEBAAEBV?$allocator@U?$_Tree_node@HPEAX@std@@@2@XZ 000000018008e790 f i UnityPlugin.obj
 0002:000117d0       ?_Get_first@?$_Compressed_pair@V?$allocator@U?$_Tree_node@PEAXPEAX@std@@@std@@V?$_Tree_val@U?$_Tree_simple_types@PEAX@std@@@2@$00@std@@QEAAAEAV?$allocator@U?$_Tree_node@PEAXPEAX@std@@@2@XZ 000000018008e7d0 f i UnityPlugin.obj
 0002:00011810       ?_Get_first@?$_Compressed_pair@V?$allocator@U?$_Tree_node@PEAXPEAX@std@@@std@@V?$_Tree_val@U?$_Tree_simple_types@PEAX@std@@@2@$00@std@@QEBAAEBV?$allocator@U?$_Tree_node@PEAXPEAX@std@@@2@XZ 000000018008e810 f i UnityPlugin.obj
 0002:00011850       ?_Get_scary@?$_Tree@V?$_Tset_traits@HU?$less@H@std@@V?$allocator@H@2@$0A@@std@@@std@@IEAAPEAV?$_Tree_val@U?$_Tree_simple_types@H@std@@@2@XZ 000000018008e850 f i UnityPlugin.obj
 0002:000118a0       ?_Get_scary@?$_Tree@V?$_Tset_traits@HU?$less@H@std@@V?$allocator@H@2@$0A@@std@@@std@@IEBAPEBV?$_Tree_val@U?$_Tree_simple_types@H@std@@@2@XZ 000000018008e8a0 f i UnityPlugin.obj
 0002:000118f0       ?_Get_scary@?$_Tree@V?$_Tset_traits@PEAXU?$less@PEAX@std@@V?$allocator@PEAX@2@$0A@@std@@@std@@IEAAPEAV?$_Tree_val@U?$_Tree_simple_types@PEAX@std@@@2@XZ 000000018008e8f0 f i UnityPlugin.obj
 0002:00011940       ?_Get_scary@?$_Tree@V?$_Tset_traits@PEAXU?$less@PEAX@std@@V?$allocator@PEAX@2@$0A@@std@@@std@@IEBAPEBV?$_Tree_val@U?$_Tree_simple_types@PEAX@std@@@2@XZ 000000018008e940 f i UnityPlugin.obj
 0002:00011990       ?_Getal@?$_Tree@V?$_Tset_traits@HU?$less@H@std@@V?$allocator@H@2@$0A@@std@@@std@@IEAAAEAV?$allocator@U?$_Tree_node@HPEAX@std@@@2@XZ 000000018008e990 f i UnityPlugin.obj
 0002:000119e0       ?_Getal@?$_Tree@V?$_Tset_traits@HU?$less@H@std@@V?$allocator@H@2@$0A@@std@@@std@@IEBAAEBV?$allocator@U?$_Tree_node@HPEAX@std@@@2@XZ 000000018008e9e0 f i UnityPlugin.obj
 0002:00011a30       ?_Getal@?$_Tree@V?$_Tset_traits@PEAXU?$less@PEAX@std@@V?$allocator@PEAX@2@$0A@@std@@@std@@IEAAAEAV?$allocator@U?$_Tree_node@PEAXPEAX@std@@@2@XZ 000000018008ea30 f i UnityPlugin.obj
 0002:00011a80       ?_Getal@?$_Tree@V?$_Tset_traits@PEAXU?$less@PEAX@std@@V?$allocator@PEAX@2@$0A@@std@@@std@@IEBAAEBV?$allocator@U?$_Tree_node@PEAXPEAX@std@@@2@XZ 000000018008ea80 f i UnityPlugin.obj
 0002:00011ad0       ?_Getcomp@?$_Tree@V?$_Tset_traits@HU?$less@H@std@@V?$allocator@H@2@$0A@@std@@@std@@IEBAAEBU?$less@H@2@XZ 000000018008ead0 f i UnityPlugin.obj
 0002:00011b20       ?_Getcomp@?$_Tree@V?$_Tset_traits@PEAXU?$less@PEAX@std@@V?$allocator@PEAX@2@$0A@@std@@@std@@IEBAAEBU?$less@PEAX@2@XZ 000000018008eb20 f i UnityPlugin.obj
 0002:00011b70       ?_Getcont@_Iterator_base12@std@@QEBAPEBU_Container_base12@2@XZ 000000018008eb70 f i UnityPlugin.obj
 0002:00011bf0       ?_Insert_node@?$_Tree_val@U?$_Tree_simple_types@H@std@@@std@@QEAAPEAU?$_Tree_node@HPEAX@2@U?$_Tree_id@PEAU?$_Tree_node@HPEAX@std@@@2@QEAU32@@Z 000000018008ebf0 f i UnityPlugin.obj
 0002:00011fc0       ?_Insert_node@?$_Tree_val@U?$_Tree_simple_types@PEAX@std@@@std@@QEAAPEAU?$_Tree_node@PEAXPEAX@2@U?$_Tree_id@PEAU?$_Tree_node@PEAXPEAX@std@@@2@QEAU32@@Z 000000018008efc0 f i UnityPlugin.obj
 0002:00012390       ?_Kfn@?$_Tset_traits@HU?$less@H@std@@V?$allocator@H@2@$0A@@std@@SAAEBHAEBH@Z 000000018008f390 f i UnityPlugin.obj
 0002:000123d0       ?_Kfn@?$_Tset_traits@PEAXU?$less@PEAX@std@@V?$allocator@PEAX@2@$0A@@std@@SAAEBQEAXAEBQEAX@Z 000000018008f3d0 f i UnityPlugin.obj
 0002:00012410       ?_Lrotate@?$_Tree_val@U?$_Tree_simple_types@H@std@@@std@@QEAAXPEAU?$_Tree_node@HPEAX@2@@Z 000000018008f410 f i UnityPlugin.obj
 0002:00012560       ?_Lrotate@?$_Tree_val@U?$_Tree_simple_types@PEAX@std@@@std@@QEAAXPEAU?$_Tree_node@PEAXPEAX@2@@Z 000000018008f560 f i UnityPlugin.obj
 0002:000126b0       ?_Mymtx@_Mutex_base@std@@AEAAPEAU_Mtx_internal_imp_t@@XZ 000000018008f6b0 f i UnityPlugin.obj
 0002:000126f0       ?_Orphan_all@_Container_base12@std@@QEAAXXZ 000000018008f6f0 f i UnityPlugin.obj
 0002:00012740       ?_Orphan_all_locked_v3@_Container_base12@std@@AEAAXXZ 000000018008f740 f i UnityPlugin.obj
 0002:00012800       ?_Orphan_all_unlocked_v3@_Container_base12@std@@AEAAXXZ 000000018008f800 f i UnityPlugin.obj
 0002:000128b0       ?_Orphan_me_locked_v3@_Iterator_base12@std@@AEAAXXZ 000000018008f8b0 f i UnityPlugin.obj
 0002:00012970       ?_Orphan_me_unlocked_v3@_Iterator_base12@std@@AEAAXXZ 000000018008f970 f i UnityPlugin.obj
 0002:00012ae0       ?_Release@?$_Alloc_construct_ptr@V?$allocator@U?$_Tree_node@HPEAX@std@@@std@@@std@@QEAAPEAU?$_Tree_node@HPEAX@2@XZ 000000018008fae0 f i UnityPlugin.obj
 0002:00012b50       ?_Release@?$_Alloc_construct_ptr@V?$allocator@U?$_Tree_node@PEAXPEAX@std@@@std@@@std@@QEAAPEAU?$_Tree_node@PEAXPEAX@2@XZ 000000018008fb50 f i UnityPlugin.obj
 0002:00012bc0       ?_Release@_Basic_container_proxy_ptr12@std@@QEAAXXZ 000000018008fbc0 f i UnityPlugin.obj
 0002:00012c10       ?_Rrotate@?$_Tree_val@U?$_Tree_simple_types@H@std@@@std@@QEAAXPEAU?$_Tree_node@HPEAX@2@@Z 000000018008fc10 f i UnityPlugin.obj
 0002:00012d70       ?_Rrotate@?$_Tree_val@U?$_Tree_simple_types@PEAX@std@@@std@@QEAAXPEAU?$_Tree_node@PEAXPEAX@2@@Z 000000018008fd70 f i UnityPlugin.obj
 0002:00012ed0       ?_Throw_bad_array_new_length@std@@YAXXZ 000000018008fed0 f i UnityPlugin.obj
 0002:00012f30       ?_Throw_tree_length_error@std@@YAXXZ 000000018008ff30 f i UnityPlugin.obj
 0002:00012f70       ?__autoclassinit2@?$_Tree_const_iterator@V?$_Tree_val@U?$_Tree_simple_types@H@std@@@std@@@std@@QEAAX_K@Z 000000018008ff70 f i UnityPlugin.obj
 0002:00012fb0       ?__autoclassinit2@?$_Tree_const_iterator@V?$_Tree_val@U?$_Tree_simple_types@PEAX@std@@@std@@@std@@QEAAX_K@Z 000000018008ffb0 f i UnityPlugin.obj
 0002:00012ff0       ?__autoclassinit2@?$set@HU?$less@H@std@@V?$allocator@H@2@@std@@QEAAX_K@Z 000000018008fff0 f i UnityPlugin.obj
 0002:00013030       ?__autoclassinit2@?$set@PEAXU?$less@PEAX@std@@V?$allocator@PEAX@2@@std@@QEAAX_K@Z 0000000180090030 f i UnityPlugin.obj
 0002:00013070       ?allocate@?$allocator@U?$_Tree_node@HPEAX@std@@@std@@QEAAPEAU?$_Tree_node@HPEAX@2@_K@Z 0000000180090070 f i UnityPlugin.obj
 0002:000130d0       ?allocate@?$allocator@U?$_Tree_node@PEAXPEAX@std@@@std@@QEAAPEAU?$_Tree_node@PEAXPEAX@2@_K@Z 00000001800900d0 f i UnityPlugin.obj
 0002:00013130       ?allocate@?$allocator@U_Container_proxy@std@@@std@@QEAAPEAU_Container_proxy@2@_K@Z 0000000180090130 f i UnityPlugin.obj
 0002:00013190       ?deallocate@?$_Default_allocator_traits@V?$allocator@U?$_Tree_node@HPEAX@std@@@std@@@std@@SAXAEAV?$allocator@U?$_Tree_node@HPEAX@std@@@2@QEAU?$_Tree_node@HPEAX@2@_K@Z 0000000180090190 f i UnityPlugin.obj
 0002:000131f0       ?deallocate@?$_Default_allocator_traits@V?$allocator@U?$_Tree_node@PEAXPEAX@std@@@std@@@std@@SAXAEAV?$allocator@U?$_Tree_node@PEAXPEAX@std@@@2@QEAU?$_Tree_node@PEAXPEAX@2@_K@Z 00000001800901f0 f i UnityPlugin.obj
 0002:00013250       ?deallocate@?$_Default_allocator_traits@V?$allocator@U_Container_proxy@std@@@std@@@std@@SAXAEAV?$allocator@U_Container_proxy@std@@@2@QEAU_Container_proxy@2@_K@Z 0000000180090250 f i UnityPlugin.obj
 0002:000132b0       ?deallocate@?$allocator@U?$_Tree_node@HPEAX@std@@@std@@QEAAXQEAU?$_Tree_node@HPEAX@2@_K@Z 00000001800902b0 f i UnityPlugin.obj
 0002:00013310       ?deallocate@?$allocator@U?$_Tree_node@PEAXPEAX@std@@@std@@QEAAXQEAU?$_Tree_node@PEAXPEAX@2@_K@Z 0000000180090310 f i UnityPlugin.obj
 0002:00013370       ?encrypt@EncryptLib@@SAXQEAUencrypt_state@1@PEBEPEAE_K@Z 0000000180090370 f i UnityPlugin.obj
 0002:000133e0       ?encrypt_inline@EncryptLib@@SAXQEAUencrypt_state@1@PEBEPEAE_K@Z 00000001800903e0 f i UnityPlugin.obj
 0002:000135a0       ?end@?$_Tree@V?$_Tset_traits@HU?$less@H@std@@V?$allocator@H@2@$0A@@std@@@std@@QEAA?AV?$_Tree_const_iterator@V?$_Tree_val@U?$_Tree_simple_types@H@std@@@std@@@2@XZ 00000001800905a0 f i UnityPlugin.obj
 0002:00013620       ?end@?$_Tree@V?$_Tset_traits@PEAXU?$less@PEAX@std@@V?$allocator@PEAX@2@$0A@@std@@@std@@QEAA?AV?$_Tree_const_iterator@V?$_Tree_val@U?$_Tree_simple_types@PEAX@std@@@std@@@2@XZ 0000000180090620 f i UnityPlugin.obj
 0002:000136a0       ?find@?$_Tree@V?$_Tset_traits@HU?$less@H@std@@V?$allocator@H@2@$0A@@std@@@std@@QEAA?AV?$_Tree_const_iterator@V?$_Tree_val@U?$_Tree_simple_types@H@std@@@std@@@2@AEBH@Z 00000001800906a0 f i UnityPlugin.obj
 0002:00013760       ?find@?$_Tree@V?$_Tset_traits@PEAXU?$less@PEAX@std@@V?$allocator@PEAX@2@$0A@@std@@@std@@QEAA?AV?$_Tree_const_iterator@V?$_Tree_val@U?$_Tree_simple_types@PEAX@std@@@std@@@2@AEBQEAX@Z 0000000180090760 f i UnityPlugin.obj
 0002:00013820       ?get_game_data_from_mem@@YA_NPEAEHIPEAPEAEAEAI@Z 0000000180090820 f   UnityPlugin.obj
 0002:00013940       ?il2cpp_get_global_metadata@@YAPEAXPEBD@Z 0000000180090940 f   UnityPlugin.obj
 0002:00013d50       ?il2cpp_get_string@@YAXPEADH@Z 0000000180090d50 f   UnityPlugin.obj
 0002:00013f60       ?init@EncryptLib@@SAXQEAUencrypt_state@1@PEBE_K@Z 0000000180090f60 f i UnityPlugin.obj
 0002:00013fc0       ?init_callback_func_info@@YA_NPEAPEADHPEAUCallBackFuncInfo@@@Z 0000000180090fc0 f   UnityPlugin.obj
 0002:000143c0       ?init_inline@EncryptLib@@SAXQEAUencrypt_state@1@PEBE_K@Z 00000001800913c0 f i UnityPlugin.obj
 0002:00014520       ?lock@_Mutex_base@std@@QEAAXXZ 0000000180091520 f i UnityPlugin.obj
 0002:00014580       ?max@?$numeric_limits@_J@std@@SA_JXZ 0000000180091580 f i UnityPlugin.obj
 0002:000145c0       ?max_size@?$_Default_allocator_traits@V?$allocator@U?$_Tree_node@HPEAX@std@@@std@@@std@@SA_KAEBV?$allocator@U?$_Tree_node@HPEAX@std@@@2@@Z 00000001800915c0 f i UnityPlugin.obj
 0002:00014600       ?max_size@?$_Default_allocator_traits@V?$allocator@U?$_Tree_node@PEAXPEAX@std@@@std@@@std@@SA_KAEBV?$allocator@U?$_Tree_node@PEAXPEAX@std@@@2@@Z 0000000180091600 f i UnityPlugin.obj
 0002:00014640       ?max_size@?$_Tree@V?$_Tset_traits@HU?$less@H@std@@V?$allocator@H@2@$0A@@std@@@std@@QEBA_KXZ 0000000180091640 f i UnityPlugin.obj
 0002:000146c0       ?max_size@?$_Tree@V?$_Tset_traits@PEAXU?$less@PEAX@std@@V?$allocator@PEAX@2@$0A@@std@@@std@@QEBA_KXZ 00000001800916c0 f i UnityPlugin.obj
 0002:00014740       ?mono_get_assembly_csharp@@YAXPEAPEADPEAHPEBDPEAUCallBackFuncInfo@@@Z 0000000180091740 f   UnityPlugin.obj
 0002:00014ad0       ?mono_get_method@@YAXPEADH@Z 0000000180091ad0 f   UnityPlugin.obj
 0002:00014d20       ?mono_get_opcode@@YAHH@Z   0000000180091d20 f   UnityPlugin.obj
 0002:00014d90       ?mono_get_string_heap@@YAXPEADH@Z 0000000180091d90 f   UnityPlugin.obj
 0002:00014e80       ?mono_metadata_encrypt@@YAHXZ 0000000180091e80 f   UnityPlugin.obj
 0002:00014ef0       ?read_file_size@@YA_NPEBDAEAI@Z 0000000180091ef0 f   UnityPlugin.obj
 0002:00014ff0       ?read_file_to_buffer@@YA_NPEBDPEAEI@Z 0000000180091ff0 f   UnityPlugin.obj
 0002:00015160       ?swap_bytes@EncryptLib@@CAXPEAE0@Z 0000000180092160 f i UnityPlugin.obj
 0002:000151e0       ?unlock@_Mutex_base@std@@QEAAXXZ 00000001800921e0 f i UnityPlugin.obj
 0002:00015230       ?what@exception@std@@UEBAPEBDXZ 0000000180092230 f i UnityPlugin.obj
 0002:000152b0       DllMain                    00000001800922b0 f   UnityPlugin.obj
 0002:00015310       get_version                0000000180092310 f   UnityPlugin.obj
 0002:00015350       query_call_back            0000000180092350 f   UnityPlugin.obj
 0002:00015400       _CRT_RTC_INIT              0000000180092400 f   LIBCMTD:init.obj
 0002:00015410       _CRT_RTC_INITW             0000000180092410 f   LIBCMTD:init.obj
 0002:00015420       _RTC_InitBase              0000000180092420 f   LIBCMTD:init.obj
 0002:00015470       _RTC_Shutdown              0000000180092470 f   LIBCMTD:init.obj
 0002:000154a0       __CheckForDebuggerJustMyCode 00000001800924a0 f   LIBCMTD:debugger_jmc.obj
 0002:000154f0       ??2@YAPEAX_K@Z             00000001800924f0 f   LIBCMTD:new_scalar.obj
 0002:00015560       ??3@YAXPEAX_K@Z            0000000180092560 f   LIBCMTD:delete_scalar_size.obj
 0002:00015590       ??_V@YAXPEAX@Z             0000000180092590 f   LIBCMTD:delete_array.obj
 0002:000155b0       ?configure_argv@__scrt_narrow_argv_policy@@SAHXZ 00000001800925b0 f i LIBCMTD:utility.obj
 0002:000156d0       ?initialize_environment@__scrt_narrow_environment_policy@@SAHXZ 00000001800926d0 f i LIBCMTD:utility.obj
 0002:000157a0       NtCurrentTeb               00000001800927a0 f i LIBCMTD:utility.obj
 0002:000157b0       __scrt_acquire_startup_lock 00000001800927b0 f   LIBCMTD:utility.obj
 0002:00015830       __scrt_dllmain_after_initialize_c 0000000180092830 f   LIBCMTD:utility.obj
 0002:00015870       __scrt_dllmain_before_initialize_c 0000000180092870 f   LIBCMTD:utility.obj
 0002:000158a0       __scrt_dllmain_crt_thread_attach 00000001800928a0 f   LIBCMTD:utility.obj
 0002:000158e0       __scrt_dllmain_crt_thread_detach 00000001800928e0 f   LIBCMTD:utility.obj
 0002:00015900       __scrt_dllmain_exception_filter 0000000180092900 f   LIBCMTD:utility.obj
 0002:00015980       __scrt_dllmain_uninitialize_c 0000000180092980 f   LIBCMTD:utility.obj
 0002:000159c0       __scrt_dllmain_uninitialize_critical 00000001800929c0 f   LIBCMTD:utility.obj
 0002:000159e0       __scrt_initialize_crt      00000001800929e0 f   LIBCMTD:utility.obj
 0002:00015a40       __scrt_initialize_onexit_tables 0000000180092a40 f   LIBCMTD:utility.obj
 0002:00015b90       __scrt_is_nonwritable_in_current_image 0000000180092b90 f   LIBCMTD:utility.obj
 0002:00015c40       __scrt_release_startup_lock 0000000180092c40 f   LIBCMTD:utility.obj
 0002:00015c80       __scrt_uninitialize_crt    0000000180092c80 f   LIBCMTD:utility.obj
 0002:00015cd0       _onexit                    0000000180092cd0 f   LIBCMTD:utility.obj
 0002:00015d70       at_quick_exit              0000000180092d70 f   LIBCMTD:utility.obj
 0002:00015dd0       atexit                     0000000180092dd0 f   LIBCMTD:utility.obj
 0002:00015e10       ??_U@YAPEAX_KAEBUnothrow_t@std@@@Z 0000000180092e10 f   LIBCMTD:new_array_nothrow.obj
 0002:00015e40       _RTC_AllocaHelper          0000000180092e40 f   LIBCMTD:stack.obj
 0002:00015e90       _RTC_CheckStackVars        0000000180092e90 f   LIBCMTD:stack.obj
 0002:00015f40       _RTC_CheckStackVars2       0000000180092f40 f   LIBCMTD:stack.obj
 0002:00016090       __GSHandlerCheck           0000000180093090 f   LIBCMTD:gshandler.obj
 0002:000160e0       __GSHandlerCheckCommon     00000001800930e0 f   LIBCMTD:gshandler.obj
 0002:00016220       __GSHandlerCheck_EH4       0000000180093220 f   LIBCMTD:gshandlereh4.obj
 0002:00016300       __security_check_cookie    0000000180093300 f   LIBCMTD:amdsecgs.obj
 0002:00016330       ??1type_info@@UEAA@XZ      0000000180093330 f   LIBCMTD:std_type_info_static.obj
 0002:00016350       ??_Etype_info@@UEAAPEAXI@Z 0000000180093350 f i LIBCMTD:std_type_info_static.obj
 0002:00016350       ??_Gtype_info@@UEAAPEAXI@Z 0000000180093350 f i LIBCMTD:std_type_info_static.obj
 0002:000168a0       _CRT_INIT                  00000001800938a0 f   LIBCMTD:dll_dllmain.obj
 0002:000168e0       _DllMainCRTStartup         00000001800938e0 f   LIBCMTD:dll_dllmain.obj
 0002:00016930       ?_RTC_GetErrorFunc@@YAP6AHHPEBDH00ZZPEBX@Z 0000000180093930 f   LIBCMTD:userapi.obj
 0002:00016940       ?_RTC_GetErrorFuncW@@YAP6AHHPEB_WH00ZZPEBX@Z 0000000180093940 f   LIBCMTD:userapi.obj
 0002:00016950       _RTC_GetErrDesc            0000000180093950 f   LIBCMTD:userapi.obj
 0002:00016970       _RTC_NumErrors             0000000180093970 f   LIBCMTD:userapi.obj
 0002:00016980       _RTC_SetErrorFunc          0000000180093980 f   LIBCMTD:userapi.obj
 0002:000169a0       _RTC_SetErrorFuncW         00000001800939a0 f   LIBCMTD:userapi.obj
 0002:000169c0       _RTC_SetErrorType          00000001800939c0 f   LIBCMTD:userapi.obj
 0002:000169f0       ??0bad_alloc@std@@QEAA@XZ  00000001800939f0 f i LIBCMTD:throw_bad_alloc.obj
 0002:00016a40       ?__scrt_throw_std_bad_alloc@@YAXXZ 0000000180093a40 f   LIBCMTD:throw_bad_alloc.obj
 0002:00016a70       ?__scrt_throw_std_bad_array_new_length@@YAXXZ 0000000180093a70 f   LIBCMTD:throw_bad_alloc.obj
 0002:00016aa0       ??3@YAXPEAX@Z              0000000180093aa0 f   LIBCMTD:delete_scalar.obj
 0002:00016ad0       __isa_available_init       0000000180093ad0 f   LIBCMTD:cpu_disp.obj
 0002:00016f50       _get_startup_argv_mode     0000000180093f50 f   LIBCMTD:argv_mode.obj
 0002:00016f60       __scrt_is_ucrt_dll_in_use  0000000180093f60 f   LIBCMTD:ucrt_detection.obj
 0002:00016f90       __crt_debugger_hook        0000000180093f90 f   LIBCMTD:utility_desktop.obj
 0002:00016fb0       __scrt_fastfail            0000000180093fb0 f   LIBCMTD:utility_desktop.obj
 0002:000171b0       __scrt_get_show_window_mode 00000001800941b0 f   LIBCMTD:utility_desktop.obj
 0002:00017220       __scrt_initialize_mta      0000000180094220 f   LIBCMTD:utility_desktop.obj
 0002:00017240       __scrt_initialize_winrt    0000000180094240 f   LIBCMTD:utility_desktop.obj
 0002:00017250       __scrt_is_managed_app      0000000180094250 f   LIBCMTD:utility_desktop.obj
 0002:00017320       __scrt_set_unhandled_exception_filter 0000000180094320 f   LIBCMTD:utility_desktop.obj
 0002:00017340       __scrt_exe_initialize_mta  0000000180094340 f   LIBCMTD:utility_desktop.obj
 0002:00017340       __scrt_stub_for_initialize_mta 0000000180094340 f   LIBCMTD:utility_desktop.obj
 0002:00017350       __scrt_unhandled_exception_filter 0000000180094350 f   LIBCMTD:utility_desktop.obj
 0002:00017410       _guard_check_icall_nop     0000000180094410 f i LIBCMTD:guard_support.obj
 0002:00017420       ReadNoFence64              0000000180094420 f i LIBCMTD:guard_support.obj
 0002:00017450       ReadPointerNoFence         0000000180094450 f i LIBCMTD:guard_support.obj
 0002:00017470       __castguard_check_failure_debugbreak 0000000180094470 f i LIBCMTD:guard_support.obj
 0002:000174a0       __castguard_check_failure_fastfail 00000001800944a0 f i LIBCMTD:guard_support.obj
 0002:000174d0       __castguard_check_failure_nop 00000001800944d0 f i LIBCMTD:guard_support.obj
 0002:000174e0       __castguard_check_failure_os_handled 00000001800944e0 f i LIBCMTD:guard_support.obj
 0002:000175d0       __castguard_slow_path_check_debugbreak 00000001800945d0 f i LIBCMTD:guard_support.obj
 0002:00017620       __castguard_slow_path_check_fastfail 0000000180094620 f i LIBCMTD:guard_support.obj
 0002:00017680       __castguard_slow_path_check_nop 0000000180094680 f i LIBCMTD:guard_support.obj
 0002:000176a0       __castguard_slow_path_check_os_handled 00000001800946a0 f i LIBCMTD:guard_support.obj
 0002:000177b0       _guard_icall_checks_enforced 00000001800947b0 f i LIBCMTD:guard_support.obj
 0002:00017800       _guard_rf_checks_enforced  0000000180094800 f i LIBCMTD:guard_support.obj
 0002:00017810       ??2@YAPEAX_KAEBUnothrow_t@std@@@Z 0000000180094810 f   LIBCMTD:new_scalar_nothrow.obj
 0002:00017900       ?_RTC_AllocaFailure@@YAXPEAXPEAU_RTC_ALLOCA_NODE@@H@Z 0000000180094900 f   LIBCMTD:error.obj
 0002:00017ab0       ?_RTC_Failure@@YAXPEAXH@Z  0000000180094ab0 f   LIBCMTD:error.obj
 0002:00017b20       ?_RTC_StackFailure@@YAXPEAXPEBD@Z 0000000180094b20 f   LIBCMTD:error.obj
 0002:00018060       _RTC_UninitUse             0000000180095060 f   LIBCMTD:error.obj
 0002:00018160       __local_stdio_printf_options 0000000180095160 f i LIBCMTD:error.obj
 0002:00018170       _vsprintf_s_l              0000000180095170 f i LIBCMTD:error.obj
 0002:000181f0       sprintf_s                  00000001800951f0 f i LIBCMTD:error.obj
 0002:00018220       __raise_securityfailure    0000000180095220 f   LIBCMTD:gs_report.obj
 0002:00018270       __report_gsfailure         0000000180095270 f   LIBCMTD:gs_report.obj
 0002:00018380       __report_rangecheckfailure 0000000180095380 f   LIBCMTD:gs_report.obj
 0002:000183a0       __report_securityfailure   00000001800953a0 f   LIBCMTD:gs_report.obj
 0002:00018470       __report_securityfailureEx 0000000180095470 f   LIBCMTD:gs_report.obj
 0002:00018860       __security_init_cookie     0000000180095860 f   LIBCMTD:gs_support.obj
 0002:00018900       ?__scrt_initialize_type_info@@YAXXZ 0000000180095900 f   LIBCMTD:tncleanup.obj
 0002:00018920       ?__scrt_uninitialize_type_info@@YAXXZ 0000000180095920 f   LIBCMTD:tncleanup.obj
 0002:00018940       __local_stdio_scanf_options 0000000180095940 f i LIBCMTD:default_local_stdio_options.obj
 0002:00018950       __scrt_initialize_default_local_stdio_options 0000000180095950 f   LIBCMTD:default_local_stdio_options.obj
 0002:000189b0       __scrt_get_dyn_tls_init_callback 00000001800959b0 f   LIBCMTD:dyn_tls_init.obj
 0002:000189c0       _RTC_Initialize            00000001800959c0 f   LIBCMTD:initsect.obj
 0002:00018a20       _RTC_Terminate             0000000180095a20 f   LIBCMTD:initsect.obj
 0002:000190d0       ?_RTC_GetSrcLine@@YAHPEAEPEA_WKPEAH1K@Z 00000001800960d0 f   LIBCMTD:pdblkup.obj
 0002:00019590       ??0_Init_locks@std@@QEAA@XZ 0000000180096590 f   libcpmtd:xlock.obj
 0002:00019640       ??0_Lockit@std@@QEAA@H@Z   0000000180096640 f   libcpmtd:xlock.obj
 0002:000196c0       ??0_Lockit@std@@QEAA@XZ    00000001800966c0 f   libcpmtd:xlock.obj
 0002:00019720       ??1_Init_locks@std@@QEAA@XZ 0000000180096720 f   libcpmtd:xlock.obj
 0002:000197c0       ??1_Lockit@std@@QEAA@XZ    00000001800967c0 f   libcpmtd:xlock.obj
 0002:00019820       ?_Init_locks_ctor@_Init_locks@std@@CAXPEAV12@@Z 0000000180096820 f   libcpmtd:xlock.obj
 0002:000198c0       ?_Init_locks_dtor@_Init_locks@std@@CAXPEAV12@@Z 00000001800968c0 f   libcpmtd:xlock.obj
 0002:00019960       ?_Lockit_ctor@_Lockit@std@@CAXPEAV12@@Z 0000000180096960 f   libcpmtd:xlock.obj
 0002:000199a0       ?_Lockit_ctor@_Lockit@std@@CAXPEAV12@H@Z 00000001800969a0 f   libcpmtd:xlock.obj
 0002:00019a10       ?_Lockit_ctor@_Lockit@std@@SAXH@Z 0000000180096a10 f   libcpmtd:xlock.obj
 0002:00019a60       ?_Lockit_dtor@_Lockit@std@@CAXPEAV12@@Z 0000000180096a60 f   libcpmtd:xlock.obj
 0002:00019aa0       ?_Lockit_dtor@_Lockit@std@@SAXH@Z 0000000180096aa0 f   libcpmtd:xlock.obj
 0002:00019af0       _Lock_at_thread_exit_mutex 0000000180096af0 f   libcpmtd:xlock.obj
 0002:00019b20       _Unlock_at_thread_exit_mutex 0000000180096b20 f   libcpmtd:xlock.obj
 0002:00019b50       ??0bad_function_call@std@@QEAA@AEBV01@@Z 0000000180096b50 f i libcpmtd:xthrow.obj
 0002:00019ba0       ??0bad_function_call@std@@QEAA@XZ 0000000180096ba0 f i libcpmtd:xthrow.obj
 0002:00019be0       ??0exception@std@@QEAA@QEBD@Z 0000000180096be0 f i libcpmtd:xthrow.obj
 0002:00019c60       ??0exception@std@@QEAA@XZ  0000000180096c60 f i libcpmtd:xthrow.obj
 0002:00019ca0       ??0invalid_argument@std@@QEAA@AEBV01@@Z 0000000180096ca0 f i libcpmtd:xthrow.obj
 0002:00019cf0       ??0invalid_argument@std@@QEAA@PEBD@Z 0000000180096cf0 f i libcpmtd:xthrow.obj
 0002:00019d40       ??0length_error@std@@QEAA@AEBV01@@Z 0000000180096d40 f i libcpmtd:xthrow.obj
 0002:00019d90       ??0length_error@std@@QEAA@PEBD@Z 0000000180096d90 f i libcpmtd:xthrow.obj
 0002:00019de0       ??0logic_error@std@@QEAA@AEBV01@@Z 0000000180096de0 f i libcpmtd:xthrow.obj
 0002:00019e30       ??0logic_error@std@@QEAA@PEBD@Z 0000000180096e30 f i libcpmtd:xthrow.obj
 0002:00019e80       ??0out_of_range@std@@QEAA@AEBV01@@Z 0000000180096e80 f i libcpmtd:xthrow.obj
 0002:00019ed0       ??0out_of_range@std@@QEAA@PEBD@Z 0000000180096ed0 f i libcpmtd:xthrow.obj
 0002:00019f20       ??0overflow_error@std@@QEAA@AEBV01@@Z 0000000180096f20 f i libcpmtd:xthrow.obj
 0002:00019f70       ??0overflow_error@std@@QEAA@PEBD@Z 0000000180096f70 f i libcpmtd:xthrow.obj
 0002:00019fc0       ??0regex_error@std@@QEAA@AEBV01@@Z 0000000180096fc0 f i libcpmtd:xthrow.obj
 0002:0001a020       ??0regex_error@std@@QEAA@W4error_type@regex_constants@1@@Z 0000000180097020 f i libcpmtd:xthrow.obj
 0002:0001a080       ??0runtime_error@std@@QEAA@AEBV01@@Z 0000000180097080 f i libcpmtd:xthrow.obj
 0002:0001a0d0       ??0runtime_error@std@@QEAA@PEBD@Z 00000001800970d0 f i libcpmtd:xthrow.obj
 0002:0001a120       ??1bad_function_call@std@@UEAA@XZ 0000000180097120 f i libcpmtd:xthrow.obj
 0002:0001a140       ??1invalid_argument@std@@UEAA@XZ 0000000180097140 f i libcpmtd:xthrow.obj
 0002:0001a160       ??1length_error@std@@UEAA@XZ 0000000180097160 f i libcpmtd:xthrow.obj
 0002:0001a180       ??1logic_error@std@@UEAA@XZ 0000000180097180 f i libcpmtd:xthrow.obj
 0002:0001a1a0       ??1out_of_range@std@@UEAA@XZ 00000001800971a0 f i libcpmtd:xthrow.obj
 0002:0001a1c0       ??1overflow_error@std@@UEAA@XZ 00000001800971c0 f i libcpmtd:xthrow.obj
 0002:0001a1e0       ??1regex_error@std@@UEAA@XZ 00000001800971e0 f i libcpmtd:xthrow.obj
 0002:0001a200       ??1runtime_error@std@@UEAA@XZ 0000000180097200 f i libcpmtd:xthrow.obj
 0002:0001a220       ??_Gbad_function_call@std@@UEAAPEAXI@Z 0000000180097220 f i libcpmtd:xthrow.obj
 0002:0001a220       ??_Ebad_function_call@std@@UEAAPEAXI@Z 0000000180097220 f i libcpmtd:xthrow.obj
 0002:0001a270       ??_Einvalid_argument@std@@UEAAPEAXI@Z 0000000180097270 f i libcpmtd:xthrow.obj
 0002:0001a270       ??_Ginvalid_argument@std@@UEAAPEAXI@Z 0000000180097270 f i libcpmtd:xthrow.obj
 0002:0001a2c0       ??_Elength_error@std@@UEAAPEAXI@Z 00000001800972c0 f i libcpmtd:xthrow.obj
 0002:0001a2c0       ??_Glength_error@std@@UEAAPEAXI@Z 00000001800972c0 f i libcpmtd:xthrow.obj
 0002:0001a310       ??_Elogic_error@std@@UEAAPEAXI@Z 0000000180097310 f i libcpmtd:xthrow.obj
 0002:0001a310       ??_Glogic_error@std@@UEAAPEAXI@Z 0000000180097310 f i libcpmtd:xthrow.obj
 0002:0001a360       ??_Eout_of_range@std@@UEAAPEAXI@Z 0000000180097360 f i libcpmtd:xthrow.obj
 0002:0001a360       ??_Gout_of_range@std@@UEAAPEAXI@Z 0000000180097360 f i libcpmtd:xthrow.obj
 0002:0001a3b0       ??_Goverflow_error@std@@UEAAPEAXI@Z 00000001800973b0 f i libcpmtd:xthrow.obj
 0002:0001a3b0       ??_Eoverflow_error@std@@UEAAPEAXI@Z 00000001800973b0 f i libcpmtd:xthrow.obj
 0002:0001a400       ??_Gregex_error@std@@UEAAPEAXI@Z 0000000180097400 f i libcpmtd:xthrow.obj
 0002:0001a400       ??_Eregex_error@std@@UEAAPEAXI@Z 0000000180097400 f i libcpmtd:xthrow.obj
 0002:0001a450       ??_Gruntime_error@std@@UEAAPEAXI@Z 0000000180097450 f i libcpmtd:xthrow.obj
 0002:0001a450       ??_Eruntime_error@std@@UEAAPEAXI@Z 0000000180097450 f i libcpmtd:xthrow.obj
 0002:0001a4a0       ?_Stringify@regex_error@std@@CAPEBDW4error_type@regex_constants@2@@Z 00000001800974a0 f i libcpmtd:xthrow.obj
 0002:0001a5f0       ?_Xbad_alloc@std@@YAXXZ    00000001800975f0 f   libcpmtd:xthrow.obj
 0002:0001a620       ?_Xbad_function_call@std@@YAXXZ 0000000180097620 f   libcpmtd:xthrow.obj
 0002:0001a650       ?_Xinvalid_argument@std@@YAXPEBD@Z 0000000180097650 f   libcpmtd:xthrow.obj
 0002:0001a690       ?_Xlength_error@std@@YAXPEBD@Z 0000000180097690 f   libcpmtd:xthrow.obj
 0002:0001a6d0       ?_Xout_of_range@std@@YAXPEBD@Z 00000001800976d0 f   libcpmtd:xthrow.obj
 0002:0001a710       ?_Xoverflow_error@std@@YAXPEBD@Z 0000000180097710 f   libcpmtd:xthrow.obj
 0002:0001a750       ?_Xregex_error@std@@YAXW4error_type@regex_constants@1@@Z 0000000180097750 f   libcpmtd:xthrow.obj
 0002:0001a790       ?_Xruntime_error@std@@YAXPEBD@Z 0000000180097790 f   libcpmtd:xthrow.obj
 0002:0001a7d0       ?__empty_global_delete@@YAXPEAX@Z 00000001800977d0 f i libcpmtd:xthrow.obj
 0002:0001a7e0       ?__empty_global_delete@@YAXPEAXW4align_val_t@std@@@Z 00000001800977e0 f i libcpmtd:xthrow.obj
 0002:0001a7f0       ?__empty_global_delete@@YAXPEAX_K@Z 00000001800977f0 f i libcpmtd:xthrow.obj
 0002:0001a800       ?__empty_global_delete@@YAXPEAX_KW4align_val_t@std@@@Z 0000000180097800 f i libcpmtd:xthrow.obj
 0002:0001a820       ?what@bad_function_call@std@@UEBAPEBDXZ 0000000180097820 f i libcpmtd:xthrow.obj
 0002:0001a830       ??0stl_critical_section_interface@details@Concurrency@@QEAA@XZ 0000000180097830 f i libcpmtd:mutex.obj
 0002:0001a840       ??0stl_critical_section_vista@details@Concurrency@@QEAA@XZ 0000000180097840 f i libcpmtd:mutex.obj
 0002:0001a8a0       ??0stl_critical_section_win7@details@Concurrency@@QEAA@XZ 00000001800978a0 f i libcpmtd:mutex.obj
 0002:0001a8f0       ?_get_cs@_Mtx_internal_imp_t@@QEAAPEAVstl_critical_section_interface@details@Concurrency@@XZ 00000001800978f0 f i libcpmtd:mutex.obj
 0002:0001a910       ?are_win7_sync_apis_available@details@Concurrency@@YA_NXZ 0000000180097910 f i libcpmtd:mutex.obj
 0002:0001a960       ?create_stl_critical_section@details@Concurrency@@YAXPEAVstl_critical_section_interface@12@@Z 0000000180097960 f i libcpmtd:mutex.obj
 0002:0001aa00       ?destroy@stl_critical_section_vista@details@Concurrency@@UEAAXXZ 0000000180097a00 f i libcpmtd:mutex.obj
 0002:0001aa30       ?destroy@stl_critical_section_win7@details@Concurrency@@UEAAXXZ 0000000180097a30 f i libcpmtd:mutex.obj
 0002:0001aa40       ?lock@stl_critical_section_vista@details@Concurrency@@UEAAXXZ 0000000180097a40 f i libcpmtd:mutex.obj
 0002:0001aa70       ?lock@stl_critical_section_win7@details@Concurrency@@UEAAXXZ 0000000180097a70 f i libcpmtd:mutex.obj
 0002:0001af20       ?try_lock@stl_critical_section_vista@details@Concurrency@@UEAA_NXZ 0000000180097f20 f i libcpmtd:mutex.obj
 0002:0001af70       ?try_lock@stl_critical_section_win7@details@Concurrency@@UEAA_NXZ 0000000180097f70 f i libcpmtd:mutex.obj
 0002:0001afc0       ?try_lock_for@stl_critical_section_vista@details@Concurrency@@UEAA_NI@Z 0000000180097fc0 f i libcpmtd:mutex.obj
 0002:0001aff0       ?try_lock_for@stl_critical_section_win7@details@Concurrency@@UEAA_NI@Z 0000000180097ff0 f i libcpmtd:mutex.obj
 0002:0001b020       ?unlock@stl_critical_section_vista@details@Concurrency@@UEAAXXZ 0000000180098020 f i libcpmtd:mutex.obj
 0002:0001b050       ?unlock@stl_critical_section_win7@details@Concurrency@@UEAAXXZ 0000000180098050 f i libcpmtd:mutex.obj
 0002:0001b080       _Mtx_clear_owner           0000000180098080 f   libcpmtd:mutex.obj
 0002:0001b0b0       _Mtx_current_owns          00000001800980b0 f   libcpmtd:mutex.obj
 0002:0001b100       _Mtx_destroy               0000000180098100 f   libcpmtd:mutex.obj
 0002:0001b140       _Mtx_destroy_in_situ       0000000180098140 f   libcpmtd:mutex.obj
 0002:0001b1b0       _Mtx_getconcrtcs           00000001800981b0 f   libcpmtd:mutex.obj
 0002:0001b1d0       _Mtx_init                  00000001800981d0 f   libcpmtd:mutex.obj
 0002:0001b260       _Mtx_init_in_situ          0000000180098260 f   libcpmtd:mutex.obj
 0002:0001b2c0       _Mtx_lock                  00000001800982c0 f   libcpmtd:mutex.obj
 0002:0001b2e0       _Mtx_reset_owner           00000001800982e0 f   libcpmtd:mutex.obj
 0002:0001b320       _Mtx_timedlock             0000000180098320 f   libcpmtd:mutex.obj
 0002:0001b3a0       _Mtx_trylock               00000001800983a0 f   libcpmtd:mutex.obj
 0002:0001b420       _Mtx_unlock                0000000180098420 f   libcpmtd:mutex.obj
 0002:0001b4e0       _Thrd_abort                00000001800984e0 f   libcpmtd:mutex.obj
 0002:0001b540       __set_stl_sync_api_mode    0000000180098540 f   libcpmtd:mutex.obj
 0002:0001b560       ??$?0$$V@?$_Compressed_pair@V?$allocator@D@std@@V?$_String_val@U?$_Simple_types@D@std@@@2@$00@std@@QEAA@U_Zero_then_variadic_args_t@1@@Z 0000000180098560 f i libcpmtd:thread0.obj
 0002:0001b5a0       ??$?0D@?$allocator@U_Container_proxy@std@@@std@@QEAA@AEBV?$allocator@D@1@@Z 00000001800985a0 f i libcpmtd:thread0.obj
 0002:0001b5c0       ??$?0V?$allocator@D@std@@$$V@?$_Compressed_pair@V?$allocator@D@std@@V?$_String_val@U?$_Simple_types@D@std@@@2@$00@std@@QEAA@U_One_then_variadic_args_t@1@$$QEAV?$allocator@D@1@@Z 00000001800985c0 f i libcpmtd:thread0.obj
 0002:0001b600       ??$_Alloc_proxy@V?$allocator@U_Container_proxy@std@@@std@@@_Container_base12@std@@QEAAX$$QEAV?$allocator@U_Container_proxy@std@@@1@@Z 0000000180098600 f i libcpmtd:thread0.obj
 0002:0001b680       ??$_Construct_in_place@PEADAEAPEAD@std@@YAXAEAPEAD0@Z 0000000180098680 f i libcpmtd:thread0.obj
 0002:0001b730       ??$_Construct_in_place@PEADAEBQEAD@std@@YAXAEAPEADAEBQEAD@Z 0000000180098730 f i libcpmtd:thread0.obj
 0002:0001b7e0       ??$_Convert_size@_K@std@@YA_K_K@Z 00000001800987e0 f i libcpmtd:thread0.obj
 0002:0001b7f0       ??$_Destroy_in_place@PEAD@std@@YAXAEAPEAD@Z 00000001800987f0 f i libcpmtd:thread0.obj
 0002:0001b800       ??$_Get_size_of_n@$00@std@@YA_K_K@Z 0000000180098800 f i libcpmtd:thread0.obj
 0002:0001b820       ??$_Immortalize_memcpy_image@V_Generic_error_category@std@@@std@@YAAEBV_Generic_error_category@0@XZ 0000000180098820 f i libcpmtd:thread0.obj
 0002:0001b830       ??$_Reallocate_for@V<lambda_1>@?1??assign@?$basic_string@DU?$char_traits@D@std@@V?$allocator@D@2@@std@@QEAAAEAV34@QEBD_K@Z@PEBD@?$basic_string@DU?$char_traits@D@std@@V?$allocator@D@2@@std@@AEAAAEAV01@_KV<lambda_1>@?1??assign@01@QEAAAEAV01@QEBD0@Z@PEBD@Z 0000000180098830 f i libcpmtd:thread0.obj
 0002:0001b9e0       ??$_Reallocate_grow_by@V<lambda_1>@?1??append@?$basic_string@DU?$char_traits@D@std@@V?$allocator@D@2@@std@@QEAAAEAV34@QEBD_K@Z@PEBD_K@?$basic_string@DU?$char_traits@D@std@@V?$allocator@D@2@@std@@AEAAAEAV01@_KV<lambda_1>@?1??append@01@QEAAAEAV01@QEBD0@Z@PEBD_K@Z 00000001800989e0 f i libcpmtd:thread0.obj
 0002:0001bc70       ??$_Unfancy@D@std@@YAPEADPEAD@Z 0000000180098c70 f i libcpmtd:thread0.obj
 0002:0001bc80       ??$_Voidify_iter@PEAD@std@@YAPEAXPEAD@Z 0000000180098c80 f i libcpmtd:thread0.obj
 0002:0001bc90       ??$_Voidify_iter@PEAPEAD@std@@YAPEAXPEAPEAD@Z 0000000180098c90 f i libcpmtd:thread0.obj
 0002:0001bca0       ??$addressof@$$CBV?$_String_val@U?$_Simple_types@D@std@@@std@@@std@@YAPEBV?$_String_val@U?$_Simple_types@D@std@@@0@AEBV10@@Z 0000000180098ca0 f i libcpmtd:thread0.obj
 0002:0001bcb0       ??$addressof@PEAD@std@@YAPEAPEADAEAPEAD@Z 0000000180098cb0 f i libcpmtd:thread0.obj
 0002:0001bcc0       ??$addressof@V?$_String_val@U?$_Simple_types@D@std@@@std@@@std@@YAPEAV?$_String_val@U?$_Simple_types@D@std@@@0@AEAV10@@Z 0000000180098cc0 f i libcpmtd:thread0.obj
 0002:0001bcd0       ??$construct_at@DAEBDX@std@@YAPEADQEADAEBD@Z 0000000180098cd0 f i libcpmtd:thread0.obj
 0002:0001bd30       ??$construct_at@PEADAEAPEADX@std@@YAPEAPEADQEAPEADAEAPEAD@Z 0000000180098d30 f i libcpmtd:thread0.obj
 0002:0001bd90       ??$construct_at@PEADAEBQEADX@std@@YAPEAPEADQEAPEADAEBQEAD@Z 0000000180098d90 f i libcpmtd:thread0.obj
 0002:0001bdf0       ??$construct_at@U_Container_proxy@std@@PEAU_Container_base12@2@X@std@@YAPEAU_Container_proxy@0@QEAU10@$$QEAPEAU_Container_base12@0@@Z 0000000180098df0 f i libcpmtd:thread0.obj
 0002:0001be60       ??$forward@AEAPEAD@std@@YAAEAPEADAEAPEAD@Z 0000000180098e60 f i libcpmtd:thread0.obj
 0002:0001be70       ??$forward@AEBD@std@@YAAEBDAEBD@Z 0000000180098e70 f i libcpmtd:thread0.obj
 0002:0001be80       ??$forward@AEBQEAD@std@@YAAEBQEADAEBQEAD@Z 0000000180098e80 f i libcpmtd:thread0.obj
 0002:0001be90       ??$forward@V?$allocator@D@std@@@std@@YA$$QEAV?$allocator@D@0@AEAV10@@Z 0000000180098e90 f i libcpmtd:thread0.obj
 0002:0001bea0       ??$max@_K@std@@YAAEB_KAEB_K0@Z 0000000180098ea0 f i libcpmtd:thread0.obj
 0002:0001bf00       ??$move@AEAV?$allocator@D@std@@@std@@YA$$QEAV?$allocator@D@0@AEAV10@@Z 0000000180098f00 f i libcpmtd:thread0.obj
 0002:0001bf10       ??0?$_String_val@U?$_Simple_types@D@std@@@std@@QEAA@XZ 0000000180098f10 f i libcpmtd:thread0.obj
 0002:0001bf70       ??0?$allocator@D@std@@QEAA@XZ 0000000180098f70 f i libcpmtd:thread0.obj
 0002:0001bf80       ??0?$basic_string@DU?$char_traits@D@std@@V?$allocator@D@2@@std@@QEAA@$$QEAV01@@Z 0000000180098f80 f i libcpmtd:thread0.obj
 0002:0001c040       ??0?$basic_string@DU?$char_traits@D@std@@V?$allocator@D@2@@std@@QEAA@AEBV01@@Z 0000000180099040 f i libcpmtd:thread0.obj
 0002:0001c130       ??0?$basic_string@DU?$char_traits@D@std@@V?$allocator@D@2@@std@@QEAA@QEBD@Z 0000000180099130 f i libcpmtd:thread0.obj
 0002:0001c1f0       ??0_Bxty@?$_String_val@U?$_Simple_types@D@std@@@std@@QEAA@XZ 00000001800991f0 f i libcpmtd:thread0.obj
 0002:0001c210       ??0_System_error@std@@IEAA@Verror_code@1@AEBV?$basic_string@DU?$char_traits@D@std@@V?$allocator@D@2@@1@@Z 0000000180099210 f i libcpmtd:thread0.obj
 0002:0001c370       ??0_System_error@std@@QEAA@AEBV01@@Z 0000000180099370 f i libcpmtd:thread0.obj
 0002:0001c3e0       ??0error_code@std@@QEAA@HAEBVerror_category@1@@Z 00000001800993e0 f i libcpmtd:thread0.obj
 0002:0001c420       ??0error_condition@std@@QEAA@HAEBVerror_category@1@@Z 0000000180099420 f i libcpmtd:thread0.obj
 0002:0001c460       ??0runtime_error@std@@QEAA@AEBV?$basic_string@DU?$char_traits@D@std@@V?$allocator@D@2@@1@@Z 0000000180099460 f i libcpmtd:thread0.obj
 0002:0001c4b0       ??0system_error@std@@QEAA@AEBV01@@Z 00000001800994b0 f i libcpmtd:thread0.obj
 0002:0001c500       ??0system_error@std@@QEAA@HAEBVerror_category@1@PEBD@Z 0000000180099500 f i libcpmtd:thread0.obj
 0002:0001c5f0       ??1?$_Compressed_pair@V?$allocator@D@std@@V?$_String_val@U?$_Simple_types@D@std@@@2@$00@std@@QEAA@XZ 00000001800995f0 f i libcpmtd:thread0.obj
 0002:0001c620       ??1?$_String_val@U?$_Simple_types@D@std@@@std@@QEAA@XZ 0000000180099620 f i libcpmtd:thread0.obj
 0002:0001c650       ??1?$basic_string@DU?$char_traits@D@std@@V?$allocator@D@2@@std@@QEAA@XZ 0000000180099650 f i libcpmtd:thread0.obj
 0002:0001c6e0       ??1_Bxty@?$_String_val@U?$_Simple_types@D@std@@@std@@QEAA@XZ 00000001800996e0 f i libcpmtd:thread0.obj
 0002:0001c6f0       ??1_Generic_error_category@std@@UEAA@XZ 00000001800996f0 f i libcpmtd:thread0.obj
 0002:0001c710       ??1_System_error@std@@UEAA@XZ 0000000180099710 f i libcpmtd:thread0.obj
 0002:0001c730       ??1error_category@std@@UEAA@XZ 0000000180099730 f i libcpmtd:thread0.obj
 0002:0001c740       ??1system_error@std@@UEAA@XZ 0000000180099740 f i libcpmtd:thread0.obj
 0002:0001c760       ??8error_category@std@@QEBA_NAEBV01@@Z 0000000180099760 f i libcpmtd:thread0.obj
 0002:0001c7b0       ??8std@@YA_NAEBVerror_condition@0@0@Z 00000001800997b0 f i libcpmtd:thread0.obj
 0002:0001c850       ??R<lambda_1>@?1??append@?$basic_string@DU?$char_traits@D@std@@V?$allocator@D@2@@std@@QEAAAEAV23@QEBD_K@Z@QEBA@QEAD0101@Z 0000000180099850 f i libcpmtd:thread0.obj
 0002:0001c8f0       ??R<lambda_1>@?1??assign@?$basic_string@DU?$char_traits@D@std@@V?$allocator@D@2@@std@@QEAAAEAV23@QEBD_K@Z@QEBA@QEAD10@Z 00000001800998f0 f i libcpmtd:thread0.obj
 0002:0001c960       ??_G_Generic_error_category@std@@UEAAPEAXI@Z 0000000180099960 f i libcpmtd:thread0.obj
 0002:0001c960       ??_E_Generic_error_category@std@@UEAAPEAXI@Z 0000000180099960 f i libcpmtd:thread0.obj
 0002:0001c9b0       ??_E_System_error@std@@UEAAPEAXI@Z 00000001800999b0 f i libcpmtd:thread0.obj
 0002:0001c9b0       ??_G_System_error@std@@UEAAPEAXI@Z 00000001800999b0 f i libcpmtd:thread0.obj
 0002:0001ca00       ??_Gsystem_error@std@@UEAAPEAXI@Z 0000000180099a00 f i libcpmtd:thread0.obj
 0002:0001ca00       ??_Esystem_error@std@@UEAAPEAXI@Z 0000000180099a00 f i libcpmtd:thread0.obj
 0002:0001ca50       ?_Calculate_growth@?$basic_string@DU?$char_traits@D@std@@V?$allocator@D@2@@std@@AEBA_K_K@Z 0000000180099a50 f i libcpmtd:thread0.obj
 0002:0001cab0       ?_Calculate_growth@?$basic_string@DU?$char_traits@D@std@@V?$allocator@D@2@@std@@CA_K_K00@Z 0000000180099ab0 f i libcpmtd:thread0.obj
 0002:0001cb70       ?_Construct_lv_contents@?$basic_string@DU?$char_traits@D@std@@V?$allocator@D@2@@std@@AEAAXAEBV12@@Z 0000000180099b70 f i libcpmtd:thread0.obj
 0002:0001cda0       ?_Get_first@?$_Compressed_pair@V?$allocator@D@std@@V?$_String_val@U?$_Simple_types@D@std@@@2@$00@std@@QEAAAEAV?$allocator@D@2@XZ 0000000180099da0 f i libcpmtd:thread0.obj
 0002:0001cdb0       ?_Get_first@?$_Compressed_pair@V?$allocator@D@std@@V?$_String_val@U?$_Simple_types@D@std@@@2@$00@std@@QEBAAEBV?$allocator@D@2@XZ 0000000180099db0 f i libcpmtd:thread0.obj
 0002:0001cdc0       ?_Getal@?$basic_string@DU?$char_traits@D@std@@V?$allocator@D@2@@std@@AEAAAEAV?$allocator@D@2@XZ 0000000180099dc0 f i libcpmtd:thread0.obj
 0002:0001cdf0       ?_Getal@?$basic_string@DU?$char_traits@D@std@@V?$allocator@D@2@@std@@AEBAAEBV?$allocator@D@2@XZ 0000000180099df0 f i libcpmtd:thread0.obj
 0002:0001ce20       ?_Large_string_engaged@?$_String_val@U?$_Simple_types@D@std@@@std@@QEBA_NXZ 0000000180099e20 f i libcpmtd:thread0.obj
 0002:0001ce80       ?_Makestr@_System_error@std@@CA?AV?$basic_string@DU?$char_traits@D@std@@V?$allocator@D@2@@2@Verror_code@2@V32@@Z 0000000180099e80 f i libcpmtd:thread0.obj
 0002:0001cfa0       ?_Memcpy_val_from@?$basic_string@DU?$char_traits@D@std@@V?$allocator@D@2@@std@@AEAAXAEBV12@@Z 0000000180099fa0 f i libcpmtd:thread0.obj
 0002:0001d010       ?_Myptr@?$_String_val@U?$_Simple_types@D@std@@@std@@QEAAPEADXZ 000000018009a010 f i libcpmtd:thread0.obj
 0002:0001d070       ?_Myptr@?$_String_val@U?$_Simple_types@D@std@@@std@@QEBAPEBDXZ 000000018009a070 f i libcpmtd:thread0.obj
 0002:0001d0d0       ?_Swap_proxy_and_iterators@?$basic_string@DU?$char_traits@D@std@@V?$allocator@D@2@@std@@AEAAXAEAV12@@Z 000000018009a0d0 f i libcpmtd:thread0.obj
 0002:0001d110       ?_Swap_proxy_and_iterators@_Container_base12@std@@QEAAXAEAU12@@Z 000000018009a110 f i libcpmtd:thread0.obj
 0002:0001d160       ?_Swap_proxy_and_iterators_locked@_Container_base12@std@@AEAAXAEAU12@@Z 000000018009a160 f i libcpmtd:thread0.obj
 0002:0001d1b0       ?_Swap_proxy_and_iterators_unlocked@_Container_base12@std@@AEAAXAEAU12@@Z 000000018009a1b0 f i libcpmtd:thread0.obj
 0002:0001d240       ?_Take_contents@?$basic_string@DU?$char_traits@D@std@@V?$allocator@D@2@@std@@AEAAXAEAV12@@Z 000000018009a240 f i libcpmtd:thread0.obj
 0002:0001d3d0       ?_Throw_C_error@std@@YAXH@Z 000000018009a3d0 f   libcpmtd:thread0.obj
 0002:0001d440       ?_Throw_Cpp_error@std@@YAXH@Z 000000018009a440 f   libcpmtd:thread0.obj
 0002:0001d4d0       ?_Tidy_deallocate@?$basic_string@DU?$char_traits@D@std@@V?$allocator@D@2@@std@@AEAAXXZ 000000018009a4d0 f i libcpmtd:thread0.obj
 0002:0001d600       ?_Tidy_init@?$basic_string@DU?$char_traits@D@std@@V?$allocator@D@2@@std@@AEAAXXZ 000000018009a600 f i libcpmtd:thread0.obj
 0002:0001d700       ?_Xlen_string@std@@YAXXZ   000000018009a700 f i libcpmtd:thread0.obj
 0002:0001d720       ?allocate@?$allocator@D@std@@QEAAPEAD_K@Z 000000018009a720 f i libcpmtd:thread0.obj
 0002:0001d750       ?append@?$basic_string@DU?$char_traits@D@std@@V?$allocator@D@2@@std@@QEAAAEAV12@AEBV12@@Z 000000018009a750 f i libcpmtd:thread0.obj
 0002:0001d7b0       ?append@?$basic_string@DU?$char_traits@D@std@@V?$allocator@D@2@@std@@QEAAAEAV12@QEBD@Z 000000018009a7b0 f i libcpmtd:thread0.obj
 0002:0001d800       ?append@?$basic_string@DU?$char_traits@D@std@@V?$allocator@D@2@@std@@QEAAAEAV12@QEBD_K@Z 000000018009a800 f i libcpmtd:thread0.obj
 0002:0001d920       ?assign@?$_Char_traits@DH@std@@SAPEADQEAD_KD@Z 000000018009a920 f i libcpmtd:thread0.obj
 0002:0001d9f0       ?assign@?$_Narrow_char_traits@DH@std@@SAPEADQEAD_KD@Z 000000018009a9f0 f i libcpmtd:thread0.obj
 0002:0001da60       ?assign@?$_Narrow_char_traits@DH@std@@SAXAEADAEBD@Z 000000018009aa60 f i libcpmtd:thread0.obj
 0002:0001da80       ?assign@?$basic_string@DU?$char_traits@D@std@@V?$allocator@D@2@@std@@QEAAAEAV12@QEBD@Z 000000018009aa80 f i libcpmtd:thread0.obj
 0002:0001dad0       ?assign@?$basic_string@DU?$char_traits@D@std@@V?$allocator@D@2@@std@@QEAAAEAV12@QEBD_K@Z 000000018009aad0 f i libcpmtd:thread0.obj
 0002:0001dba0       ?c_str@?$basic_string@DU?$char_traits@D@std@@V?$allocator@D@2@@std@@QEBAPEBDXZ 000000018009aba0 f i libcpmtd:thread0.obj
 0002:0001dbd0       ?category@error_code@std@@QEBAAEBVerror_category@2@XZ 000000018009abd0 f i libcpmtd:thread0.obj
 0002:0001dbf0       ?category@error_condition@std@@QEBAAEBVerror_category@2@XZ 000000018009abf0 f i libcpmtd:thread0.obj
 0002:0001dc10       ?copy@?$_Char_traits@DH@std@@SAPEADQEADQEBD_K@Z 000000018009ac10 f i libcpmtd:thread0.obj
 0002:0001dcd0       ?deallocate@?$allocator@D@std@@QEAAXQEAD_K@Z 000000018009acd0 f i libcpmtd:thread0.obj
 0002:0001dd00       ?deallocate@?$allocator@U_Container_proxy@std@@@std@@QEAAXQEAU_Container_proxy@2@_K@Z 000000018009ad00 f i libcpmtd:thread0.obj
 0002:0001dd40       ?default_error_condition@error_category@std@@UEBA?AVerror_condition@2@H@Z 000000018009ad40 f i libcpmtd:thread0.obj
 0002:0001dd80       ?empty@?$basic_string@DU?$char_traits@D@std@@V?$allocator@D@2@@std@@QEBA_NXZ 000000018009ad80 f i libcpmtd:thread0.obj
 0002:0001ddd0       ?equivalent@error_category@std@@UEBA_NAEBVerror_code@2@H@Z 000000018009add0 f i libcpmtd:thread0.obj
 0002:0001de50       ?equivalent@error_category@std@@UEBA_NHAEBVerror_condition@2@@Z 000000018009ae50 f i libcpmtd:thread0.obj
 0002:0001dec0       ?generic_category@std@@YAAEBVerror_category@1@XZ 000000018009aec0 f i libcpmtd:thread0.obj
 0002:0001dee0       ?is_constant_evaluated@std@@YA_NXZ 000000018009aee0 f i libcpmtd:thread0.obj
 0002:0001def0       ?length@?$_Narrow_char_traits@DH@std@@SA_KQEBD@Z 000000018009aef0 f i libcpmtd:thread0.obj
 0002:0001df40       ?max_size@?$_Default_allocator_traits@V?$allocator@D@std@@@std@@SA_KAEBV?$allocator@D@2@@Z 000000018009af40 f i libcpmtd:thread0.obj
 0002:0001df50       ?max_size@?$basic_string@DU?$char_traits@D@std@@V?$allocator@D@2@@std@@QEBA_KXZ 000000018009af50 f i libcpmtd:thread0.obj
 0002:0001dfe0       ?message@_Generic_error_category@std@@UEBA?AV?$basic_string@DU?$char_traits@D@std@@V?$allocator@D@2@@2@H@Z 000000018009afe0 f i libcpmtd:thread0.obj
 0002:0001e040       ?message@error_code@std@@QEBA?AV?$basic_string@DU?$char_traits@D@std@@V?$allocator@D@2@@2@XZ 000000018009b040 f i libcpmtd:thread0.obj
 0002:0001e0e0       ?move@?$_Char_traits@DH@std@@SAPEADQEADQEBD_K@Z 000000018009b0e0 f i libcpmtd:thread0.obj
 0002:0001e290       ?name@_Generic_error_category@std@@UEBAPEBDXZ 000000018009b290 f i libcpmtd:thread0.obj
 0002:0001e2a0       ?select_on_container_copy_construction@?$_Default_allocator_traits@V?$allocator@D@std@@@std@@SA?AV?$allocator@D@2@AEBV32@@Z 000000018009b2a0 f i libcpmtd:thread0.obj
 0002:0001e2c0       ?size@?$basic_string@DU?$char_traits@D@std@@V?$allocator@D@2@@std@@QEBA_KXZ 000000018009b2c0 f i libcpmtd:thread0.obj
 0002:0001e2e0       ?value@error_code@std@@QEBAHXZ 000000018009b2e0 f i libcpmtd:thread0.obj
 0002:0001e2f0       ?value@error_condition@std@@QEBAHXZ 000000018009b2f0 f i libcpmtd:thread0.obj
 0002:0001e300       _Mtxdst                    000000018009b300 f   libcpmtd:xmtx.obj
 0002:0001e320       _Mtxinit                   000000018009b320 f   libcpmtd:xmtx.obj
 0002:0001e350       _Mtxlock                   000000018009b350 f   libcpmtd:xmtx.obj
 0002:0001e370       _Mtxunlock                 000000018009b370 f   libcpmtd:xmtx.obj
 0002:0001e390       ??$_Atomic_address_as@_JU?$_Atomic_padded@_J@std@@@std@@YAPEC_JAEAU?$_Atomic_padded@_J@0@@Z 000000018009b390 f i libcpmtd:xtime.obj
 0002:0001e3a0       ??$_Atomic_address_as@_JU?$_Atomic_padded@_J@std@@@std@@YAPED_JAEBU?$_Atomic_padded@_J@0@@Z 000000018009b3a0 f i libcpmtd:xtime.obj
 0002:0001e3b0       ??$_Atomic_reinterpret_as@_J_J@std@@YA_JAEB_J@Z 000000018009b3b0 f i libcpmtd:xtime.obj
 0002:0001e3d0       ?_Load_barrier@std@@YAXW4memory_order@1@@Z 000000018009b3d0 f i libcpmtd:xtime.obj
 0002:0001e4c0       ?load@?$_Atomic_storage@_J$07@std@@QEBA_JW4memory_order@2@@Z 000000018009b4c0 f i libcpmtd:xtime.obj
 0002:0001e510       ?store@?$_Atomic_storage@_J$07@std@@QEAAX_J@Z 000000018009b510 f i libcpmtd:xtime.obj
 0002:0001e570       ?store@?$_Atomic_storage@_J$07@std@@QEAAX_JW4memory_order@2@@Z 000000018009b570 f i libcpmtd:xtime.obj
 0002:0001e8b0       _Query_perf_counter        000000018009b8b0 f   libcpmtd:xtime.obj
 0002:0001e8d0       _Query_perf_frequency      000000018009b8d0 f   libcpmtd:xtime.obj
 0002:0001e940       _Xtime_diff_to_millis      000000018009b940 f   libcpmtd:xtime.obj
 0002:0001e9a0       _Xtime_diff_to_millis2     000000018009b9a0 f   libcpmtd:xtime.obj
 0002:0001ea70       _Xtime_get_ticks           000000018009ba70 f   libcpmtd:xtime.obj
 0002:0001eb10       xtime_get                  000000018009bb10 f   libcpmtd:xtime.obj
 0002:0001f2f0       __crtAcquireSRWLockExclusive 000000018009c2f0 f   libcpmtd:winapisupp.obj
 0002:0001f310       __crtCloseThreadpoolTimer  000000018009c310 f   libcpmtd:winapisupp.obj
 0002:0001f330       __crtCloseThreadpoolWait   000000018009c330 f   libcpmtd:winapisupp.obj
 0002:0001f350       __crtCloseThreadpoolWork   000000018009c350 f   libcpmtd:winapisupp.obj
 0002:0001f370       __crtCreateEventExW        000000018009c370 f   libcpmtd:winapisupp.obj
 0002:0001f3c0       __crtCreateSemaphoreExW    000000018009c3c0 f   libcpmtd:winapisupp.obj
 0002:0001f420       __crtCreateSymbolicLinkW   000000018009c420 f   libcpmtd:winapisupp.obj
 0002:0001f460       __crtCreateThreadpoolTimer 000000018009c460 f   libcpmtd:winapisupp.obj
 0002:0001f4a0       __crtCreateThreadpoolWait  000000018009c4a0 f   libcpmtd:winapisupp.obj
 0002:0001f4e0       __crtCreateThreadpoolWork  000000018009c4e0 f   libcpmtd:winapisupp.obj
 0002:0001f520       __crtFlsAlloc              000000018009c520 f   libcpmtd:winapisupp.obj
 0002:0001f540       __crtFlsFree               000000018009c540 f   libcpmtd:winapisupp.obj
 0002:0001f560       __crtFlsGetValue           000000018009c560 f   libcpmtd:winapisupp.obj
 0002:0001f580       __crtFlsSetValue           000000018009c580 f   libcpmtd:winapisupp.obj
 0002:0001f5b0       __crtFlushProcessWriteBuffers 000000018009c5b0 f   libcpmtd:winapisupp.obj
 0002:0001f5d0       __crtFreeLibraryWhenCallbackReturns 000000018009c5d0 f   libcpmtd:winapisupp.obj
 0002:0001f600       __crtGetCurrentProcessorNumber 000000018009c600 f   libcpmtd:winapisupp.obj
 0002:0001f620       __crtGetFileInformationByHandleEx 000000018009c620 f   libcpmtd:winapisupp.obj
 0002:0001f670       __crtGetSystemTimePreciseAsFileTime 000000018009c670 f   libcpmtd:winapisupp.obj
 0002:0001f6f0       __crtGetTickCount64        000000018009c6f0 f   libcpmtd:winapisupp.obj
 0002:0001f710       __crtInitOnceExecuteOnce   000000018009c710 f   libcpmtd:winapisupp.obj
 0002:0001f760       __crtInitializeConditionVariable 000000018009c760 f   libcpmtd:winapisupp.obj
 0002:0001f780       __crtInitializeCriticalSectionEx 000000018009c780 f   libcpmtd:winapisupp.obj
 0002:0001f7c0       __crtInitializeSRWLock     000000018009c7c0 f   libcpmtd:winapisupp.obj
 0002:0001f7e0       __crtIsPackagedApp         000000018009c7e0 f   libcpmtd:winapisupp.obj
 0002:0001f830       __crtReleaseSRWLockExclusive 000000018009c830 f   libcpmtd:winapisupp.obj
 0002:0001f850       __crtSetFileInformationByHandle 000000018009c850 f   libcpmtd:winapisupp.obj
 0002:0001f8a0       __crtSetThreadpoolTimer    000000018009c8a0 f   libcpmtd:winapisupp.obj
 0002:0001f8f0       __crtSetThreadpoolWait     000000018009c8f0 f   libcpmtd:winapisupp.obj
 0002:0001f930       __crtSleepConditionVariableCS 000000018009c930 f   libcpmtd:winapisupp.obj
 0002:0001f970       __crtSleepConditionVariableSRW 000000018009c970 f   libcpmtd:winapisupp.obj
 0002:0001f9c0       __crtSubmitThreadpoolWork  000000018009c9c0 f   libcpmtd:winapisupp.obj
 0002:0001f9e0       __crtTryAcquireSRWLockExclusive 000000018009c9e0 f   libcpmtd:winapisupp.obj
 0002:0001fa40       __crtWaitForThreadpoolTimerCallbacks 000000018009ca40 f   libcpmtd:winapisupp.obj
 0002:0001fa70       __crtWakeAllConditionVariable 000000018009ca70 f   libcpmtd:winapisupp.obj
 0002:0001fa90       __crtWakeConditionVariable 000000018009ca90 f   libcpmtd:winapisupp.obj
 0002:0001fab0       __crt_IsPackagedAppHelper  000000018009cab0 f   libcpmtd:winapisupp.obj
 0002:0001fb50       ?_Syserror_map@std@@YAPEBDH@Z 000000018009cb50 f   libcpmtd:syserror.obj
 0002:0001fbf0       ?_Winerror_map@std@@YAHH@Z 000000018009cbf0 f   libcpmtd:syserror.obj
 0002:0001fc80       ?_Winerror_message@std@@YAKKPEADK@Z 000000018009cc80 f   libcpmtd:syserror.obj
 0002:0001fd20       __std_get_string_size_without_trailing_whitespace 000000018009cd20 f   libcpmtd:syserror_import_lib.obj
 0002:0001fd90       __std_system_error_allocate_message 000000018009cd90 f   libcpmtd:syserror_import_lib.obj
 0002:0001fe00       __std_system_error_deallocate_message 000000018009ce00 f   libcpmtd:syserror_import_lib.obj
 0002:0001fe30       memcpy_repmovs             000000018009ce30 f   libvcruntimed:memcpy.obj
 0002:0001fe50       memcpy                     000000018009ce50 f   libvcruntimed:memcpy.obj
 0002:0001fe50       memmove                    000000018009ce50 f   libvcruntimed:memcpy.obj
 0002:00020680       memset_repmovs             000000018009d680 f   libvcruntimed:memset.obj
 0002:000206a0       memset                     000000018009d6a0 f   libvcruntimed:memset.obj
 0002:000208a0       ??$?RD@__crt_public_free_policy@@QEBAXQEBD@Z 000000018009d8a0 f i libvcruntimed:std_exception.obj
 0002:000208d0       ??0?$__crt_unique_heap_ptr@DU__crt_public_free_policy@@@@QEAA@QEAD@Z 000000018009d8d0 f i libvcruntimed:std_exception.obj
 0002:00020900       ??1?$__crt_unique_heap_ptr@DU__crt_public_free_policy@@@@QEAA@XZ 000000018009d900 f i libvcruntimed:std_exception.obj
 0002:00020920       ??B?$__crt_unique_heap_ptr@DU__crt_public_free_policy@@@@QEBA_NXZ 000000018009d920 f i libvcruntimed:std_exception.obj
 0002:00020940       ?detach@?$__crt_unique_heap_ptr@DU__crt_public_free_policy@@@@QEAAPEADXZ 000000018009d940 f i libvcruntimed:std_exception.obj
 0002:00020980       ?get@?$__crt_unique_heap_ptr@DU__crt_public_free_policy@@@@QEBAPEADXZ 000000018009d980 f i libvcruntimed:std_exception.obj
 0002:000209a0       ?is_valid@?$__crt_unique_heap_ptr@DU__crt_public_free_policy@@@@QEBA_NXZ 000000018009d9a0 f i libvcruntimed:std_exception.obj
 0002:000209e0       ?release@?$__crt_unique_heap_ptr@DU__crt_public_free_policy@@@@QEAAXXZ 000000018009d9e0 f i libvcruntimed:std_exception.obj
 0002:00020a20       __std_exception_copy       000000018009da20 f   libvcruntimed:std_exception.obj
 0002:00020bb0       __std_exception_destroy    000000018009dbb0 f   libvcruntimed:std_exception.obj
 0002:00020c00       _CxxThrowException         000000018009dc00 f   libvcruntimed:throw.obj
 0002:00020d80       ??$?0AEAViterator@TryBlockMap4@FH4@@AEAV012@$0A@@?$pair@Viterator@TryBlockMap4@FH4@@V123@@std@@QEAA@AEAViterator@TryBlockMap4@FH4@@0@Z 000000018009dd80 f i libvcruntimed:risctrnsctrl.obj
 0002:00020df0       ??$?0AEAViterator@TryBlockMap@__FrameHandler3@@AEAV012@$0A@@?$pair@Viterator@TryBlockMap@__FrameHandler3@@V123@@std@@QEAA@AEAViterator@TryBlockMap@__FrameHandler3@@0@Z 000000018009ddf0 f i libvcruntimed:risctrnsctrl.obj
 0002:00021030       ??$_CallSETranslator@V__FrameHandler3@@@@YAHPEAUEHExceptionRecord@@PEA_KPEAU_CONTEXT@@PEAU_xDISPATCHER_CONTEXT@@PEBU_s_FuncInfo@@K1H@Z 000000018009e030 f i libvcruntimed:risctrnsctrl.obj
 0002:000210f0       ??$_CallSETranslator@V__FrameHandler4@@@@YAHPEAUEHExceptionRecord@@PEA_KPEAU_CONTEXT@@PEAU_xDISPATCHER_CONTEXT@@PEAUFuncInfo4@FH4@@K1H@Z 000000018009e0f0 f i libvcruntimed:risctrnsctrl.obj
 0002:000211b0       ??$forward@AEAViterator@TryBlockMap4@FH4@@@std@@YAAEAViterator@TryBlockMap4@FH4@@AEAV123@@Z 000000018009e1b0 f i libvcruntimed:risctrnsctrl.obj
 0002:000211c0       ??$forward@AEAViterator@TryBlockMap@__FrameHandler3@@@std@@YAAEAViterator@TryBlockMap@__FrameHandler3@@AEAV123@@Z 000000018009e1c0 f i libvcruntimed:risctrnsctrl.obj
 0002:000211d0       ??0FuncInfo4@FH4@@QEAA@XZ  000000018009e1d0 f i libvcruntimed:risctrnsctrl.obj
 0002:00021250       ??0FuncInfoHeader@FH4@@QEAA@XZ 000000018009e250 f i libvcruntimed:risctrnsctrl.obj
 0002:00021270       ??0iterator@TryBlockMap4@FH4@@QEAA@AEAV12@I@Z 000000018009e270 f i libvcruntimed:risctrnsctrl.obj
 0002:000212b0       ??0iterator@TryBlockMap@__FrameHandler3@@QEAA@AEAV12@I@Z 000000018009e2b0 f i libvcruntimed:risctrnsctrl.obj
 0002:000212f0       ??4iterator@TryBlockMap4@FH4@@QEAAAEAV012@AEBV012@@Z 000000018009e2f0 f i libvcruntimed:risctrnsctrl.obj
 0002:00021320       ??9iterator@TryBlockMap4@FH4@@QEBA_NAEBV012@@Z 000000018009e320 f i libvcruntimed:risctrnsctrl.obj
 0002:00021370       ??Diterator@TryBlockMap4@FH4@@QEAA?AUTryBlockMapEntry4@2@XZ 000000018009e370 f i libvcruntimed:risctrnsctrl.obj
 0002:000213b0       ??Eiterator@TryBlockMap4@FH4@@QEAAAEAV012@XZ 000000018009e3b0 f i libvcruntimed:risctrnsctrl.obj
 0002:000213f0       ?CatchTryBlock@__FrameHandler3@@SAPEBU_s_TryBlockMapEntry@@PEBU_s_FuncInfo@@H@Z 000000018009e3f0 f   libvcruntimed:risctrnsctrl.obj
 0002:000214a0       ?DecompFuncInfo@FH4@@YA_JPEAEAEAUFuncInfo4@1@_KH@Z 000000018009e4a0 f i libvcruntimed:risctrnsctrl.obj
 0002:000214f0       ?DecompFuncInfo@FH4@@YA_JPEAEAEAUFuncInfo4@1@_KH_N@Z 000000018009e4f0 f i libvcruntimed:risctrnsctrl.obj
 0002:00021740       ?DecompTryBlock@TryBlockMap4@FH4@@AEAAXXZ 000000018009e740 f i libvcruntimed:risctrnsctrl.obj
 0002:000217d0       ?ExecutionInCatch@__FrameHandler3@@SA_NPEAU_xDISPATCHER_CONTEXT@@PEBU_s_FuncInfo@@@Z 000000018009e7d0 f   libvcruntimed:risctrnsctrl.obj
 0002:00021840       ?ExecutionInCatch@__FrameHandler4@@SA_NPEAU_xDISPATCHER_CONTEXT@@PEAUFuncInfo4@FH4@@@Z 000000018009e840 f   libvcruntimed:risctrnsctrl.obj
 0002:00021860       ?FrameUnwindToEmptyState@__FrameHandler3@@SAXPEA_KPEAU_xDISPATCHER_CONTEXT@@PEBU_s_FuncInfo@@@Z 000000018009e860 f   libvcruntimed:risctrnsctrl.obj
 0002:00021920       ?FrameUnwindToEmptyState@__FrameHandler4@@SAXPEA_KPEAU_xDISPATCHER_CONTEXT@@PEAUFuncInfo4@FH4@@@Z 000000018009e920 f   libvcruntimed:risctrnsctrl.obj
 0002:00021990       ?GetEstablisherFrame@__FrameHandler3@@SAPEA_KPEA_KPEAU_xDISPATCHER_CONTEXT@@PEBU_s_FuncInfo@@0@Z 000000018009e990 f   libvcruntimed:risctrnsctrl.obj
 0002:00021b60       ?GetEstablisherFrame@__FrameHandler4@@SAPEA_KPEA_KPEAU_xDISPATCHER_CONTEXT@@PEAUFuncInfo4@FH4@@0@Z 000000018009eb60 f   libvcruntimed:risctrnsctrl.obj
 0002:00021be0       ?GetRangeOfTrysToCheck@__FrameHandler3@@SA?AU?$pair@Viterator@TryBlockMap@__FrameHandler3@@V123@@std@@AEAVTryBlockMap@1@HPEAU_xDISPATCHER_CONTEXT@@PEBU_s_FuncInfo@@H@Z 000000018009ebe0 f   libvcruntimed:risctrnsctrl.obj
 0002:00021eb0       ?GetRangeOfTrysToCheck@__FrameHandler4@@SA?AU?$pair@Viterator@TryBlockMap4@FH4@@V123@@std@@AEAVTryBlockMap4@FH4@@HPEAU_xDISPATCHER_CONTEXT@@PEAUFuncInfo4@5@H@Z 000000018009eeb0 f   libvcruntimed:risctrnsctrl.obj
 0002:000220d0       ?ReadInt@FH4@@YAHPEAPEAE@Z 000000018009f0d0 f i libvcruntimed:risctrnsctrl.obj
 0002:00022110       ?ReadUnsigned@FH4@@YAIPEAPEAE@Z 000000018009f110 f i libvcruntimed:risctrnsctrl.obj
 0002:000221c0       ?UnwindNestedFrames@__FrameHandler3@@SAXPEA_KPEAUEHExceptionRecord@@PEAU_CONTEXT@@0PEAXPEBU_s_FuncInfo@@HHPEBU_s_HandlerType@@PEAU_xDISPATCHER_CONTEXT@@E@Z 000000018009f1c0 f   libvcruntimed:risctrnsctrl.obj
 0002:00022390       ?UnwindNestedFrames@__FrameHandler4@@SAXPEA_KPEAUEHExceptionRecord@@PEAU_CONTEXT@@0PEAXPEAUFuncInfo4@FH4@@HHPEAUHandlerType4@5@PEAU_xDISPATCHER_CONTEXT@@E@Z 000000018009f390 f   libvcruntimed:risctrnsctrl.obj
 0002:000225d0       ?begin@TryBlockMap4@FH4@@QEAA?AViterator@12@XZ 000000018009f5d0 f i libvcruntimed:risctrnsctrl.obj
 0002:00022610       ?end@TryBlockMap4@FH4@@QEAA?AViterator@12@XZ 000000018009f610 f i libvcruntimed:risctrnsctrl.obj
 0002:00022650       ?imageRelToByteBuffer@FH4@@YAPEAE_KH@Z 000000018009f650 f i libvcruntimed:risctrnsctrl.obj
 0002:00022670       ?incrementToSentinel@iterator@TryBlockMap4@FH4@@QEAAXXZ 000000018009f670 f i libvcruntimed:risctrnsctrl.obj
 0002:00022690       ?setBuffer@TryBlockMap4@FH4@@QEAAXViterator@12@@Z 000000018009f690 f i libvcruntimed:risctrnsctrl.obj
 0002:00022720       _CreateFrameInfo           000000018009f720 f   libvcruntimed:risctrnsctrl.obj
 0002:000227b0       _FindAndUnlinkFrame        000000018009f7b0 f   libvcruntimed:risctrnsctrl.obj
 0002:00022850       _GetImageBase              000000018009f850 f   libvcruntimed:risctrnsctrl.obj
 0002:00022870       _GetThrowImageBase         000000018009f870 f   libvcruntimed:risctrnsctrl.obj
 0002:00022890       _SetImageBase              000000018009f890 f   libvcruntimed:risctrnsctrl.obj
 0002:000228c0       _SetThrowImageBase         000000018009f8c0 f   libvcruntimed:risctrnsctrl.obj
 0002:000228f0       __CxxFrameHandler          000000018009f8f0 f   libvcruntimed:risctrnsctrl.obj
 0002:00022940       __CxxFrameHandler2         000000018009f940 f   libvcruntimed:risctrnsctrl.obj
 0002:00022990       __CxxFrameHandler3         000000018009f990 f   libvcruntimed:risctrnsctrl.obj
 0002:00022aa0       __CxxFrameHandler4         000000018009faa0 f   libvcruntimed:risctrnsctrl.obj
 0002:00022bf0       __vcrt_initialize          000000018009fbf0 f   libvcruntimed:initialization.obj
 0002:00022c40       __vcrt_thread_attach       000000018009fc40 f   libvcruntimed:initialization.obj
 0002:00022c60       __vcrt_thread_detach       000000018009fc60 f   libvcruntimed:initialization.obj
 0002:00022c80       __vcrt_uninitialize        000000018009fc80 f   libvcruntimed:initialization.obj
 0002:00022ca0       __vcrt_uninitialize_critical 000000018009fca0 f   libvcruntimed:initialization.obj
 0002:00022cd0       __C_specific_handler       000000018009fcd0 f   libvcruntimed:riscchandler.obj
 0002:00023260       __DestructExceptionObject  00000001800a0260 f   libvcruntimed:ehhelpers.obj
 0002:000233a0       ?_CallMemberFunction0@@YAXQEAX0@Z 00000001800a03a0 f i libvcruntimed:ehhelpers.obj
 0002:000234b0       ?raw_name@type_info@@QEBAPEBDXZ 00000001800a04b0 f i libvcruntimed:ehhelpers.obj
 0002:000234d0       _IsExceptionObjectToBeDestroyed 00000001800a04d0 f   libvcruntimed:ehhelpers.obj
 0002:00023540       _SetWinRTOutOfMemoryExceptionCallback 00000001800a0540 f   libvcruntimed:ehhelpers.obj
 0002:00023560       __AdjustPointer            00000001800a0560 f   libvcruntimed:ehhelpers.obj
 0002:00023600       __FrameUnwindFilter        00000001800a0600 f   libvcruntimed:ehhelpers.obj
 0002:000236d0       __GetPlatformExceptionInfo 00000001800a06d0 f   libvcruntimed:ehhelpers.obj
 0002:000237b0       __current_exception        00000001800a07b0 f   libvcruntimed:ehhelpers.obj
 0002:000237d0       __current_exception_context 00000001800a07d0 f   libvcruntimed:ehhelpers.obj
 0002:000237f0       __processing_throw         00000001800a07f0 f   libvcruntimed:ehhelpers.obj
 0002:00023810       __std_terminate            00000001800a0810 f   libvcruntimed:ehhelpers.obj
 0002:00023830       _is_exception_typeof       00000001800a0830 f   libvcruntimed:ehhelpers.obj
 0002:000239d0       __C_specific_handler_noexcept 00000001800a09d0 f   libvcruntimed:chandler_noexcept.obj
 0002:00023ac0       ??$?RD@__crt_internal_free_policy@@QEBAXQEBD@Z 00000001800a0ac0 f i libvcruntimed:std_type_info.obj
 0002:00023af0       ??$?RX@__crt_internal_free_policy@@QEBAXQEBX@Z 00000001800a0af0 f i libvcruntimed:std_type_info.obj
 0002:00023b20       ??$__crt_interlocked_compare_exchange_pointer@$$CBDPEAD$$T@@YAPEBDPEDSEBDQEAD$$T@Z 00000001800a0b20 f i libvcruntimed:std_type_info.obj
 0002:00023b70       ??$__crt_interlocked_read_pointer@$$CBD@@YAPEBDPEDSEBD@Z 00000001800a0b70 f i libvcruntimed:std_type_info.obj
 0002:00023b90       ??0?$__crt_unique_heap_ptr@DU__crt_internal_free_policy@@@@QEAA@QEAD@Z 00000001800a0b90 f i libvcruntimed:std_type_info.obj
 0002:00023bc0       ??0?$__crt_unique_heap_ptr@XU__crt_internal_free_policy@@@@QEAA@QEAX@Z 00000001800a0bc0 f i libvcruntimed:std_type_info.obj
 0002:00023bf0       ??1?$__crt_unique_heap_ptr@DU__crt_internal_free_policy@@@@QEAA@XZ 00000001800a0bf0 f i libvcruntimed:std_type_info.obj
 0002:00023c10       ??1?$__crt_unique_heap_ptr@XU__crt_internal_free_policy@@@@QEAA@XZ 00000001800a0c10 f i libvcruntimed:std_type_info.obj
 0002:00023c30       ??B?$__crt_unique_heap_ptr@DU__crt_internal_free_policy@@@@QEBA_NXZ 00000001800a0c30 f i libvcruntimed:std_type_info.obj
 0002:00023c50       ??B?$__crt_unique_heap_ptr@XU__crt_internal_free_policy@@@@QEBA_NXZ 00000001800a0c50 f i libvcruntimed:std_type_info.obj
 0002:00023d00       ?__crt_interlocked_read_64@@YA_JPED_J@Z 00000001800a0d00 f i libvcruntimed:std_type_info.obj
 0002:00023d30       ?detach@?$__crt_unique_heap_ptr@XU__crt_internal_free_policy@@@@QEAAPEAXXZ 00000001800a0d30 f i libvcruntimed:std_type_info.obj
 0002:00023d70       ?get@?$__crt_unique_heap_ptr@DU__crt_internal_free_policy@@@@QEBAPEADXZ 00000001800a0d70 f i libvcruntimed:std_type_info.obj
 0002:00023d90       ?get@?$__crt_unique_heap_ptr@XU__crt_internal_free_policy@@@@QEBAPEAXXZ 00000001800a0d90 f i libvcruntimed:std_type_info.obj
 0002:00023db0       ?is_valid@?$__crt_unique_heap_ptr@DU__crt_internal_free_policy@@@@QEBA_NXZ 00000001800a0db0 f i libvcruntimed:std_type_info.obj
 0002:00023df0       ?is_valid@?$__crt_unique_heap_ptr@XU__crt_internal_free_policy@@@@QEBA_NXZ 00000001800a0df0 f i libvcruntimed:std_type_info.obj
 0002:00023e30       ?release@?$__crt_unique_heap_ptr@DU__crt_internal_free_policy@@@@QEAAXXZ 00000001800a0e30 f i libvcruntimed:std_type_info.obj
 0002:00023e70       ?release@?$__crt_unique_heap_ptr@XU__crt_internal_free_policy@@@@QEAAXXZ 00000001800a0e70 f i libvcruntimed:std_type_info.obj
 0002:00023eb0       __std_type_info_compare    00000001800a0eb0 f   libvcruntimed:std_type_info.obj
 0002:00023f00       __std_type_info_destroy_list 00000001800a0f00 f   libvcruntimed:std_type_info.obj
 0002:00023f70       __std_type_info_hash       00000001800a0f70 f   libvcruntimed:std_type_info.obj
 0002:00024050       __std_type_info_name       00000001800a1050 f   libvcruntimed:std_type_info.obj
 0002:000243b0       __vcrt_GetModuleFileNameW  00000001800a13b0 f   libvcruntimed:winapi_thunks.obj
 0002:000243f0       __vcrt_GetModuleHandleW    00000001800a13f0 f   libvcruntimed:winapi_thunks.obj
 0002:00024410       __vcrt_LoadLibraryExW      00000001800a1410 f   libvcruntimed:winapi_thunks.obj
 0002:00024450       ??$?RU__vcrt_ptd@@@__crt_internal_free_policy@@QEBAXQEBU__vcrt_ptd@@@Z 00000001800a1450 f i libvcruntimed:per_thread_data.obj
 0002:00024480       ??0?$__crt_unique_heap_ptr@U__vcrt_ptd@@U__crt_internal_free_policy@@@@QEAA@QEAU__vcrt_ptd@@@Z 00000001800a1480 f i libvcruntimed:per_thread_data.obj
 0002:000244e0       ??1?$__crt_unique_heap_ptr@U__vcrt_ptd@@U__crt_internal_free_policy@@@@QEAA@XZ 00000001800a14e0 f i libvcruntimed:per_thread_data.obj
 0002:00024530       ??B?$__crt_unique_heap_ptr@U__vcrt_ptd@@U__crt_internal_free_policy@@@@QEBA_NXZ 00000001800a1530 f i libvcruntimed:per_thread_data.obj
 0002:00024550       ?detach@?$__crt_unique_heap_ptr@U__vcrt_ptd@@U__crt_internal_free_policy@@@@QEAAPEAU__vcrt_ptd@@XZ 00000001800a1550 f i libvcruntimed:per_thread_data.obj
 0002:00024590       ?get@?$__crt_unique_heap_ptr@U__vcrt_ptd@@U__crt_internal_free_policy@@@@QEBAPEAU__vcrt_ptd@@XZ 00000001800a1590 f i libvcruntimed:per_thread_data.obj
 0002:000245b0       ?is_valid@?$__crt_unique_heap_ptr@U__vcrt_ptd@@U__crt_internal_free_policy@@@@QEBA_NXZ 00000001800a15b0 f i libvcruntimed:per_thread_data.obj
 0002:000245f0       ?release@?$__crt_unique_heap_ptr@U__vcrt_ptd@@U__crt_internal_free_policy@@@@QEAAXXZ 00000001800a15f0 f i libvcruntimed:per_thread_data.obj
 0002:00024680       __vcrt_freefls             00000001800a1680 f   libvcruntimed:per_thread_data.obj
 0002:000246d0       __vcrt_freeptd             00000001800a16d0 f   libvcruntimed:per_thread_data.obj
 0002:00024750       __vcrt_getptd              00000001800a1750 f   libvcruntimed:per_thread_data.obj
 0002:00024780       __vcrt_getptd_noexit       00000001800a1780 f   libvcruntimed:per_thread_data.obj
 0002:00024990       __vcrt_getptd_noinit       00000001800a1990 f   libvcruntimed:per_thread_data.obj
 0002:00024a10       __vcrt_initialize_ptd      00000001800a1a10 f   libvcruntimed:per_thread_data.obj
 0002:00024a70       __vcrt_uninitialize_ptd    00000001800a1a70 f   libvcruntimed:per_thread_data.obj
 0002:00024ab0       ?GetCurrentState@__FrameHandler3@@SAHPEA_KPEAU_xDISPATCHER_CONTEXT@@PEBU_s_FuncInfo@@@Z 00000001800a1ab0 f   libvcruntimed:ehstate.obj
 0002:00024b20       ?GetUnwindTryBlock@__FrameHandler3@@SAHPEA_KPEAU_xDISPATCHER_CONTEXT@@PEBU_s_FuncInfo@@@Z 00000001800a1b20 f   libvcruntimed:ehstate.obj
 0002:00024b80       ?SetState@__FrameHandler3@@SAXPEA_KPEBU_s_FuncInfo@@H@Z 00000001800a1b80 f   libvcruntimed:ehstate.obj
 0002:00024bc0       ?SetUnwindTryBlock@__FrameHandler3@@SAXPEA_KPEAU_xDISPATCHER_CONTEXT@@PEBU_s_FuncInfo@@H@Z 00000001800a1bc0 f   libvcruntimed:ehstate.obj
 0002:00024c50       ?StateFromControlPc@__FrameHandler3@@SAHPEBU_s_FuncInfo@@PEAU_xDISPATCHER_CONTEXT@@@Z 00000001800a1c50 f   libvcruntimed:ehstate.obj
 0002:00024ca0       ?StateFromControlPc@__FrameHandler4@@SAHPEAUFuncInfo4@FH4@@PEAU_xDISPATCHER_CONTEXT@@@Z 00000001800a1ca0 f   libvcruntimed:ehstate.obj
 0002:00024cf0       ?StateFromIp@__FrameHandler3@@SAHPEBU_s_FuncInfo@@PEAU_xDISPATCHER_CONTEXT@@_K@Z 00000001800a1cf0 f   libvcruntimed:ehstate.obj
 0002:00024e20       ?StateFromIp@__FrameHandler4@@SAHPEAUFuncInfo4@FH4@@PEAU_xDISPATCHER_CONTEXT@@_K@Z 00000001800a1e20 f   libvcruntimed:ehstate.obj
 0002:00024f40       ?__FuncRelToRealOffset@@YA_KPEAU_xDISPATCHER_CONTEXT@@I@Z 00000001800a1f40 f i libvcruntimed:ehstate.obj
 0002:00024f80       ?__RVAtoRealOffset@@YA_KPEAU_xDISPATCHER_CONTEXT@@H@Z 00000001800a1f80 f i libvcruntimed:ehstate.obj
 0002:00027a80       ??$TypeMatchHelper@V__FrameHandler3@@@@YAHPEBU_s_HandlerType@@PEBU_s_CatchableType@@PEBU_s_ThrowInfo@@@Z 00000001800a4a80 f i libvcruntimed:frame.obj
 0002:00027d00       ??$TypeMatchHelper@V__FrameHandler4@@@@YAHPEAUHandlerType4@FH4@@PEBU_s_CatchableType@@PEBU_s_ThrowInfo@@@Z 00000001800a4d00 f i libvcruntimed:frame.obj
 0002:00027f90       ??$__InternalCxxFrameHandler@V__FrameHandler3@@@@YA?AW4_EXCEPTION_DISPOSITION@@PEAUEHExceptionRecord@@PEA_KPEAU_CONTEXT@@PEAU_xDISPATCHER_CONTEXT@@PEBU_s_FuncInfo@@H1E@Z 00000001800a4f90 f i libvcruntimed:frame.obj
 0002:00028520       ??$__InternalCxxFrameHandler@V__FrameHandler4@@@@YA?AW4_EXCEPTION_DISPOSITION@@PEAUEHExceptionRecord@@PEA_KPEAU_CONTEXT@@PEAU_xDISPATCHER_CONTEXT@@PEAUFuncInfo4@FH4@@H1E@Z 00000001800a5520 f i libvcruntimed:frame.obj
 0002:00028ae0       ??0HandlerMap4@FH4@@QEAA@PEBUTryBlockMapEntry4@1@_KH@Z 00000001800a5ae0 f i libvcruntimed:frame.obj
 0002:00028bd0       ??0HandlerMap@__FrameHandler3@@QEAA@PEBU_s_TryBlockMapEntry@@_KI@Z 00000001800a5bd0 f i libvcruntimed:frame.obj
 0002:00028c30       ??0HandlerType4@FH4@@QEAA@XZ 00000001800a5c30 f i libvcruntimed:frame.obj
 0002:00028c60       ??0TryBlockMap4@FH4@@QEAA@PEBUFuncInfo4@1@_K@Z 00000001800a5c60 f i libvcruntimed:frame.obj
 0002:00028d10       ??0TryBlockMap@__FrameHandler3@@QEAA@PEBU_s_FuncInfo@@_K@Z 00000001800a5d10 f i libvcruntimed:frame.obj
 0002:00028d50       ??0UWMap4@FH4@@QEAA@PEBUFuncInfo4@1@_K@Z 00000001800a5d50 f i libvcruntimed:frame.obj
 0002:00028de0       ??0bad_exception@std@@QEAA@AEBV01@@Z 00000001800a5de0 f i libvcruntimed:frame.obj
 0002:00028e30       ??0bad_exception@std@@QEAA@XZ 00000001800a5e30 f i libvcruntimed:frame.obj
 0002:00028e80       ??0iterator@HandlerMap4@FH4@@QEAA@AEAV12@I@Z 00000001800a5e80 f i libvcruntimed:frame.obj
 0002:00028ec0       ??0iterator@HandlerMap@__FrameHandler3@@QEAA@AEAV12@I@Z 00000001800a5ec0 f i libvcruntimed:frame.obj
 0002:00028f00       ??0iterator@UWMap4@FH4@@QEAA@AEAV12@PEAE@Z 00000001800a5f00 f i libvcruntimed:frame.obj
 0002:00028f40       ??1bad_exception@std@@UEAA@XZ 00000001800a5f40 f i libvcruntimed:frame.obj
 0002:00028f60       ??4iterator@UWMap4@FH4@@QEAAAEAV012@AEBV012@@Z 00000001800a5f60 f i libvcruntimed:frame.obj
 0002:00028fc0       ??8iterator@HandlerMap4@FH4@@QEBA_NAEBV012@@Z 00000001800a5fc0 f i libvcruntimed:frame.obj
 0002:00029010       ??8iterator@HandlerMap@__FrameHandler3@@QEBA_NAEBV012@@Z 00000001800a6010 f i libvcruntimed:frame.obj
 0002:00029060       ??8type_info@@QEBA_NAEBV0@@Z 00000001800a6060 f i libvcruntimed:frame.obj
 0002:000290c0       ??9iterator@HandlerMap4@FH4@@QEBA_NAEBV012@@Z 00000001800a60c0 f i libvcruntimed:frame.obj
 0002:00029110       ??9iterator@HandlerMap@__FrameHandler3@@QEBA_NAEBV012@@Z 00000001800a6110 f i libvcruntimed:frame.obj
 0002:00029160       ??Diterator@HandlerMap4@FH4@@QEAA?AUHandlerType4@2@XZ 00000001800a6160 f i libvcruntimed:frame.obj
 0002:000291a0       ??Diterator@HandlerMap@__FrameHandler3@@QEAA?BU_s_HandlerType@@XZ 00000001800a61a0 f i libvcruntimed:frame.obj
 0002:000291f0       ??Diterator@TryBlockMap@__FrameHandler3@@QEAA?BU_s_TryBlockMapEntry@@XZ 00000001800a61f0 f i libvcruntimed:frame.obj
 0002:00029260       ??Diterator@UWMap4@FH4@@QEAA?AUUnwindMapEntry4@2@XZ 00000001800a6260 f i libvcruntimed:frame.obj
 0002:000292f0       ??Eiterator@HandlerMap4@FH4@@QEAAAEAV012@XZ 00000001800a62f0 f i libvcruntimed:frame.obj
 0002:00029330       ??Eiterator@HandlerMap@__FrameHandler3@@QEAAAEAV012@XZ 00000001800a6330 f i libvcruntimed:frame.obj
 0002:00029360       ??Eiterator@TryBlockMap@__FrameHandler3@@QEAAAEAV012@XZ 00000001800a6360 f i libvcruntimed:frame.obj
 0002:00029390       ??Eiterator@UWMap4@FH4@@QEAAAEAV012@XZ 00000001800a6390 f i libvcruntimed:frame.obj
 0002:000293e0       ??Giterator@UWMap4@FH4@@QEBA_JAEBV012@@Z 00000001800a63e0 f i libvcruntimed:frame.obj
 0002:00029410       ??Miterator@TryBlockMap4@FH4@@QEBA_NAEBV012@@Z 00000001800a6410 f i libvcruntimed:frame.obj
 0002:00029460       ??Miterator@TryBlockMap@__FrameHandler3@@QEBA_NAEBV012@@Z 00000001800a6460 f i libvcruntimed:frame.obj
 0002:000294b0       ??Oiterator@UWMap4@FH4@@QEBA_NAEBV012@@Z 00000001800a64b0 f i libvcruntimed:frame.obj
 0002:00029500       ??Piterator@UWMap4@FH4@@QEBA_NAEBV012@@Z 00000001800a6500 f i libvcruntimed:frame.obj
 0002:00029550       ??_Ebad_exception@std@@UEAAPEAXI@Z 00000001800a6550 f i libvcruntimed:frame.obj
 0002:00029550       ??_Gbad_exception@std@@UEAAPEAXI@Z 00000001800a6550 f i libvcruntimed:frame.obj
 0002:000295a0       ?BuildCatchObject@__FrameHandler3@@SAXPEAUEHExceptionRecord@@PEAXPEBU_s_HandlerType@@PEBU_s_CatchableType@@@Z 00000001800a65a0 f   libvcruntimed:frame.obj
 0002:000295f0       ?BuildCatchObject@__FrameHandler4@@SAXPEAUEHExceptionRecord@@PEAXPEAUHandlerType4@FH4@@PEBU_s_CatchableType@@@Z 00000001800a65f0 f   libvcruntimed:frame.obj
 0002:00029640       ?BuildCatchObjectHelper@__FrameHandler3@@SAHPEAUEHExceptionRecord@@PEAXPEBU_s_HandlerType@@PEBU_s_CatchableType@@@Z 00000001800a6640 f   libvcruntimed:frame.obj
 0002:00029690       ?BuildCatchObjectHelper@__FrameHandler4@@SAHPEAUEHExceptionRecord@@PEAXPEAUHandlerType4@FH4@@PEBU_s_CatchableType@@@Z 00000001800a6690 f   libvcruntimed:frame.obj
 0002:000296e0       ?CxxCallCatchBlock@__FrameHandler3@@SAPEAXPEAU_EXCEPTION_RECORD@@@Z 00000001800a66e0 f   libvcruntimed:frame.obj
 0002:000299d0       ?CxxCallCatchBlock@__FrameHandler4@@SAPEAXPEAU_EXCEPTION_RECORD@@@Z 00000001800a69d0 f   libvcruntimed:frame.obj
 0002:00029dc0       ?DecompHandler@HandlerMap4@FH4@@AEAAXXZ 00000001800a6dc0 f i libvcruntimed:frame.obj
 0002:0002a270       ?FrameUnwindToState@__FrameHandler3@@SAXPEA_KPEAU_xDISPATCHER_CONTEXT@@PEBU_s_FuncInfo@@H@Z 00000001800a7270 f   libvcruntimed:frame.obj
 0002:0002a550       ?FrameUnwindToState@__FrameHandler4@@SAXPEA_KPEAU_xDISPATCHER_CONTEXT@@PEAUFuncInfo4@FH4@@H@Z 00000001800a7550 f   libvcruntimed:frame.obj
 0002:0002a920       ?GetHandlerSearchState@__FrameHandler3@@SAHPEA_KPEAU_xDISPATCHER_CONTEXT@@PEBU_s_FuncInfo@@@Z 00000001800a7920 f i libvcruntimed:frame.obj
 0002:0002aa00       ?GetHandlerSearchState@__FrameHandler4@@SAHPEA_KPEAU_xDISPATCHER_CONTEXT@@PEAUFuncInfo4@FH4@@@Z 00000001800a7a00 f i libvcruntimed:frame.obj
 0002:0002aaa0       ?GetMaxState@__FrameHandler3@@SAHPEAU_xDISPATCHER_CONTEXT@@PEBU_s_FuncInfo@@@Z 00000001800a7aa0 f i libvcruntimed:frame.obj
 0002:0002aac0       ?GetMaxState@__FrameHandler4@@SAHPEAU_xDISPATCHER_CONTEXT@@PEAUFuncInfo4@FH4@@@Z 00000001800a7ac0 f i libvcruntimed:frame.obj
 0002:0002ad70       ?ReadEntry@UWMap4@FH4@@AEAAXPEAPEAE@Z 00000001800a7d70 f i libvcruntimed:frame.obj
 0002:0002ae40       ?TypeMatch@__FrameHandler3@@SAHPEBU_s_HandlerType@@PEBU_s_CatchableType@@PEBU_s_ThrowInfo@@@Z 00000001800a7e40 f   libvcruntimed:frame.obj
 0002:0002ae80       ?TypeMatch@__FrameHandler4@@SAHPEAUHandlerType4@FH4@@PEBU_s_CatchableType@@PEBU_s_ThrowInfo@@@Z 00000001800a7e80 f   libvcruntimed:frame.obj
 0002:0002aec0       ?WalkBack@UWMap4@FH4@@AEAAXPEAPEAE@Z 00000001800a7ec0 f i libvcruntimed:frame.obj
 0002:0002af20       ?WalkBack@iterator@UWMap4@FH4@@QEAAXXZ 00000001800a7f20 f i libvcruntimed:frame.obj
 0002:0002af60       ?WalkForward@UWMap4@FH4@@AEAAXPEAPEAE@Z 00000001800a7f60 f i libvcruntimed:frame.obj
 0002:0002af90       ?_CallMemberFunction1@@YAXQEAX00@Z 00000001800a7f90 f i libvcruntimed:frame.obj
 0002:0002afe0       ?_CallMemberFunction2@@YAXQEAX00H@Z 00000001800a7fe0 f i libvcruntimed:frame.obj
 0002:0002b090       ?begin@HandlerMap4@FH4@@QEAA?AViterator@12@XZ 00000001800a8090 f i libvcruntimed:frame.obj
 0002:0002b0d0       ?begin@HandlerMap@__FrameHandler3@@QEAA?AViterator@12@XZ 00000001800a80d0 f i libvcruntimed:frame.obj
 0002:0002b110       ?begin@UWMap4@FH4@@QEAA?AViterator@12@XZ 00000001800a8110 f i libvcruntimed:frame.obj
 0002:0002b150       ?end@HandlerMap4@FH4@@QEAA?AViterator@12@XZ 00000001800a8150 f i libvcruntimed:frame.obj
 0002:0002b190       ?end@HandlerMap@__FrameHandler3@@QEAA?AViterator@12@XZ 00000001800a8190 f i libvcruntimed:frame.obj
 0002:0002b1d0       ?getESTypes@__FrameHandler3@@SAPEBU_s_ESTypeList@@PEBU_s_FuncInfo@@@Z 00000001800a81d0 f i libvcruntimed:frame.obj
 0002:0002b220       ?getESTypes@__FrameHandler4@@SAPEBU_s_ESTypeList@@PEAUFuncInfo4@FH4@@@Z 00000001800a8220 f i libvcruntimed:frame.obj
 0002:0002b230       ?getLastEntry@HandlerMap4@FH4@@QEAAPEAUHandlerType4@2@XZ 00000001800a8230 f i libvcruntimed:frame.obj
 0002:0002b280       ?getLastEntry@HandlerMap@__FrameHandler3@@QEAAPEBU_s_HandlerType@@XZ 00000001800a8280 f i libvcruntimed:frame.obj
 0002:0002b2b0       ?getMagicNum@__FrameHandler3@@SAIPEBU_s_FuncInfo@@@Z 00000001800a82b0 f i libvcruntimed:frame.obj
 0002:0002b2d0       ?getMagicNum@__FrameHandler4@@SAIPEAUFuncInfo4@FH4@@@Z 00000001800a82d0 f i libvcruntimed:frame.obj
 0002:0002b2e0       ?getNumTryBlocks@TryBlockMap4@FH4@@QEAAIXZ 00000001800a82e0 f i libvcruntimed:frame.obj
 0002:0002b2f0       ?getNumTryBlocks@TryBlockMap@__FrameHandler3@@QEAAIXZ 00000001800a82f0 f i libvcruntimed:frame.obj
 0002:0002b310       ?getStartStop@UWMap4@FH4@@QEAAXHHAEAViterator@12@0@Z 00000001800a8310 f i libvcruntimed:frame.obj
 0002:0002b470       ?getStateFromIterators@UWMap4@FH4@@SAHAEBViterator@12@H0H0@Z 00000001800a8470 f i libvcruntimed:frame.obj
 0002:0002b600       ?isEHs@__FrameHandler3@@SA_NPEBU_s_FuncInfo@@@Z 00000001800a8600 f i libvcruntimed:frame.obj
 0002:0002b640       ?isEHs@__FrameHandler4@@SA_NPEAUFuncInfo4@FH4@@@Z 00000001800a8640 f i libvcruntimed:frame.obj
 0002:0002b660       ?isNoExcept@__FrameHandler3@@SA_NPEBU_s_FuncInfo@@@Z 00000001800a8660 f i libvcruntimed:frame.obj
 0002:0002b6a0       ?isNoExcept@__FrameHandler4@@SA_NPEAUFuncInfo4@FH4@@@Z 00000001800a86a0 f i libvcruntimed:frame.obj
 0002:0002b6c0       ?reset@HandlerType4@FH4@@QEAAXXZ 00000001800a86c0 f i libvcruntimed:frame.obj
 0002:0002b740       ?resetBuffer@HandlerMap4@FH4@@QEAAXXZ 00000001800a8740 f i libvcruntimed:frame.obj
 0002:0002b760       ?setBuffer@HandlerMap4@FH4@@QEAAXI@Z 00000001800a8760 f i libvcruntimed:frame.obj
 0002:0002b7d0       __BuildCatchObject         00000001800a87d0 f   libvcruntimed:frame.obj
 0002:0002b820       __BuildCatchObjectHelper   00000001800a8820 f   libvcruntimed:frame.obj
 0002:0002b870       __TypeMatch                00000001800a8870 f   libvcruntimed:frame.obj
 0002:0002b8b0       __vcrt_EncodePointer       00000001800a88b0 f i libvcruntimed:frame.obj
 0002:0002b8d0       __vcrt_initialize_locks    00000001800a88d0 f   libvcruntimed:locks.obj
 0002:0002b960       __vcrt_lock                00000001800a8960 f   libvcruntimed:locks.obj
 0002:0002b9a0       __vcrt_uninitialize_locks  00000001800a89a0 f   libvcruntimed:locks.obj
 0002:0002ba10       __vcrt_unlock              00000001800a8a10 f   libvcruntimed:locks.obj
 0002:0002ba60       _NLG_Notify                00000001800a8a60 f   libvcruntimed:notify.obj
 0002:0002ba80       __NLG_Dispatch2            00000001800a8a80 f   libvcruntimed:notify.obj
 0002:0002ba90       __NLG_Return2              00000001800a8a90 f   libvcruntimed:notify.obj
 0002:0002bad0       __except_validate_context_record 00000001800a8ad0 f   libvcruntimed:jbcxrval.obj
 0002:0002bb40       __except_validate_jump_buffer 00000001800a8b40 f   libvcruntimed:jbcxrval.obj
 0002:0002bb70       __except_validate_jump_buffer_common 00000001800a8b70 f i libvcruntimed:jbcxrval.obj
 0002:0002bc10       ??$?0$00@DName@@QEAA@PEBDU?$StringLifeSelector@$00@@@Z 00000001800a8c10 f i libvcruntimed:undname.obj
 0002:0002bc90       ??$?0$00@pcharNode@@QEAA@PEBDHU?$StringLifeSelector@$00@@@Z 00000001800a8c90 f i libvcruntimed:undname.obj
 0002:0002bd00       ??$?0$01@DName@@QEAA@PEBDU?$StringLifeSelector@$01@@@Z 00000001800a8d00 f i libvcruntimed:undname.obj
 0002:0002bd80       ??$?0$01@pcharNode@@QEAA@PEBDHU?$StringLifeSelector@$01@@@Z 00000001800a8d80 f i libvcruntimed:undname.obj
 0002:0002be50       ??$?0$0A@@DName@@QEAA@PEBDU?$StringLifeSelector@$0A@@@@Z 00000001800a8e50 f i libvcruntimed:undname.obj
 0002:0002bed0       ??$?0$0A@@pcharNode@@QEAA@PEBDHU?$StringLifeSelector@$0A@@@@Z 00000001800a8ed0 f i libvcruntimed:undname.obj
 0002:0002bfa0       ??$?0_K$0A@@?$optional@_K@std@@QEAA@$$QEA_K@Z 00000001800a8fa0 f i libvcruntimed:undname.obj
 0002:0002c000       ??$?0_K@?$_Optional_construct_base@_K@std@@QEAA@Uin_place_t@1@$$QEA_K@Z 00000001800a9000 f i libvcruntimed:undname.obj
 0002:0002c040       ??$?0_K@?$_Optional_destruct_base@_K$00@std@@QEAA@Uin_place_t@1@$$QEA_K@Z 00000001800a9040 f i libvcruntimed:undname.obj
 0002:0002c090       ??$append@VDNameNode@@@DName@@AEAAXPEBVDNameNode@@@Z 00000001800a9090 f i libvcruntimed:undname.obj
 0002:0002c170       ??$append@VDNameStatusNode@@@DName@@AEAAXPEBVDNameStatusNode@@@Z 00000001800a9170 f i libvcruntimed:undname.obj
 0002:0002c250       ??$append@VcharNode@@@DName@@AEAAXPEBVcharNode@@@Z 00000001800a9250 f i libvcruntimed:undname.obj
 0002:0002c330       ??$append@VpDNameNode@@@DName@@AEAAXPEBVpDNameNode@@@Z 00000001800a9330 f i libvcruntimed:undname.obj
 0002:0002c410       ??$append@VpcharNode@@@DName@@AEAAXPEBVpcharNode@@@Z 00000001800a9410 f i libvcruntimed:undname.obj
 0002:0002c4f0       ??$doPchar@$00@DName@@AEAAXPEBDH@Z 00000001800a94f0 f i libvcruntimed:undname.obj
 0002:0002c6b0       ??$doPchar@$01@DName@@AEAAXPEBDH@Z 00000001800a96b0 f i libvcruntimed:undname.obj
 0002:0002c870       ??$doPchar@$0A@@DName@@AEAAXPEBDH@Z 00000001800a9870 f i libvcruntimed:undname.obj
 0002:0002ca30       ??$forward@_K@std@@YA$$QEA_KAEA_K@Z 00000001800a9a30 f i libvcruntimed:undname.obj
 0002:0002ca40       ??$size@D$04@std@@YA_KAEAY04$$CBD@Z 00000001800a9a40 f i libvcruntimed:undname.obj
 0002:0002ca50       ??$size@D$0EB@@std@@YA_KAEAY0EB@$$CBD@Z 00000001800a9a50 f i libvcruntimed:undname.obj
 0002:0002ca60       ??0?$_Optional_construct_base@_K@std@@QEAA@XZ 00000001800a9a60 f i libvcruntimed:undname.obj
 0002:0002ca90       ??0?$_Optional_destruct_base@_K$00@std@@QEAA@XZ 00000001800a9a90 f i libvcruntimed:undname.obj
 0002:0002cad0       ??0?$optional@_K@std@@QEAA@XZ 00000001800a9ad0 f i libvcruntimed:undname.obj
 0002:0002cb00       ??0Block@_HeapManager@@QEAA@XZ 00000001800a9b00 f i libvcruntimed:undname.obj
 0002:0002cb20       ??0DName@@QEAA@AEAPEBDD@Z  00000001800a9b20 f   libvcruntimed:undname.obj
 0002:0002cd60       ??0DName@@QEAA@AEBUStringLiteral@@@Z 00000001800a9d60 f   libvcruntimed:undname.obj
 0002:0002cdd0       ??0DName@@QEAA@AEBV0@@Z    00000001800a9dd0 f i libvcruntimed:undname.obj
 0002:0002ce10       ??0DName@@QEAA@D@Z         00000001800a9e10 f   libvcruntimed:undname.obj
 0002:0002ce60       ??0DName@@QEAA@PEAV0@@Z    00000001800a9e60 f   libvcruntimed:undname.obj
 0002:0002cf80       ??0DName@@QEAA@W4DNameStatus@@@Z 00000001800a9f80 f   libvcruntimed:undname.obj
 0002:0002d060       ??0DName@@QEAA@XZ          00000001800aa060 f i libvcruntimed:undname.obj
 0002:0002d090       ??0DName@@QEAA@_J@Z        00000001800aa090 f   libvcruntimed:undname.obj
 0002:0002d1e0       ??0DName@@QEAA@_K@Z        00000001800aa1e0 f   libvcruntimed:undname.obj
 0002:0002d2f0       ??0DNameNode@@IEAA@XZ      00000001800aa2f0 f i libvcruntimed:undname.obj
 0002:0002d310       ??0Replicator@@QEAA@XZ     00000001800aa310 f i libvcruntimed:undname.obj
 0002:0002d350       ??0UnDecorator@@QEAA@PEBDP6APEADJ@ZK@Z 00000001800aa350 f i libvcruntimed:undname.obj
 0002:0002d420       ??0_Nontrivial_dummy_type@std@@QEAA@XZ 00000001800aa420 f i libvcruntimed:undname.obj
 0002:0002d430       ??0charNode@@QEAA@D@Z      00000001800aa430 f i libvcruntimed:undname.obj
 0002:0002d480       ??0pDNameNode@@QEAA@PEAVDName@@@Z 00000001800aa480 f   libvcruntimed:undname.obj
 0002:0002d520       ??0pairNode@@QEAA@PEBVDNameNode@@0@Z 00000001800aa520 f i libvcruntimed:undname.obj
 0002:0002d5c0       ??2@YAPEAX_KAEAV_HeapManager@@H@Z 00000001800aa5c0 f   libvcruntimed:undname.obj
 0002:0002d640       ??4DName@@QEAAAEAV0@AEBUStringLiteral@@@Z 00000001800aa640 f   libvcruntimed:undname.obj
 0002:0002d6a0       ??4DName@@QEAAAEAV0@AEBV0@@Z 00000001800aa6a0 f   libvcruntimed:undname.obj
 0002:0002d6e0       ??4DName@@QEAAAEAV0@D@Z    00000001800aa6e0 f i libvcruntimed:undname.obj
 0002:0002d730       ??4DName@@QEAAAEAV0@PEAV0@@Z 00000001800aa730 f   libvcruntimed:undname.obj
 0002:0002d830       ??4DName@@QEAAAEAV0@W4DNameStatus@@@Z 00000001800aa830 f   libvcruntimed:undname.obj
 0002:0002d8f0       ??AReplicator@@QEBA?AVDName@@H@Z 00000001800aa8f0 f   libvcruntimed:undname.obj
 0002:0002d9a0       ??B?$optional@_K@std@@QEBA_NXZ 00000001800aa9a0 f i libvcruntimed:undname.obj
 0002:0002d9c0       ??D?$optional@_K@std@@QEGAAAEA_KXZ 00000001800aa9c0 f i libvcruntimed:undname.obj
 0002:0002da80       ??H@YA?AVDName@@AEBUStringLiteral@@AEBV0@@Z 00000001800aaa80 f i libvcruntimed:undname.obj
 0002:0002dae0       ??H@YA?AVDName@@DAEBV0@@Z  00000001800aaae0 f i libvcruntimed:undname.obj
 0002:0002db40       ??H@YA?AVDName@@W4DNameStatus@@AEBV0@@Z 00000001800aab40 f i libvcruntimed:undname.obj
 0002:0002dba0       ??HDName@@QEBA?AV0@AEBUStringLiteral@@@Z 00000001800aaba0 f   libvcruntimed:undname.obj
 0002:0002dc00       ??HDName@@QEBA?AV0@AEBV0@@Z 00000001800aac00 f   libvcruntimed:undname.obj
 0002:0002dc60       ??HDName@@QEBA?AV0@D@Z     00000001800aac60 f   libvcruntimed:undname.obj
 0002:0002dcc0       ??HDName@@QEBA?AV0@PEAV0@@Z 00000001800aacc0 f   libvcruntimed:undname.obj
 0002:0002dd20       ??HDName@@QEBA?AV0@W4DNameStatus@@@Z 00000001800aad20 f   libvcruntimed:undname.obj
 0002:0002dd80       ??HStringLiteral@@QEBA?AU0@H@Z 00000001800aad80 f i libvcruntimed:undname.obj
 0002:0002ddd0       ??YDName@@QEAAAEAV0@AEBUStringLiteral@@@Z 00000001800aadd0 f   libvcruntimed:undname.obj
 0002:0002ded0       ??YDName@@QEAAAEAV0@AEBV0@@Z 00000001800aaed0 f   libvcruntimed:undname.obj
 0002:0002dfc0       ??YDName@@QEAAAEAV0@D@Z    00000001800aafc0 f   libvcruntimed:undname.obj
 0002:0002e090       ??YDName@@QEAAAEAV0@PEAV0@@Z 00000001800ab090 f   libvcruntimed:undname.obj
 0002:0002e1b0       ??YDName@@QEAAAEAV0@W4DNameStatus@@@Z 00000001800ab1b0 f   libvcruntimed:undname.obj
 0002:0002e240       ??YReplicator@@QEAAAEAV0@AEBVDName@@@Z 00000001800ab240 f   libvcruntimed:undname.obj
 0002:0002e330       ??_5DName@@QEAAAEAV0@AEBV0@@Z 00000001800ab330 f   libvcruntimed:undname.obj
 0002:0002e3b0       ??__K_l@@YA?AUStringLiteral@@PEBD_K@Z 00000001800ab3b0 f i libvcruntimed:undname.obj
 0002:0002e410       ?Constructor@_HeapManager@@QEAAXP6APEAX_K@ZP6AXPEAX@Z@Z 00000001800ab410 f i libvcruntimed:undname.obj
 0002:0002e480       ?Destructor@_HeapManager@@QEAAXXZ 00000001800ab480 f i libvcruntimed:undname.obj
 0002:0002e540       ?UScore@UnDecorator@@SA?AUStringLiteral@@W4Tokens@@@Z 00000001800ab540 f   libvcruntimed:undname.obj
 0002:0002e5f0       ?composeDeclaration@UnDecorator@@CA?AVDName@@AEBV2@@Z 00000001800ab5f0 f i libvcruntimed:undname.obj
 0002:00031430       ?dbGetString@DName@@QEBAPEADXZ 00000001800ae430 f   libvcruntimed:undname.obj
 0002:00031470       ?doAccessSpecifiers@UnDecorator@@SAHXZ 00000001800ae470 f i libvcruntimed:undname.obj
 0002:000314b0       ?doAllocationLanguage@UnDecorator@@SAHXZ 00000001800ae4b0 f i libvcruntimed:undname.obj
 0002:000314f0       ?doAllocationModel@UnDecorator@@SAHXZ 00000001800ae4f0 f i libvcruntimed:undname.obj
 0002:00031530       ?doEcsu@UnDecorator@@SAHXZ 00000001800ae530 f i libvcruntimed:undname.obj
 0002:00031570       ?doEllipsis@UnDecorator@@SAHXZ 00000001800ae570 f i libvcruntimed:undname.obj
 0002:000315b0       ?doFunctionReturns@UnDecorator@@SAHXZ 00000001800ae5b0 f i libvcruntimed:undname.obj
 0002:000315f0       ?doMSKeywords@UnDecorator@@SAHXZ 00000001800ae5f0 f i libvcruntimed:undname.obj
 0002:00031630       ?doMemberTypes@UnDecorator@@SAHXZ 00000001800ae630 f i libvcruntimed:undname.obj
 0002:00031670       ?doNameOnly@UnDecorator@@SAHXZ 00000001800ae670 f i libvcruntimed:undname.obj
 0002:00031680       ?doNoIdentCharCheck@UnDecorator@@SAHXZ 00000001800ae680 f i libvcruntimed:undname.obj
 0002:00031690       ?doPchar@DName@@AEAAXD@Z   00000001800ae690 f   libvcruntimed:undname.obj
 0002:00031740       ?doPtr64@UnDecorator@@SAHXZ 00000001800ae740 f i libvcruntimed:undname.obj
 0002:00031780       ?doRestrictionSpec@UnDecorator@@SAHXZ 00000001800ae780 f i libvcruntimed:undname.obj
 0002:000317c0       ?doThisTypes@UnDecorator@@SAHXZ 00000001800ae7c0 f i libvcruntimed:undname.obj
 0002:00031800       ?doThrowTypes@UnDecorator@@SAHXZ 00000001800ae800 f i libvcruntimed:undname.obj
 0002:00031840       ?doTypeOnly@UnDecorator@@SAHXZ 00000001800ae840 f i libvcruntimed:undname.obj
 0002:00031850       ?doUnderScore@UnDecorator@@SAHXZ 00000001800ae850 f i libvcruntimed:undname.obj
 0002:00031890       ?getAddressOf@UnDecorator@@CA?AVDName@@XZ 00000001800ae890 f   libvcruntimed:undname.obj
 0002:00031960       ?getArgumentList@UnDecorator@@CA?AVDName@@XZ 00000001800ae960 f   libvcruntimed:undname.obj
 0002:00031b60       ?getArgumentTypes@UnDecorator@@CA?AVDName@@XZ 00000001800aeb60 f   libvcruntimed:undname.obj
 0002:00031f90       ?getArrayAccess@UnDecorator@@CA?AVDName@@XZ 00000001800aef90 f   libvcruntimed:undname.obj
 0002:00032080       ?getArrayObject@UnDecorator@@CA?AVDName@@XZ 00000001800af080 f   libvcruntimed:undname.obj
 0002:000321e0       ?getArrayType@UnDecorator@@CA?AVDName@@AEBV2@@Z 00000001800af1e0 f i libvcruntimed:undname.obj
 0002:00032690       ?getBasedType@UnDecorator@@CA?AVDName@@XZ 00000001800af690 f   libvcruntimed:undname.obj
 0002:00032860       ?getBasicDataType@UnDecorator@@CA?AVDName@@AEBV2@@Z 00000001800af860 f   libvcruntimed:undname.obj
 0002:00033960       ?getCHPEName@UnDecorator@@QEAAPEADPEADH@Z 00000001800b0960 f i libvcruntimed:undname.obj
 0002:00033ba0       ?getCallIndex@UnDecorator@@CA?AVDName@@XZ 00000001800b0ba0 f i libvcruntimed:undname.obj
 0002:00033bd0       ?getCallingConvention@UnDecorator@@CA?AVDName@@XZ 00000001800b0bd0 f   libvcruntimed:undname.obj
 0002:00034060       ?getDataIndirectType@UnDecorator@@CA?AVDName@@AEBV2@W4IndirectionKind@@0H@Z 00000001800b1060 f   libvcruntimed:undname.obj
 0002:00035020       ?getDataIndirectType@UnDecorator@@CA?AVDName@@XZ 00000001800b2020 f i libvcruntimed:undname.obj
 0002:00035090       ?getDataType@UnDecorator@@CA?AVDName@@PEAV2@@Z 00000001800b2090 f   libvcruntimed:undname.obj
 0002:000352e0       ?getDecoratedName@UnDecorator@@CA?AVDName@@XZ 00000001800b22e0 f   libvcruntimed:undname.obj
 0002:00035910       ?getDimension@UnDecorator@@CA?AVDName@@_N@Z 00000001800b2910 f   libvcruntimed:undname.obj
 0002:00035ce0       ?getDispatchTarget@UnDecorator@@CA?AVDName@@XZ 00000001800b2ce0 f   libvcruntimed:undname.obj
 0002:00035de0       ?getDisplacement@UnDecorator@@CA?AVDName@@XZ 00000001800b2de0 f i libvcruntimed:undname.obj
 0002:00035e10       ?getECSUDataType@UnDecorator@@CA?AVDName@@XZ 00000001800b2e10 f   libvcruntimed:undname.obj
 0002:00036290       ?getECSUName@UnDecorator@@CA?AVDName@@XZ 00000001800b3290 f i libvcruntimed:undname.obj
 0002:000362c0       ?getEnumType@UnDecorator@@CA?AVDName@@XZ 00000001800b32c0 f i libvcruntimed:undname.obj
 0002:000365f0       ?getExtendedDataIndirectType@UnDecorator@@CA?AVDName@@AEAW4IndirectionKind@@AEA_NH@Z 00000001800b35f0 f   libvcruntimed:undname.obj
 0002:000369d0       ?getExternalDataType@UnDecorator@@CA?AVDName@@AEBV2@@Z 00000001800b39d0 f i libvcruntimed:undname.obj
 0002:00036ae0       ?getFloatingPoint@UnDecorator@@CA?AVDName@@H@Z 00000001800b3ae0 f   libvcruntimed:undname.obj
 0002:00036e00       ?getFunctionIndirectType@UnDecorator@@CA?AVDName@@AEBV2@@Z 00000001800b3e00 f   libvcruntimed:undname.obj
 0002:000375c0       ?getGuardNumber@UnDecorator@@CA?AVDName@@XZ 00000001800b45c0 f i libvcruntimed:undname.obj
 0002:000375f0       ?getLastChar@DName@@QEBADXZ 00000001800b45f0 f i libvcruntimed:undname.obj
 0002:00037650       ?getLastChar@DNameStatusNode@@UEBADXZ 00000001800b4650 f i libvcruntimed:undname.obj
 0002:000376a0       ?getLastChar@charNode@@UEBADXZ 00000001800b46a0 f i libvcruntimed:undname.obj
 0002:000376c0       ?getLastChar@pDNameNode@@UEBADXZ 00000001800b46c0 f i libvcruntimed:undname.obj
 0002:00037710       ?getLastChar@pairNode@@UEBADXZ 00000001800b4710 f i libvcruntimed:undname.obj
 0002:000377b0       ?getLastChar@pcharNode@@UEBADXZ 00000001800b47b0 f i libvcruntimed:undname.obj
 0002:00037800       ?getLexicalFrame@UnDecorator@@CA?AVDName@@XZ 00000001800b4800 f i libvcruntimed:undname.obj
 0002:00037860       ?getMemberAccess@UnDecorator@@CA?AVDName@@XZ 00000001800b4860 f   libvcruntimed:undname.obj
 0002:00037940       ?getMemoryWithBuffer@_HeapManager@@QEAAPEAX_K@Z 00000001800b4940 f   libvcruntimed:undname.obj
 0002:00037ae0       ?getMemoryWithoutBuffer@_HeapManager@@QEAAPEAX_K@Z 00000001800b4ae0 f   libvcruntimed:undname.obj
 0002:00037b40       ?getNoexcept@UnDecorator@@CA?AVDName@@XZ 00000001800b4b40 f   libvcruntimed:undname.obj
 0002:00037c20       ?getNumberOfDimensions@UnDecorator@@CAHXZ 00000001800b4c20 f   libvcruntimed:undname.obj
 0002:00037d90       ?getOperatorName@UnDecorator@@CA?AVDName@@_NPEA_N@Z 00000001800b4d90 f i libvcruntimed:undname.obj
 0002:00039170       ?getPointerToMember@UnDecorator@@CA?AVDName@@XZ 00000001800b6170 f   libvcruntimed:undname.obj
 0002:00039310       ?getPointerType@UnDecorator@@CA?AVDName@@AEBV2@0@Z 00000001800b6310 f i libvcruntimed:undname.obj
 0002:00039360       ?getPointerTypeArray@UnDecorator@@CA?AVDName@@AEBV2@0@Z 00000001800b6360 f i libvcruntimed:undname.obj
 0002:000393b0       ?getPrimaryDataType@UnDecorator@@CA?AVDName@@AEBV2@@Z 00000001800b63b0 f   libvcruntimed:undname.obj
 0002:00039b60       ?getPtrRefDataType@UnDecorator@@CA?AVDName@@AEBV2@H@Z 00000001800b6b60 f   libvcruntimed:undname.obj
 0002:0003a050       ?getPtrRefType@UnDecorator@@CA?AVDName@@AEBV2@0W4IndirectionKind@@@Z 00000001800b7050 f   libvcruntimed:undname.obj
 0002:0003a310       ?getReferenceType@UnDecorator@@CA?AVDName@@AEBV2@0W4IndirectionKind@@@Z 00000001800b7310 f i libvcruntimed:undname.obj
 0002:0003a360       ?getRestrictionSpec@UnDecorator@@CA?AVDName@@XZ 00000001800b7360 f   libvcruntimed:undname.obj
 0002:0003a690       ?getReturnType@UnDecorator@@CA?AVDName@@PEAV2@@Z 00000001800b7690 f   libvcruntimed:undname.obj
 0002:0003a710       ?getScope@UnDecorator@@CA?AVDName@@XZ 00000001800b7710 f   libvcruntimed:undname.obj
 0002:0003b040       ?getScopedName@UnDecorator@@CA?AVDName@@XZ 00000001800b8040 f   libvcruntimed:undname.obj
 0002:0003b2c0       ?getSignedDimension@UnDecorator@@CA?AVDName@@XZ 00000001800b82c0 f   libvcruntimed:undname.obj
 0002:0003b370       ?getStorageConvention@UnDecorator@@CA?AVDName@@XZ 00000001800b8370 f i libvcruntimed:undname.obj
 0002:0003b3a0       ?getString@DName@@QEBAPEADPEAD0@Z 00000001800b83a0 f i libvcruntimed:undname.obj
 0002:0003b430       ?getString@DName@@QEBAPEADPEADH@Z 00000001800b8430 f i libvcruntimed:undname.obj
 0002:0003b510       ?getString@DNameStatusNode@@UEBAPEADPEAD0@Z 00000001800b8510 f i libvcruntimed:undname.obj
 0002:0003b570       ?getString@charNode@@UEBAPEADPEAD0@Z 00000001800b8570 f i libvcruntimed:undname.obj
 0002:0003b5c0       ?getString@pDNameNode@@UEBAPEADPEAD0@Z 00000001800b85c0 f i libvcruntimed:undname.obj
 0002:0003b640       ?getString@pairNode@@UEBAPEADPEAD0@Z 00000001800b8640 f i libvcruntimed:undname.obj
 0002:0003b740       ?getString@pcharNode@@UEBAPEADPEAD0@Z 00000001800b8740 f i libvcruntimed:undname.obj
 0002:0003b790       ?getStringEncoding@UnDecorator@@CA?AVDName@@W4PrefixKind@@H@Z 00000001800b8790 f   libvcruntimed:undname.obj
 0002:0003b940       ?getStringHelper@@YAPEADPEADPEBD1H@Z 00000001800b8940 f i libvcruntimed:undname.obj
 0002:0003b9c0       ?getStringObject@UnDecorator@@CA?AVDName@@XZ 00000001800b89c0 f   libvcruntimed:undname.obj
 0002:0003bad0       ?getSymbolName@UnDecorator@@CA?AVDName@@XZ 00000001800b8ad0 f i libvcruntimed:undname.obj
 0002:0003bb90       ?getTemplateArgumentList@UnDecorator@@CA?AVDName@@XZ 00000001800b8b90 f   libvcruntimed:undname.obj
 0002:0003bfa0       ?getTemplateName@UnDecorator@@CA?AVDName@@_N@Z 00000001800b8fa0 f   libvcruntimed:undname.obj
 0002:0003c260       ?getTemplateNonTypeArgument@UnDecorator@@CA?AVDName@@XZ 00000001800b9260 f   libvcruntimed:undname.obj
 0002:0003cca0       ?getTemplateTypeArgument@UnDecorator@@CA?AVDName@@XZ 00000001800b9ca0 f   libvcruntimed:undname.obj
 0002:0003cfb0       ?getThisType@UnDecorator@@CA?AVDName@@XZ 00000001800b9fb0 f i libvcruntimed:undname.obj
 0002:0003d020       ?getThrowTypes@UnDecorator@@CA?AVDName@@XZ 00000001800ba020 f   libvcruntimed:undname.obj
 0002:0003d090       ?getTypeEncoding@UnDecorator@@CAHXZ 00000001800ba090 f i libvcruntimed:undname.obj
 0002:0003e000       ?getUndecoratedName@UnDecorator@@QEAAPEADPEADH@Z 00000001800bb000 f i libvcruntimed:undname.obj
 0002:0003e270       ?getUnionObject@UnDecorator@@CA?AVDName@@XZ 00000001800bb270 f   libvcruntimed:undname.obj
 0002:0003e3c0       ?getVCallThunkType@UnDecorator@@CA?AVDName@@XZ 00000001800bb3c0 f i libvcruntimed:undname.obj
 0002:0003e4a0       ?getValue@UnDecorator@@CA?AV?$optional@_K@std@@XZ 00000001800bb4a0 f   libvcruntimed:undname.obj
 0002:0003e5a0       ?getValueObject@UnDecorator@@CA?AVDName@@XZ 00000001800bb5a0 f   libvcruntimed:undname.obj
 0002:0003e840       ?getVbTableType@UnDecorator@@CA?AVDName@@AEBV2@@Z 00000001800bb840 f i libvcruntimed:undname.obj
 0002:0003e870       ?getVdispMapType@UnDecorator@@CA?AVDName@@AEBV2@@Z 00000001800bb870 f i libvcruntimed:undname.obj
 0002:0003e960       ?getVfTableType@UnDecorator@@CA?AVDName@@AEBV2@@Z 00000001800bb960 f i libvcruntimed:undname.obj
 0002:0003ecb0       ?getZName@UnDecorator@@CA?AVDName@@_N0@Z 00000001800bbcb0 f   libvcruntimed:undname.obj
 0002:0003f260       ?haveTemplateParameters@UnDecorator@@SAHXZ 00000001800bc260 f i libvcruntimed:undname.obj
 0002:0003f270       ?isArray@DName@@QEBAHXZ    00000001800bc270 f i libvcruntimed:undname.obj
 0002:0003f290       ?isComArray@DName@@QEBAHXZ 00000001800bc290 f i libvcruntimed:undname.obj
 0002:0003f2b0       ?isEmpty@DName@@QEBAHXZ    00000001800bc2b0 f i libvcruntimed:undname.obj
 0002:0003f2f0       ?isFull@Replicator@@QEBAHXZ 00000001800bc2f0 f i libvcruntimed:undname.obj
 0002:0003f330       ?isNoTE@DName@@QEBAHXZ     00000001800bc330 f i libvcruntimed:undname.obj
 0002:0003f350       ?isPinPtr@DName@@QEBAHXZ   00000001800bc350 f i libvcruntimed:undname.obj
 0002:0003f370       ?isPtrRef@DName@@QEBAHXZ   00000001800bc370 f i libvcruntimed:undname.obj
 0002:0003f390       ?isUDC@DName@@QEBAHXZ      00000001800bc390 f i libvcruntimed:undname.obj
 0002:0003f3f0       ?isUDTThunk@DName@@QEBAHXZ 00000001800bc3f0 f i libvcruntimed:undname.obj
 0002:0003f450       ?isVCallThunk@DName@@QEBAHXZ 00000001800bc450 f i libvcruntimed:undname.obj
 0002:0003f470       ?isValid@DName@@QEBAHXZ    00000001800bc470 f i libvcruntimed:undname.obj
 0002:0003f4c0       ?length@DName@@QEBAHXZ     00000001800bc4c0 f i libvcruntimed:undname.obj
 0002:0003f520       ?length@DNameStatusNode@@UEBAHXZ 00000001800bc520 f i libvcruntimed:undname.obj
 0002:0003f540       ?length@charNode@@UEBAHXZ  00000001800bc540 f i libvcruntimed:undname.obj
 0002:0003f550       ?length@pDNameNode@@UEBAHXZ 00000001800bc550 f i libvcruntimed:undname.obj
 0002:0003f5a0       ?length@pairNode@@UEBAHXZ  00000001800bc5a0 f i libvcruntimed:undname.obj
 0002:0003f650       ?length@pcharNode@@UEBAHXZ 00000001800bc650 f i libvcruntimed:undname.obj
 0002:0003f670       ?make@DNameStatusNode@@SAPEBV1@W4DNameStatus@@@Z 00000001800bc670 f i libvcruntimed:undname.obj
 0002:0003f6d0       ?parseDecoratedName@UnDecorator@@CA?AVDName@@XZ 00000001800bc6d0 f   libvcruntimed:undname.obj
 0002:0003f940       ?raw_length@DNameStatusNode@@UEBAHXZ 00000001800bc940 f i libvcruntimed:undname.obj
 0002:0003f960       ?raw_length@charNode@@UEBAHXZ 00000001800bc960 f i libvcruntimed:undname.obj
 0002:0003f980       ?raw_length@pDNameNode@@UEBAHXZ 00000001800bc980 f i libvcruntimed:undname.obj
 0002:0003f990       ?raw_length@pairNode@@UEBAHXZ 00000001800bc990 f i libvcruntimed:undname.obj
 0002:0003f9b0       ?raw_length@pcharNode@@UEBAHXZ 00000001800bc9b0 f i libvcruntimed:undname.obj
 0002:0003f9d0       ?setIsArray@DName@@QEAAXXZ 00000001800bc9d0 f i libvcruntimed:undname.obj
 0002:0003f9f0       ?setIsComArray@DName@@QEAAXXZ 00000001800bc9f0 f i libvcruntimed:undname.obj
 0002:0003fa10       ?setIsNoTE@DName@@QEAAXXZ  00000001800bca10 f i libvcruntimed:undname.obj
 0002:0003fa30       ?setIsPinPtr@DName@@QEAAXXZ 00000001800bca30 f i libvcruntimed:undname.obj
 0002:0003fa50       ?setIsUDC@DName@@QEAAXXZ   00000001800bca50 f i libvcruntimed:undname.obj
 0002:0003fa90       ?setIsVCallThunk@DName@@QEAAXXZ 00000001800bca90 f i libvcruntimed:undname.obj
 0002:0003fab0       ?setPtrRef@DName@@QEAAAEAV1@XZ 00000001800bcab0 f i libvcruntimed:undname.obj
 0002:0003fae0       ?status@DName@@QEBA?AW4DNameStatus@@XZ 00000001800bcae0 f i libvcruntimed:undname.obj
 0002:0003fc50       __unDName                  00000001800bcc50 f   libvcruntimed:undname.obj
 0002:0003fcc0       __unDNameEx                00000001800bccc0 f   libvcruntimed:undname.obj
 0002:0003fdb0       unDNameGenerateCHPE        00000001800bcdb0 f   libvcruntimed:undname.obj
 0002:0003fe80       ??$__crt_interlocked_exchange_pointer@UHINSTANCE__@@PEAU1@@@YAPEAUHINSTANCE__@@PEDSEAU0@QEAU0@@Z 00000001800bce80 f i libvcruntimed:winapi_downlevel.obj
 0002:0003fea0       ??$__crt_interlocked_exchange_pointer@UHINSTANCE__@@PEAX@@YAPEAUHINSTANCE__@@PEDSEAU0@QEAX@Z 00000001800bcea0 f i libvcruntimed:winapi_downlevel.obj
 0002:0003fec0       ??$__crt_interlocked_exchange_pointer@XPEAX@@YAPEAXPEDSEAXQEAX@Z 00000001800bcec0 f i libvcruntimed:winapi_downlevel.obj
 0002:0003fee0       ??$__crt_interlocked_read_pointer@UHINSTANCE__@@@@YAPEAUHINSTANCE__@@PEDSEAU0@@Z 00000001800bcee0 f i libvcruntimed:winapi_downlevel.obj
 0002:0003ff00       ??$__crt_interlocked_read_pointer@X@@YAPEAXPEDSEAX@Z 00000001800bcf00 f i libvcruntimed:winapi_downlevel.obj
 0002:00040560       __vcrt_FlsAlloc            00000001800bd560 f   libvcruntimed:winapi_downlevel.obj
 0002:000405c0       __vcrt_FlsFree             00000001800bd5c0 f   libvcruntimed:winapi_downlevel.obj
 0002:00040630       __vcrt_FlsGetValue         00000001800bd630 f   libvcruntimed:winapi_downlevel.obj
 0002:000406a0       __vcrt_FlsSetValue         00000001800bd6a0 f   libvcruntimed:winapi_downlevel.obj
 0002:00040720       __vcrt_InitializeCriticalSectionEx 00000001800bd720 f   libvcruntimed:winapi_downlevel.obj
 0002:000407b0       _CallSettingFrame          00000001800bd7b0 f   libvcruntimed:handlers.obj
 0002:00040800       _CallSettingFrame_LookupContinuationIndex 00000001800bd800 f   libvcruntimed:handlers.obj
 0002:00040830       _CallSettingFrame_NotifyContinuationAddr 00000001800bd830 f   libvcruntimed:handlers.obj
 0002:00040860       _CallSettingFrameEncoded   00000001800bd860 f   libvcruntimed:handlers.obj
 0002:000408f0       ??$__crt_interlocked_exchange_pointer@$$A6AXXZP6AXXZ@@YAP6AXXZPEDS6AXXZQ6AXXZ@Z 00000001800bd8f0 f i libvcruntimed:purevirt.obj
 0002:00040910       ??$__crt_interlocked_read_pointer@$$A6AXXZ@@YAP6AXXZPEDS6AXXZ@Z 00000001800bd910 f i libvcruntimed:purevirt.obj
 0002:00040930       _get_purecall_handler      00000001800bd930 f   libvcruntimed:purevirt.obj
 0002:00040950       _purecall                  00000001800bd950 f   libvcruntimed:purevirt.obj
 0002:000409a0       _set_purecall_handler      00000001800bd9a0 f   libvcruntimed:purevirt.obj
 0002:000409d0       ??$__crt_fast_decode_pointer@P6AXPEB_W00I_K@Z@@YAP6AXPEB_W00I_K@ZQ6AX000I1@Z@Z 00000001800bd9d0 f i libucrtd:invalid_parameter.obj
 0002:00040a20       ??$__crt_fast_encode_pointer@P6AXPEB_W00I_K@Z@@YAP6AXPEB_W00I_K@ZQ6AX000I1@Z@Z 00000001800bda20 f i libucrtd:invalid_parameter.obj
 0002:00040a70       ??$initialize_from_array@$$BY00Q6AXPEB_W00I_K@Z@?$dual_state_global@P6AXPEB_W00I_K@Z@__crt_state_management@@QEAAXAEAY00Q6AXPEB_W00I_K@Z@Z 00000001800bda70 f i libucrtd:invalid_parameter.obj
 0002:00040af0       ??0?$cached@H@__crt_cached_ptd_host@@QEAA@XZ 00000001800bdaf0 f i libucrtd:invalid_parameter.obj
 0002:00040b10       ??0?$cached@K@__crt_cached_ptd_host@@QEAA@XZ 00000001800bdb10 f i libucrtd:invalid_parameter.obj
 0002:00040b30       ??0__crt_cached_ptd_host@@QEAA@QEAU__crt_locale_pointers@@@Z 00000001800bdb30 f i libucrtd:invalid_parameter.obj
 0002:00040c10       ??0__crt_scoped_get_last_error_reset@@QEAA@XZ 00000001800bdc10 f i libucrtd:invalid_parameter.obj
 0002:00040c40       ??1__crt_cached_ptd_host@@QEAA@XZ 00000001800bdc40 f i libucrtd:invalid_parameter.obj
 0002:00040d10       ??1__crt_scoped_get_last_error_reset@@QEAA@XZ 00000001800bdd10 f i libucrtd:invalid_parameter.obj
 0002:00040d40       ?__crt_rotate_pointer_value@@YA_K_KH@Z 00000001800bdd40 f i libucrtd:invalid_parameter.obj
 0002:00040e20       ?check_synchronize_global_state_index@__crt_cached_ptd_host@@AEAA_KAEBV__crt_scoped_get_last_error_reset@@@Z 00000001800bde20 f i libucrtd:invalid_parameter.obj
 0002:00040e70       ?check_synchronize_global_state_index@__crt_cached_ptd_host@@AEAA_KXZ 00000001800bde70 f i libucrtd:invalid_parameter.obj
 0002:00040ee0       ?check_synchronize_per_thread_data@__crt_cached_ptd_host@@AEAAPEAU__acrt_ptd@@XZ 00000001800bdee0 f i libucrtd:invalid_parameter.obj
 0002:00040f30       ?dangerous_get_state_array@?$dual_state_global@P6AXPEB_W00I_K@Z@__crt_state_management@@QEAAPEAP6AXPEB_W00I_K@ZXZ 00000001800bdf30 f i libucrtd:invalid_parameter.obj
 0002:00040f40       ?force_synchronize_global_state_index@__crt_cached_ptd_host@@AEAA_KAEBV__crt_scoped_get_last_error_reset@@@Z 00000001800bdf40 f i libucrtd:invalid_parameter.obj
 0002:00040f90       ?force_synchronize_per_thread_data@__crt_cached_ptd_host@@AEAAPEAU__acrt_ptd@@XZ 00000001800bdf90 f i libucrtd:invalid_parameter.obj
 0002:00041010       ?get_current_global_state_index@__crt_cached_ptd_host@@QEAA_KXZ 00000001800be010 f i libucrtd:invalid_parameter.obj
 0002:00041030       ?get_current_state_index@__crt_state_management@@YA_KAEBV__crt_scoped_get_last_error_reset@@@Z 00000001800be030 f i libucrtd:invalid_parameter.obj
 0002:00041040       ?get_current_state_index@__crt_state_management@@YA_KXZ 00000001800be040 f i libucrtd:invalid_parameter.obj
 0002:00041050       ?get_raw_ptd@__crt_cached_ptd_host@@QEAAPEAU__acrt_ptd@@XZ 00000001800be050 f i libucrtd:invalid_parameter.obj
 0002:00041070       ?get_raw_ptd_noexit@__crt_cached_ptd_host@@QEAAPEAU__acrt_ptd@@XZ 00000001800be070 f i libucrtd:invalid_parameter.obj
 0002:00041090       ?try_synchronize_per_thread_data@__crt_cached_ptd_host@@AEAAPEAU__acrt_ptd@@XZ 00000001800be090 f i libucrtd:invalid_parameter.obj
 0002:000410d0       ?unsafe_value@?$cached@H@__crt_cached_ptd_host@@QEAAHXZ 00000001800be0d0 f i libucrtd:invalid_parameter.obj
 0002:000410e0       ?unsafe_value@?$cached@K@__crt_cached_ptd_host@@QEAAKXZ 00000001800be0e0 f i libucrtd:invalid_parameter.obj
 0002:000410f0       ?valid@?$cached@H@__crt_cached_ptd_host@@QEBA_NXZ 00000001800be0f0 f i libucrtd:invalid_parameter.obj
 0002:00041110       ?valid@?$cached@K@__crt_cached_ptd_host@@QEBA_NXZ 00000001800be110 f i libucrtd:invalid_parameter.obj
 0002:00041130       ?value@?$dual_state_global@P6AXPEB_W00I_K@Z@__crt_state_management@@QEAAAEAP6AXPEB_W00I_K@ZAEAV__crt_cached_ptd_host@@@Z 00000001800be130 f i libucrtd:invalid_parameter.obj
 0002:00041160       ?value@?$dual_state_global@P6AXPEB_W00I_K@Z@__crt_state_management@@QEAAAEAP6AXPEB_W00I_K@ZXZ 00000001800be160 f i libucrtd:invalid_parameter.obj
 0002:00041190       __acrt_call_reportfault    00000001800be190 f   libucrtd:invalid_parameter.obj
 0002:00041310       __acrt_enable_global_locale_sync 00000001800be310 f i libucrtd:invalid_parameter.obj
 0002:00041350       __acrt_initialize_invalid_parameter_handler 00000001800be350 f   libucrtd:invalid_parameter.obj
 0002:00041390       __acrt_locale_changed      00000001800be390 f i libucrtd:invalid_parameter.obj
 0002:000413c0       _get_invalid_parameter_handler 00000001800be3c0 f   libucrtd:invalid_parameter.obj
 0002:000413f0       _get_thread_local_invalid_parameter_handler 00000001800be3f0 f   libucrtd:invalid_parameter.obj
 0002:00041430       _invalid_parameter         00000001800be430 f   libucrtd:invalid_parameter.obj
 0002:000414c0       _invalid_parameter_internal 00000001800be4c0 f   libucrtd:invalid_parameter.obj
 0002:00041660       _invalid_parameter_noinfo  00000001800be660 f   libucrtd:invalid_parameter.obj
 0002:00041690       _invalid_parameter_noinfo_noreturn 00000001800be690 f   libucrtd:invalid_parameter.obj
 0002:000416e0       _invoke_watson             00000001800be6e0 f   libucrtd:invalid_parameter.obj
 0002:00041760       _set_invalid_parameter_handler 00000001800be760 f   libucrtd:invalid_parameter.obj
 0002:000417d0       _set_thread_local_invalid_parameter_handler 00000001800be7d0 f   libucrtd:invalid_parameter.obj
 0002:00041820       ??$__crt_interlocked_read@J@@YAJPEDJ@Z 00000001800be820 f i libucrtd:fclose.obj
 0002:00041840       ??0__crt_stdio_stream@@QEAA@QEAU_iobuf@@@Z 00000001800be840 f i libucrtd:fclose.obj
 0002:00041870       ??C__crt_stdio_stream@@QEBAPEAU__crt_stdio_stream_data@@XZ 00000001800be870 f i libucrtd:fclose.obj
 0002:00041890       ?__crt_interlocked_read_32@@YAHPEDH@Z 00000001800be890 f i libucrtd:fclose.obj
 0002:00041ca0       ?get_errno@__crt_cached_ptd_host@@QEAA@XZ 00000001800beca0 f i libucrtd:fclose.obj
 0002:00041cc0       ?get_flags@__crt_stdio_stream@@QEBAJXZ 00000001800becc0 f i libucrtd:fclose.obj
 0002:00041cf0       ?is_in_use@__crt_stdio_stream@@QEBA_NXZ 00000001800becf0 f i libucrtd:fclose.obj
 0002:00041d40       ?is_string_backed@__crt_stdio_stream@@QEBA_NXZ 00000001800bed40 f i libucrtd:fclose.obj
 0002:00041d90       ?public_stream@__crt_stdio_stream@@QEBAPEAU_iobuf@@XZ 00000001800bed90 f i libucrtd:fclose.obj
 0002:00041db0       ?set@?$cached@H@__crt_cached_ptd_host@@QEAAHH@Z 00000001800bedb0 f i libucrtd:fclose.obj
 0002:00041de0       ?valid@__crt_stdio_stream@@QEBA_NXZ 00000001800bede0 f i libucrtd:fclose.obj
 0002:00041e20       _fclose_nolock             00000001800bee20 f   libucrtd:fclose.obj
 0002:00041e70       fclose                     00000001800bee70 f   libucrtd:fclose.obj
 0002:000427e0       ??$open_file@AEBQEBDAEBQEBDAEBHPEAU_iobuf@@@?$__crt_char_traits@D@@SAPEAU_iobuf@@AEBQEBD0AEBH$$QEAPEAU1@@Z 00000001800bf7e0 f i libucrtd:fopen.obj
 0002:00042840       ??$open_file@AEBQEB_WAEBQEB_WAEBHPEAU_iobuf@@@?$__crt_char_traits@_W@@SAPEAU_iobuf@@AEBQEB_W0AEBH$$QEAPEAU1@@Z 00000001800bf840 f i libucrtd:fopen.obj
 0002:000428a0       ?unlock@__crt_stdio_stream@@QEBAXXZ 00000001800bf8a0 f i libucrtd:fopen.obj
 0002:000428d0       _fsopen                    00000001800bf8d0 f   libucrtd:fopen.obj
 0002:00042910       _wfopen                    00000001800bf910 f   libucrtd:fopen.obj
 0002:00042950       _wfopen_s                  00000001800bf950 f   libucrtd:fopen.obj
 0002:00042990       _wfsopen                   00000001800bf990 f   libucrtd:fopen.obj
 0002:000429d0       fopen                      00000001800bf9d0 f   libucrtd:fopen.obj
 0002:00042a10       fopen_s                    00000001800bfa10 f   libucrtd:fopen.obj
 0002:00042a50       ?__acrt_stdio_reset_buffer@@YAXV__crt_stdio_stream@@@Z 00000001800bfa50 f i libucrtd:fread.obj
 0002:00042ab0       ?has_any_buffer@__crt_stdio_stream@@QEBA_NXZ 00000001800bfab0 f i libucrtd:fread.obj
 0002:00042ae0       ?has_any_of@__crt_stdio_stream@@QEBA_NJ@Z 00000001800bfae0 f i libucrtd:fread.obj
 0002:00042b30       ?set_flags@__crt_stdio_stream@@QEBA_NJ@Z 00000001800bfb30 f i libucrtd:fread.obj
 0002:00042bb0       _fread_nolock              00000001800bfbb0 f   libucrtd:fread.obj
 0002:00042c10       _fread_nolock_s            00000001800bfc10 f   libucrtd:fread.obj
 0002:00043830       fread                      00000001800c0830 f   libucrtd:fread.obj
 0002:00043890       fread_s                    00000001800c0890 f   libucrtd:fread.obj
 0002:00043bc0       ?LongLongSub@@YAJ_J0PEA_J@Z 00000001800c0bc0 f i libucrtd:fseek.obj
 0002:00044470       ?has_all_of@__crt_stdio_stream@@QEBA_NJ@Z 00000001800c1470 f i libucrtd:fseek.obj
 0002:000444c0       ?lowio_handle@__crt_stdio_stream@@QEBAHXZ 00000001800c14c0 f i libucrtd:fseek.obj
 0002:000444f0       ?unset_flags@__crt_stdio_stream@@QEBA_NJ@Z 00000001800c14f0 f i libucrtd:fseek.obj
 0002:00044560       _fseek_nolock              00000001800c1560 f   libucrtd:fseek.obj
 0002:00044600       _fseeki64                  00000001800c1600 f   libucrtd:fseek.obj
 0002:00044680       _fseeki64_nolock           00000001800c1680 f   libucrtd:fseek.obj
 0002:00044700       fseek                      00000001800c1700 f   libucrtd:fseek.obj
 0002:00045a00       ?ctrl_z@__crt_stdio_stream@@QEBA_NXZ 00000001800c2a00 f i libucrtd:ftell.obj
 0002:00045a30       ?has_big_buffer@__crt_stdio_stream@@QEBA_NXZ 00000001800c2a30 f i libucrtd:ftell.obj
 0002:00045a60       ?has_crt_buffer@__crt_stdio_stream@@QEBA_NXZ 00000001800c2a60 f i libucrtd:ftell.obj
 0002:00045a90       ?has_setvbuf_buffer@__crt_stdio_stream@@QEBA_NXZ 00000001800c2a90 f i libucrtd:ftell.obj
 0002:00045ac0       _ftell_nolock              00000001800c2ac0 f   libucrtd:ftell.obj
 0002:00045b20       _ftelli64                  00000001800c2b20 f   libucrtd:ftell.obj
 0002:00045b80       _ftelli64_nolock           00000001800c2b80 f   libucrtd:ftell.obj
 0002:00045be0       _ftelli64_nolock_internal  00000001800c2be0 f   libucrtd:ftell.obj
 0002:00045c20       _utf8_no_of_trailbytes     00000001800c2c20 f i libucrtd:ftell.obj
 0002:00045c40       ftell                      00000001800c2c40 f   libucrtd:ftell.obj
 0002:00045ca0       ??$?RU?$__crt_report_hook_node@D@@@__crt_internal_free_policy@@QEBAXQEBU?$__crt_report_hook_node@D@@@Z 00000001800c2ca0 f i libucrtd:dbgrpt.obj
 0002:00045cd0       ??$?RU?$__crt_report_hook_node@_W@@@__crt_internal_free_policy@@QEBAXQEBU?$__crt_report_hook_node@_W@@@Z 00000001800c2cd0 f i libucrtd:dbgrpt.obj
 0002:000473f0       ??$get_module_file_name@AEAPEAUHINSTANCE__@@AEAY0BAF@DK@?$__crt_char_traits@D@@SAKAEAPEAUHINSTANCE__@@AEAY0BAF@D$$QEAK@Z 00000001800c43f0 f i libucrtd:dbgrpt.obj
 0002:00047430       ??$get_module_file_name@AEAPEAUHINSTANCE__@@AEAY0BAF@_WK@?$__crt_char_traits@_W@@SAKAEAPEAUHINSTANCE__@@AEAY0BAF@_W$$QEAK@Z 00000001800c4430 f i libucrtd:dbgrpt.obj
 0002:00047470       ??$tcscpy_s@AEAY0BAF@D_KPEBD@?$__crt_char_traits@D@@SAHAEAY0BAF@D$$QEA_K$$QEAPEBD@Z 00000001800c4470 f i libucrtd:dbgrpt.obj
 0002:000474b0       ??$tcscpy_s@AEAY0BAF@_W_KPEB_W@?$__crt_char_traits@_W@@SAHAEAY0BAF@_W$$QEA_K$$QEAPEB_W@Z 00000001800c44b0 f i libucrtd:dbgrpt.obj
 0002:000474f0       ??$tcslen@AEAY0BAF@D@?$__crt_char_traits@D@@SA_KAEAY0BAF@D@Z 00000001800c44f0 f i libucrtd:dbgrpt.obj
 0002:00047510       ??$tcslen@AEAY0BAF@_W@?$__crt_char_traits@_W@@SA_KAEAY0BAF@_W@Z 00000001800c4510 f i libucrtd:dbgrpt.obj
 0002:00047530       ??$tcslen@AEBQEBD@?$__crt_char_traits@D@@SA_KAEBQEBD@Z 00000001800c4530 f i libucrtd:dbgrpt.obj
 0002:00047560       ??$tcslen@AEBQEB_W@?$__crt_char_traits@_W@@SA_KAEBQEB_W@Z 00000001800c4560 f i libucrtd:dbgrpt.obj
 0002:000476d0       ??0?$__crt_unique_heap_ptr@U?$__crt_report_hook_node@D@@U__crt_internal_free_policy@@@@QEAA@QEAU?$__crt_report_hook_node@D@@@Z 00000001800c46d0 f i libucrtd:dbgrpt.obj
 0002:00047700       ??0?$__crt_unique_heap_ptr@U?$__crt_report_hook_node@_W@@U__crt_internal_free_policy@@@@QEAA@QEAU?$__crt_report_hook_node@_W@@@Z 00000001800c4700 f i libucrtd:dbgrpt.obj
 0002:00047730       ??1?$__crt_unique_heap_ptr@U?$__crt_report_hook_node@D@@U__crt_internal_free_policy@@@@QEAA@XZ 00000001800c4730 f i libucrtd:dbgrpt.obj
 0002:00047750       ??1?$__crt_unique_heap_ptr@U?$__crt_report_hook_node@_W@@U__crt_internal_free_policy@@@@QEAA@XZ 00000001800c4750 f i libucrtd:dbgrpt.obj
 0002:00047770       ??B?$__crt_unique_heap_ptr@U?$__crt_report_hook_node@D@@U__crt_internal_free_policy@@@@QEBA_NXZ 00000001800c4770 f i libucrtd:dbgrpt.obj
 0002:00047790       ??B?$__crt_unique_heap_ptr@U?$__crt_report_hook_node@_W@@U__crt_internal_free_policy@@@@QEBA_NXZ 00000001800c4790 f i libucrtd:dbgrpt.obj
 0002:00048030       ?detach@?$__crt_unique_heap_ptr@U?$__crt_report_hook_node@D@@U__crt_internal_free_policy@@@@QEAAPEAU?$__crt_report_hook_node@D@@XZ 00000001800c5030 f i libucrtd:dbgrpt.obj
 0002:00048070       ?detach@?$__crt_unique_heap_ptr@U?$__crt_report_hook_node@_W@@U__crt_internal_free_policy@@@@QEAAPEAU?$__crt_report_hook_node@_W@@XZ 00000001800c5070 f i libucrtd:dbgrpt.obj
 0002:000480b0       ?get@?$__crt_unique_heap_ptr@U?$__crt_report_hook_node@D@@U__crt_internal_free_policy@@@@QEBAPEAU?$__crt_report_hook_node@D@@XZ 00000001800c50b0 f i libucrtd:dbgrpt.obj
 0002:000480d0       ?get@?$__crt_unique_heap_ptr@U?$__crt_report_hook_node@_W@@U__crt_internal_free_policy@@@@QEBAPEAU?$__crt_report_hook_node@_W@@XZ 00000001800c50d0 f i libucrtd:dbgrpt.obj
 0002:00048150       ?is_valid@?$__crt_unique_heap_ptr@U?$__crt_report_hook_node@D@@U__crt_internal_free_policy@@@@QEBA_NXZ 00000001800c5150 f i libucrtd:dbgrpt.obj
 0002:00048190       ?is_valid@?$__crt_unique_heap_ptr@U?$__crt_report_hook_node@_W@@U__crt_internal_free_policy@@@@QEBA_NXZ 00000001800c5190 f i libucrtd:dbgrpt.obj
 0002:000481d0       ?release@?$__crt_unique_heap_ptr@U?$__crt_report_hook_node@D@@U__crt_internal_free_policy@@@@QEAAXXZ 00000001800c51d0 f i libucrtd:dbgrpt.obj
 0002:00048210       ?release@?$__crt_unique_heap_ptr@U?$__crt_report_hook_node@_W@@U__crt_internal_free_policy@@@@QEAAXXZ 00000001800c5210 f i libucrtd:dbgrpt.obj
 0002:00048250       _CrtDbgReport              00000001800c5250 f   libucrtd:dbgrpt.obj
 0002:000482f0       _CrtDbgReportW             00000001800c52f0 f   libucrtd:dbgrpt.obj
 0002:00048390       _CrtSetReportHook2         00000001800c5390 f   libucrtd:dbgrpt.obj
 0002:000483c0       _CrtSetReportHookW2        00000001800c53c0 f   libucrtd:dbgrpt.obj
 0002:000483f0       __acrt_MessageWindowA      00000001800c53f0 f   libucrtd:dbgrpt.obj
 0002:00048450       __acrt_MessageWindowW      00000001800c5450 f   libucrtd:dbgrpt.obj
 0002:000484b0       _invoke_watson_if_error    00000001800c54b0 f i libucrtd:dbgrpt.obj
 0002:00048510       _invoke_watson_if_oneof    00000001800c5510 f i libucrtd:dbgrpt.obj
 0002:00048590       _snwprintf_s               00000001800c5590 f i libucrtd:dbgrpt.obj
 0002:00048610       _vsnwprintf_s_l            00000001800c5610 f i libucrtd:dbgrpt.obj
 0002:000486b0       ??$?B$$A6AH_K@Z@__crt_fast_encoded_nullptr_t@@QEBAP6AH_K@ZXZ 00000001800c56b0 f i libucrtd:new_handler.obj
 0002:000486d0       ??$__crt_fast_decode_pointer@P6AH_K@Z@@YAP6AH_K@ZQ6AH0@Z@Z 00000001800c56d0 f i libucrtd:new_handler.obj
 0002:00048720       ??$__crt_fast_encode_pointer@P6AH_K@Z@@YAP6AH_K@ZQ6AH0@Z@Z 00000001800c5720 f i libucrtd:new_handler.obj
 0002:00048770       ?__crt_fast_encode_pointer@@YA?AU__crt_fast_encoded_nullptr_t@@$$T@Z 00000001800c5770 f i libucrtd:new_handler.obj
 0002:00048790       ?_set_new_handler@@YAP6AH_K@ZH@Z 00000001800c5790 f   libucrtd:new_handler.obj
 0002:00048820       ?initialize@?$dual_state_global@P6AH_K@Z@__crt_state_management@@QEAAXQ6AH_K@Z@Z 00000001800c5820 f i libucrtd:new_handler.obj
 0002:00048880       ?value@?$dual_state_global@P6AH_K@Z@__crt_state_management@@QEAAAEAP6AH_K@ZXZ 00000001800c5880 f i libucrtd:new_handler.obj
 0002:000488b0       __acrt_initialize_new_handler 00000001800c58b0 f   libucrtd:new_handler.obj
 0002:000488e0       _callnewh                  00000001800c58e0 f   libucrtd:new_handler.obj
 0002:00048960       _query_new_handler         00000001800c5960 f   libucrtd:new_handler.obj
 0002:000489b0       _set_new_handler           00000001800c59b0 f   libucrtd:new_handler.obj
 0002:00048a30       malloc                     00000001800c5a30 f   libucrtd:malloc.obj
 0002:00048ae0       _seh_filter_dll            00000001800c5ae0 f   libucrtd:exception_filter.obj
 0002:00048b20       _seh_filter_exe            00000001800c5b20 f   libucrtd:exception_filter.obj
 0002:00048ea0       ??$?B$$A6AXPEAXK0@Z@__crt_fast_encoded_nullptr_t@@QEBAP6AXPEAXK0@ZXZ 00000001800c5ea0 f i libucrtd:exit.obj
 0002:00048f90       ??$__crt_fast_decode_pointer@P6AXPEAXK0@Z@@YAP6AXPEAXK0@ZQ6AX0K0@Z@Z 00000001800c5f90 f i libucrtd:exit.obj
 0002:00048fe0       ??$__crt_fast_encode_pointer@P6AXPEAXK0@Z@@YAP6AXPEAXK0@ZQ6AX0K0@Z@Z 00000001800c5fe0 f i libucrtd:exit.obj
 0002:00049030       ??$__crt_get_proc_address@P6AXI@Z@@YAP6AXI@ZQEAUHINSTANCE__@@QEBD@Z 00000001800c6030 f i libucrtd:exit.obj
 0002:00049120       ??0?$__crt_unique_handle_t@U__crt_hmodule_traits@@@@QEAA@QEAUHINSTANCE__@@@Z 00000001800c6120 f i libucrtd:exit.obj
 0002:00049150       ??1?$__crt_unique_handle_t@U__crt_hmodule_traits@@@@QEAA@XZ 00000001800c6150 f i libucrtd:exit.obj
 0002:00049310       ?__acrt_select_exit_lock@@YA?AW4__acrt_lock_id@@XZ 00000001800c6310 f i libucrtd:exit.obj
 0002:00049340       ?close@?$__crt_unique_handle_t@U__crt_hmodule_traits@@@@QEAAXXZ 00000001800c6340 f i libucrtd:exit.obj
 0002:00049390       ?close@__crt_hmodule_traits@@SA_NPEAUHINSTANCE__@@@Z 00000001800c6390 f i libucrtd:exit.obj
 0002:000494f0       ?get@?$__crt_unique_handle_t@U__crt_hmodule_traits@@@@QEBAPEAUHINSTANCE__@@XZ 00000001800c64f0 f i libucrtd:exit.obj
 0002:00049510       ?get_address_of@?$__crt_unique_handle_t@U__crt_hmodule_traits@@@@QEAAPEAPEAUHINSTANCE__@@XZ 00000001800c6510 f i libucrtd:exit.obj
 0002:00049520       ?get_invalid_value@__crt_hmodule_traits@@SAPEAUHINSTANCE__@@XZ 00000001800c6520 f i libucrtd:exit.obj
 0002:00049730       _Exit                      00000001800c6730 f   libucrtd:exit.obj
 0002:00049760       __acrt_initialize_thread_local_exit_callback 00000001800c6760 f   libucrtd:exit.obj
 0002:00049780       _c_exit                    00000001800c6780 f   libucrtd:exit.obj
 0002:000497b0       _cexit                     00000001800c67b0 f   libucrtd:exit.obj
 0002:000497d0       _exit                      00000001800c67d0 f   libucrtd:exit.obj
 0002:00049800       _is_c_termination_complete 00000001800c6800 f   libucrtd:exit.obj
 0002:00049820       _register_thread_local_exe_atexit_callback 00000001800c6820 f   libucrtd:exit.obj
 0002:00049880       exit                       00000001800c6880 f   libucrtd:exit.obj
 0002:000498b0       quick_exit                 00000001800c68b0 f   libucrtd:exit.obj
 0002:000498e0       ??$?RE@__crt_internal_free_policy@@QEBAXQEBE@Z 00000001800c68e0 f i libucrtd:argv_parsing.obj
 0002:00049910       ??$?RPEAD@__crt_internal_free_policy@@QEBAXQEBQEAD@Z 00000001800c6910 f i libucrtd:argv_parsing.obj
 0002:00049940       ??$?RPEA_W@__crt_internal_free_policy@@QEBAXQEBQEA_W@Z 00000001800c6940 f i libucrtd:argv_parsing.obj
 0002:0004a270       ??$get_module_file_name@$$TAEAY0BAF@DH@?$__crt_char_traits@D@@SAK$$QEA$$TAEAY0BAF@D$$QEAH@Z 00000001800c7270 f i libucrtd:argv_parsing.obj
 0002:0004a2b0       ??$get_module_file_name@$$TAEAY0BAF@_WH@?$__crt_char_traits@_W@@SAK$$QEA$$TAEAY0BAF@_W$$QEAH@Z 00000001800c72b0 f i libucrtd:argv_parsing.obj
 0002:0004af10       ??$set_program_name@PEAD@?$__crt_char_traits@D@@SAX$$QEAPEAD@Z 00000001800c7f10 f i libucrtd:argv_parsing.obj
 0002:0004af40       ??$set_program_name@PEA_W@?$__crt_char_traits@_W@@SAX$$QEAPEA_W@Z 00000001800c7f40 f i libucrtd:argv_parsing.obj
 0002:0004afd0       ??0?$__crt_unique_heap_ptr@EU__crt_internal_free_policy@@@@QEAA@QEAE@Z 00000001800c7fd0 f i libucrtd:argv_parsing.obj
 0002:0004b000       ??0?$__crt_unique_heap_ptr@PEADU__crt_internal_free_policy@@@@QEAA@QEAPEAD@Z 00000001800c8000 f i libucrtd:argv_parsing.obj
 0002:0004b030       ??0?$__crt_unique_heap_ptr@PEA_WU__crt_internal_free_policy@@@@QEAA@QEAPEA_W@Z 00000001800c8030 f i libucrtd:argv_parsing.obj
 0002:0004b060       ??1?$__crt_unique_heap_ptr@EU__crt_internal_free_policy@@@@QEAA@XZ 00000001800c8060 f i libucrtd:argv_parsing.obj
 0002:0004b080       ??1?$__crt_unique_heap_ptr@PEADU__crt_internal_free_policy@@@@QEAA@XZ 00000001800c8080 f i libucrtd:argv_parsing.obj
 0002:0004b0a0       ??1?$__crt_unique_heap_ptr@PEA_WU__crt_internal_free_policy@@@@QEAA@XZ 00000001800c80a0 f i libucrtd:argv_parsing.obj
 0002:0004b0c0       ??B?$__crt_unique_heap_ptr@EU__crt_internal_free_policy@@@@QEBA_NXZ 00000001800c80c0 f i libucrtd:argv_parsing.obj
 0002:0004b1c0       ?detach@?$__crt_unique_heap_ptr@EU__crt_internal_free_policy@@@@QEAAPEAEXZ 00000001800c81c0 f i libucrtd:argv_parsing.obj
 0002:0004b200       ?detach@?$__crt_unique_heap_ptr@PEADU__crt_internal_free_policy@@@@QEAAPEAPEADXZ 00000001800c8200 f i libucrtd:argv_parsing.obj
 0002:0004b240       ?detach@?$__crt_unique_heap_ptr@PEA_WU__crt_internal_free_policy@@@@QEAAPEAPEA_WXZ 00000001800c8240 f i libucrtd:argv_parsing.obj
 0002:0004b310       ?get@?$__crt_unique_heap_ptr@EU__crt_internal_free_policy@@@@QEBAPEAEXZ 00000001800c8310 f i libucrtd:argv_parsing.obj
 0002:0004b330       ?get@?$__crt_unique_heap_ptr@PEADU__crt_internal_free_policy@@@@QEBAPEAPEADXZ 00000001800c8330 f i libucrtd:argv_parsing.obj
 0002:0004b350       ?get@?$__crt_unique_heap_ptr@PEA_WU__crt_internal_free_policy@@@@QEBAPEAPEA_WXZ 00000001800c8350 f i libucrtd:argv_parsing.obj
 0002:0004b370       ?get_address_of@?$__crt_unique_heap_ptr@PEADU__crt_internal_free_policy@@@@QEAAPEAPEAPEADXZ 00000001800c8370 f i libucrtd:argv_parsing.obj
 0002:0004b380       ?get_address_of@?$__crt_unique_heap_ptr@PEA_WU__crt_internal_free_policy@@@@QEAAPEAPEAPEA_WXZ 00000001800c8380 f i libucrtd:argv_parsing.obj
 0002:0004b3d0       ?is_valid@?$__crt_unique_heap_ptr@EU__crt_internal_free_policy@@@@QEBA_NXZ 00000001800c83d0 f i libucrtd:argv_parsing.obj
 0002:0004b410       ?release@?$__crt_unique_heap_ptr@EU__crt_internal_free_policy@@@@QEAAXXZ 00000001800c8410 f i libucrtd:argv_parsing.obj
 0002:0004b450       ?release@?$__crt_unique_heap_ptr@PEADU__crt_internal_free_policy@@@@QEAAXXZ 00000001800c8450 f i libucrtd:argv_parsing.obj
 0002:0004b490       ?release@?$__crt_unique_heap_ptr@PEA_WU__crt_internal_free_policy@@@@QEAAXXZ 00000001800c8490 f i libucrtd:argv_parsing.obj
 0002:0004b530       __acrt_allocate_buffer_for_argv 00000001800c8530 f   libucrtd:argv_parsing.obj
 0002:0004b690       _configure_narrow_argv     00000001800c8690 f   libucrtd:argv_parsing.obj
 0002:0004b6b0       _configure_wide_argv       00000001800c86b0 f   libucrtd:argv_parsing.obj
 0002:0004b6d0       _set_pgmptr                00000001800c86d0 f i libucrtd:argv_parsing.obj
 0002:0004b6f0       _set_wpgmptr               00000001800c86f0 f i libucrtd:argv_parsing.obj
 0002:0004b710       ??$?R_W@__crt_internal_free_policy@@QEBAXQEB_W@Z 00000001800c8710 f i libucrtd:environment_initialization.obj
 0002:0004c330       ??$get_environment_from_os@$$V@?$__crt_char_traits@D@@SAPEADXZ 00000001800c9330 f i libucrtd:environment_initialization.obj
 0002:0004c350       ??$get_environment_from_os@$$V@?$__crt_char_traits@_W@@SAPEA_WXZ 00000001800c9350 f i libucrtd:environment_initialization.obj
 0002:0004c730       ??$set_variable_in_environment_nolock@PEADH@?$__crt_char_traits@D@@SAH$$QEAPEAD$$QEAH@Z 00000001800c9730 f i libucrtd:environment_initialization.obj
 0002:0004c760       ??$set_variable_in_environment_nolock@PEA_WH@?$__crt_char_traits@_W@@SAH$$QEAPEA_W$$QEAH@Z 00000001800c9760 f i libucrtd:environment_initialization.obj
 0002:0004c790       ??$tcscpy_s@PEADAEB_KAEAPEAD@?$__crt_char_traits@D@@SAH$$QEAPEADAEB_KAEAPEAD@Z 00000001800c9790 f i libucrtd:environment_initialization.obj
 0002:0004c7e0       ??$tcscpy_s@PEA_WAEB_KAEAPEA_W@?$__crt_char_traits@_W@@SAH$$QEAPEA_WAEB_KAEAPEA_W@Z 00000001800c97e0 f i libucrtd:environment_initialization.obj
 0002:0004c830       ??$tcslen@AEAPEAD@?$__crt_char_traits@D@@SA_KAEAPEAD@Z 00000001800c9830 f i libucrtd:environment_initialization.obj
 0002:0004c860       ??$tcslen@AEAPEA_W@?$__crt_char_traits@_W@@SA_KAEAPEA_W@Z 00000001800c9860 f i libucrtd:environment_initialization.obj
 0002:0004c890       ??$uninitialize@A6AXAEAPEAPEAD@_E@?$dual_state_global@PEAPEAD@__crt_state_management@@QEAAXA6AXAEAPEAPEAD@_E@Z 00000001800c9890 f i libucrtd:environment_initialization.obj
 0002:0004c930       ??$uninitialize@A6AXAEAPEAPEA_W@_E@?$dual_state_global@PEAPEA_W@__crt_state_management@@QEAAXA6AXAEAPEAPEA_W@_E@Z 00000001800c9930 f i libucrtd:environment_initialization.obj
 0002:0004ca50       ??0?$__crt_unique_heap_ptr@_WU__crt_internal_free_policy@@@@QEAA@QEA_W@Z 00000001800c9a50 f i libucrtd:environment_initialization.obj
 0002:0004ca80       ??1?$__crt_unique_heap_ptr@_WU__crt_internal_free_policy@@@@QEAA@XZ 00000001800c9a80 f i libucrtd:environment_initialization.obj
 0002:0004caa0       ??B?$__crt_unique_heap_ptr@PEADU__crt_internal_free_policy@@@@QEBA_NXZ 00000001800c9aa0 f i libucrtd:environment_initialization.obj
 0002:0004cac0       ??B?$__crt_unique_heap_ptr@PEA_WU__crt_internal_free_policy@@@@QEBA_NXZ 00000001800c9ac0 f i libucrtd:environment_initialization.obj
 0002:0004cae0       ??B?$__crt_unique_heap_ptr@_WU__crt_internal_free_policy@@@@QEBA_NXZ 00000001800c9ae0 f i libucrtd:environment_initialization.obj
 0002:0004cb00       ?__crt_compute_required_transform_buffer_count@@YA_KIQEBD@Z 00000001800c9b00 f i libucrtd:environment_initialization.obj
 0002:0004cb50       ?__crt_compute_required_transform_buffer_count@@YA_KIQEB_W@Z 00000001800c9b50 f i libucrtd:environment_initialization.obj
 0002:0004cbb0       ?__crt_transform_string@@YA_KIQEBDQEA_W_K@Z 00000001800c9bb0 f i libucrtd:environment_initialization.obj
 0002:0004cc20       ?__crt_transform_string@@YA_KIQEB_WQEAD_K@Z 00000001800c9c20 f i libucrtd:environment_initialization.obj
 0002:0004cca0       ?detach@?$__crt_unique_heap_ptr@DU__crt_internal_free_policy@@@@QEAAPEADXZ 00000001800c9ca0 f i libucrtd:environment_initialization.obj
 0002:0004cce0       ?detach@?$__crt_unique_heap_ptr@_WU__crt_internal_free_policy@@@@QEAAPEA_WXZ 00000001800c9ce0 f i libucrtd:environment_initialization.obj
 0002:0004cd20       ?get@?$__crt_unique_heap_ptr@_WU__crt_internal_free_policy@@@@QEBAPEA_WXZ 00000001800c9d20 f i libucrtd:environment_initialization.obj
 0002:0004cdc0       ?initialize@?$dual_state_global@PEAPEAD@__crt_state_management@@QEAAXQEAPEAD@Z 00000001800c9dc0 f i libucrtd:environment_initialization.obj
 0002:0004ce20       ?initialize@?$dual_state_global@PEAPEA_W@__crt_state_management@@QEAAXQEAPEA_W@Z 00000001800c9e20 f i libucrtd:environment_initialization.obj
 0002:0004ce80       ?is_valid@?$__crt_unique_heap_ptr@PEADU__crt_internal_free_policy@@@@QEBA_NXZ 00000001800c9e80 f i libucrtd:environment_initialization.obj
 0002:0004cec0       ?is_valid@?$__crt_unique_heap_ptr@PEA_WU__crt_internal_free_policy@@@@QEBA_NXZ 00000001800c9ec0 f i libucrtd:environment_initialization.obj
 0002:0004cf00       ?is_valid@?$__crt_unique_heap_ptr@_WU__crt_internal_free_policy@@@@QEBA_NXZ 00000001800c9f00 f i libucrtd:environment_initialization.obj
 0002:0004cf70       ?release@?$__crt_unique_heap_ptr@_WU__crt_internal_free_policy@@@@QEAAXXZ 00000001800c9f70 f i libucrtd:environment_initialization.obj
 0002:0004cfb0       ?value@?$dual_state_global@PEAPEAD@__crt_state_management@@QEAAAEAPEAPEADXZ 00000001800c9fb0 f i libucrtd:environment_initialization.obj
 0002:0004cfe0       ?value@?$dual_state_global@PEAPEA_W@__crt_state_management@@QEAAAEAPEAPEA_WXZ 00000001800c9fe0 f i libucrtd:environment_initialization.obj
 0002:0004d010       __dcrt_get_or_create_narrow_environment_nolock 00000001800ca010 f   libucrtd:environment_initialization.obj
 0002:0004d030       __dcrt_get_or_create_wide_environment_nolock 00000001800ca030 f   libucrtd:environment_initialization.obj
 0002:0004d050       __dcrt_uninitialize_environments_nolock 00000001800ca050 f   libucrtd:environment_initialization.obj
 0002:0004d0b0       __p__environ               00000001800ca0b0 f   libucrtd:environment_initialization.obj
 0002:0004d0d0       __p__wenviron              00000001800ca0d0 f   libucrtd:environment_initialization.obj
 0002:0004d0f0       _get_initial_narrow_environment 00000001800ca0f0 f   libucrtd:environment_initialization.obj
 0002:0004d110       _get_initial_wide_environment 00000001800ca110 f   libucrtd:environment_initialization.obj
 0002:0004d130       _initialize_narrow_environment 00000001800ca130 f   libucrtd:environment_initialization.obj
 0002:0004d150       _initialize_wide_environment 00000001800ca150 f   libucrtd:environment_initialization.obj
 0002:0004d170       ??$?B$$A6AXXZ@__crt_fast_encoded_nullptr_t@@QEBAP6AXXZXZ 00000001800ca170 f i libucrtd:onexit.obj
 0002:0004d190       ??$?BP6AXXZ@__crt_fast_encoded_nullptr_t@@QEBAPEAP6AXXZXZ 00000001800ca190 f i libucrtd:onexit.obj
 0002:0004d1b0       ??$?RP6AXXZ@__crt_internal_free_policy@@QEBAXQEBQ6AXXZ@Z 00000001800ca1b0 f i libucrtd:onexit.obj
 0002:0004d3a0       ??$__crt_fast_decode_pointer@P6AXXZ@@YAP6AXXZQ6AXXZ@Z 00000001800ca3a0 f i libucrtd:onexit.obj
 0002:0004d3f0       ??$__crt_fast_decode_pointer@PEAP6AXXZ@@YAPEAP6AXXZQEAP6AXXZ@Z 00000001800ca3f0 f i libucrtd:onexit.obj
 0002:0004d440       ??$__crt_fast_encode_pointer@P6AHXZ@@YAP6AHXZQ6AHXZ@Z 00000001800ca440 f i libucrtd:onexit.obj
 0002:0004d490       ??$__crt_fast_encode_pointer@P6AXXZ@@YAP6AXXZQ6AXXZ@Z 00000001800ca490 f i libucrtd:onexit.obj
 0002:0004d4e0       ??$__crt_fast_encode_pointer@PEAP6AXXZ@@YAPEAP6AXXZQEAP6AXXZ@Z 00000001800ca4e0 f i libucrtd:onexit.obj
 0002:0004d660       ??0?$__crt_unique_heap_ptr@P6AXXZU__crt_internal_free_policy@@@@QEAA@QEAP6AXXZ@Z 00000001800ca660 f i libucrtd:onexit.obj
 0002:0004d690       ??1?$__crt_unique_heap_ptr@P6AXXZU__crt_internal_free_policy@@@@QEAA@XZ 00000001800ca690 f i libucrtd:onexit.obj
 0002:0004d6b0       ??1scoped_global_state_reset@__crt_state_management@@QEAA@XZ 00000001800ca6b0 f i libucrtd:onexit.obj
 0002:0004de10       ?detach@?$__crt_unique_heap_ptr@P6AXXZU__crt_internal_free_policy@@@@QEAAPEAP6AXXZXZ 00000001800cae10 f i libucrtd:onexit.obj
 0002:0004de50       ?release@?$__crt_unique_heap_ptr@P6AXXZU__crt_internal_free_policy@@@@QEAAXXZ 00000001800cae50 f i libucrtd:onexit.obj
 0002:0004de90       _crt_at_quick_exit         00000001800cae90 f   libucrtd:onexit.obj
 0002:0004dec0       _crt_atexit                00000001800caec0 f   libucrtd:onexit.obj
 0002:0004def0       _execute_onexit_table      00000001800caef0 f   libucrtd:onexit.obj
 0002:0004df40       _initialize_onexit_table   00000001800caf40 f   libucrtd:onexit.obj
 0002:0004dfe0       _register_onexit_function  00000001800cafe0 f   libucrtd:onexit.obj
 0002:0004e2c0       ??$?BX@__crt_fast_encoded_nullptr_t@@QEBAPEAXXZ 00000001800cb2c0 f i libucrtd:initialization.obj
 0002:0004e2e0       ??$__crt_fast_encode_pointer@PEAX@@YAPEAXQEAX@Z 00000001800cb2e0 f i libucrtd:initialization.obj
 0002:0004e420       ?initialize@?$dual_state_global@PEAU__crt_locale_data@@@__crt_state_management@@QEAAXQEAU__crt_locale_data@@@Z 00000001800cb420 f i libucrtd:initialization.obj
 0002:0004e480       __acrt_initialize          00000001800cb480 f   libucrtd:initialization.obj
 0002:0004e4b0       __acrt_thread_attach       00000001800cb4b0 f   libucrtd:initialization.obj
 0002:0004e4d0       __acrt_thread_detach       00000001800cb4d0 f   libucrtd:initialization.obj
 0002:0004e4f0       __acrt_uninitialize        00000001800cb4f0 f   libucrtd:initialization.obj
 0002:0004e530       __acrt_uninitialize_critical 00000001800cb530 f   libucrtd:initialization.obj
 0002:0004e550       _initterm                  00000001800cb550 f   libucrtd:initterm.obj
 0002:0004e5e0       _initterm_e                00000001800cb5e0 f   libucrtd:initterm.obj
 0002:0004e680       ??0_LocaleUpdate@@QEAA@QEAU__crt_locale_pointers@@@Z 00000001800cb680 f i libucrtd:debug_heap.obj
 0002:0004e7e0       ??1_LocaleUpdate@@QEAA@XZ  00000001800cb7e0 f i libucrtd:debug_heap.obj
 0002:0004e820       ?GetLocaleT@_LocaleUpdate@@QEAAPEAU__crt_locale_pointers@@XZ 00000001800cb820 f i libucrtd:debug_heap.obj
 0002:000514c0       _CrtCheckMemory            00000001800ce4c0 f   libucrtd:debug_heap.obj
 0002:000516c0       _CrtDoForAllClientObjects  00000001800ce6c0 f   libucrtd:debug_heap.obj
 0002:00051860       _CrtDumpMemoryLeaks        00000001800ce860 f   libucrtd:debug_heap.obj
 0002:00051950       _CrtGetAllocHook           00000001800ce950 f   libucrtd:debug_heap.obj
 0002:00051960       _CrtGetDumpClient          00000001800ce960 f   libucrtd:debug_heap.obj
 0002:00051970       _CrtIsMemoryBlock          00000001800ce970 f   libucrtd:debug_heap.obj
 0002:00051b00       _CrtIsValidHeapPointer     00000001800ceb00 f   libucrtd:debug_heap.obj
 0002:00051b60       _CrtIsValidPointer         00000001800ceb60 f   libucrtd:debug_heap.obj
 0002:00051ba0       _CrtMemCheckpoint          00000001800ceba0 f   libucrtd:debug_heap.obj
 0002:00051ec0       _CrtMemDifference          00000001800ceec0 f   libucrtd:debug_heap.obj
 0002:000522f0       _CrtMemDumpAllObjectsSince 00000001800cf2f0 f   libucrtd:debug_heap.obj
 0002:00052360       _CrtMemDumpStatistics      00000001800cf360 f   libucrtd:debug_heap.obj
 0002:00052560       _CrtReportBlockType        00000001800cf560 f   libucrtd:debug_heap.obj
 0002:000525a0       _CrtSetAllocHook           00000001800cf5a0 f   libucrtd:debug_heap.obj
 0002:000525e0       _CrtSetBreakAlloc          00000001800cf5e0 f   libucrtd:debug_heap.obj
 0002:00052610       _CrtSetDbgBlockType        00000001800cf610 f   libucrtd:debug_heap.obj
 0002:000526d0       _CrtSetDbgFlag             00000001800cf6d0 f   libucrtd:debug_heap.obj
 0002:00052880       _CrtSetDumpClient          00000001800cf880 f   libucrtd:debug_heap.obj
 0002:000528c0       __acrt_disable_global_locale_sync 00000001800cf8c0 f i libucrtd:debug_heap.obj
 0002:000528f0       __acrt_get_locale_data_prefix 00000001800cf8f0 f i libucrtd:debug_heap.obj
 0002:00052920       __p__crtBreakAlloc         00000001800cf920 f   libucrtd:debug_heap.obj
 0002:00052930       __p__crtDbgFlag            00000001800cf930 f   libucrtd:debug_heap.obj
 0002:00052940       _aligned_free_dbg          00000001800cf940 f   libucrtd:debug_heap.obj
 0002:00052a60       _aligned_malloc_dbg        00000001800cfa60 f   libucrtd:debug_heap.obj
 0002:00052ab0       _aligned_msize_dbg         00000001800cfab0 f   libucrtd:debug_heap.obj
 0002:00052cf0       _aligned_offset_malloc_dbg 00000001800cfcf0 f   libucrtd:debug_heap.obj
 0002:00053090       _aligned_offset_realloc_dbg 00000001800d0090 f   libucrtd:debug_heap.obj
 0002:00053670       _aligned_offset_recalloc_dbg 00000001800d0670 f   libucrtd:debug_heap.obj
 0002:000537d0       _aligned_realloc_dbg       00000001800d07d0 f   libucrtd:debug_heap.obj
 0002:00053830       _aligned_recalloc_dbg      00000001800d0830 f   libucrtd:debug_heap.obj
 0002:000538a0       _calloc_dbg                00000001800d08a0 f   libucrtd:debug_heap.obj
 0002:00053960       _chvalidchk_l              00000001800d0960 f i libucrtd:debug_heap.obj
 0002:000539a0       _expand_dbg                00000001800d09a0 f   libucrtd:debug_heap.obj
 0002:00053b20       _free_dbg                  00000001800d0b20 f   libucrtd:debug_heap.obj
 0002:00053ba0       _ischartype_l              00000001800d0ba0 f i libucrtd:debug_heap.obj
 0002:00053c50       _malloc_dbg                00000001800d0c50 f   libucrtd:debug_heap.obj
 0002:00053ca0       _msize_dbg                 00000001800d0ca0 f   libucrtd:debug_heap.obj
 0002:00053ea0       _realloc_dbg               00000001800d0ea0 f   libucrtd:debug_heap.obj
 0002:00053f30       _recalloc_dbg              00000001800d0f30 f   libucrtd:debug_heap.obj
 0002:000540c0       _get_terminate             00000001800d10c0 f   libucrtd:terminate.obj
 0002:000540e0       set_terminate              00000001800d10e0 f   libucrtd:terminate.obj
 0002:00054130       terminate                  00000001800d1130 f   libucrtd:terminate.obj
 0002:000547b0       strcpy_s                   00000001800d17b0 f   libucrtd:strcpy_s.obj
 0002:00055000       strcat_s                   00000001800d2000 f   libucrtd:strcat_s.obj
 0002:00055040       ??$?0AEBV?$stream_output_adapter@D@__crt_stdio_output@@AEB_KAEBQEBDAEAV__crt_cached_ptd_host@@AEBQEAD@?$format_validation_base@DV?$stream_output_adapter@D@__crt_stdio_output@@@__crt_stdio_output@@IEAA@AEBV?$stream_output_adapter@D@1@AEB_KAEBQEBDAEAV__crt_cached_ptd_host@@AEBQEAD@Z 00000001800d2040 f i libucrtd:output.obj
 0002:000550b0       ??$?0AEBV?$stream_output_adapter@D@__crt_stdio_output@@AEB_KAEBQEBDAEAV__crt_cached_ptd_host@@AEBQEAD@?$positional_parameter_base@DV?$stream_output_adapter@D@__crt_stdio_output@@@__crt_stdio_output@@IEAA@AEBV?$stream_output_adapter@D@1@AEB_KAEBQEBDAEAV__crt_cached_ptd_host@@AEBQEAD@Z 00000001800d20b0 f i libucrtd:output.obj
 0002:00055180       ??$?0AEBV?$stream_output_adapter@D@__crt_stdio_output@@AEB_KAEBQEBDAEAV__crt_cached_ptd_host@@AEBQEAD@?$standard_base@DV?$stream_output_adapter@D@__crt_stdio_output@@@__crt_stdio_output@@IEAA@AEBV?$stream_output_adapter@D@1@AEB_KAEBQEBDAEAV__crt_cached_ptd_host@@AEBQEAD@Z 00000001800d2180 f i libucrtd:output.obj
 0002:00055200       ??$?0AEBV?$stream_output_adapter@_W@__crt_stdio_output@@AEB_KAEBQEB_WAEAV__crt_cached_ptd_host@@AEBQEAD@?$format_validation_base@_WV?$stream_output_adapter@_W@__crt_stdio_output@@@__crt_stdio_output@@IEAA@AEBV?$stream_output_adapter@_W@1@AEB_KAEBQEB_WAEAV__crt_cached_ptd_host@@AEBQEAD@Z 00000001800d2200 f i libucrtd:output.obj
 0002:00055270       ??$?0AEBV?$stream_output_adapter@_W@__crt_stdio_output@@AEB_KAEBQEB_WAEAV__crt_cached_ptd_host@@AEBQEAD@?$positional_parameter_base@_WV?$stream_output_adapter@_W@__crt_stdio_output@@@__crt_stdio_output@@IEAA@AEBV?$stream_output_adapter@_W@1@AEB_KAEBQEB_WAEAV__crt_cached_ptd_host@@AEBQEAD@Z 00000001800d2270 f i libucrtd:output.obj
 0002:00055340       ??$?0AEBV?$stream_output_adapter@_W@__crt_stdio_output@@AEB_KAEBQEB_WAEAV__crt_cached_ptd_host@@AEBQEAD@?$standard_base@_WV?$stream_output_adapter@_W@__crt_stdio_output@@@__crt_stdio_output@@IEAA@AEBV?$stream_output_adapter@_W@1@AEB_KAEBQEB_WAEAV__crt_cached_ptd_host@@AEBQEAD@Z 00000001800d2340 f i libucrtd:output.obj
 0002:000553c0       ??$?0AEBV?$string_output_adapter@D@__crt_stdio_output@@AEB_KAEBQEBDAEAV__crt_cached_ptd_host@@AEBQEAD@?$format_validation_base@DV?$string_output_adapter@D@__crt_stdio_output@@@__crt_stdio_output@@IEAA@AEBV?$string_output_adapter@D@1@AEB_KAEBQEBDAEAV__crt_cached_ptd_host@@AEBQEAD@Z 00000001800d23c0 f i libucrtd:output.obj
 0002:00055430       ??$?0AEBV?$string_output_adapter@D@__crt_stdio_output@@AEB_KAEBQEBDAEAV__crt_cached_ptd_host@@AEBQEAD@?$positional_parameter_base@DV?$string_output_adapter@D@__crt_stdio_output@@@__crt_stdio_output@@IEAA@AEBV?$string_output_adapter@D@1@AEB_KAEBQEBDAEAV__crt_cached_ptd_host@@AEBQEAD@Z 00000001800d2430 f i libucrtd:output.obj
 0002:00055500       ??$?0AEBV?$string_output_adapter@D@__crt_stdio_output@@AEB_KAEBQEBDAEAV__crt_cached_ptd_host@@AEBQEAD@?$standard_base@DV?$string_output_adapter@D@__crt_stdio_output@@@__crt_stdio_output@@IEAA@AEBV?$string_output_adapter@D@1@AEB_KAEBQEBDAEAV__crt_cached_ptd_host@@AEBQEAD@Z 00000001800d2500 f i libucrtd:output.obj
 0002:00055580       ??$?0AEBV?$string_output_adapter@_W@__crt_stdio_output@@AEB_KAEBQEB_WAEAV__crt_cached_ptd_host@@AEBQEAD@?$format_validation_base@_WV?$string_output_adapter@_W@__crt_stdio_output@@@__crt_stdio_output@@IEAA@AEBV?$string_output_adapter@_W@1@AEB_KAEBQEB_WAEAV__crt_cached_ptd_host@@AEBQEAD@Z 00000001800d2580 f i libucrtd:output.obj
 0002:000555f0       ??$?0AEBV?$string_output_adapter@_W@__crt_stdio_output@@AEB_KAEBQEB_WAEAV__crt_cached_ptd_host@@AEBQEAD@?$positional_parameter_base@_WV?$string_output_adapter@_W@__crt_stdio_output@@@__crt_stdio_output@@IEAA@AEBV?$string_output_adapter@_W@1@AEB_KAEBQEB_WAEAV__crt_cached_ptd_host@@AEBQEAD@Z 00000001800d25f0 f i libucrtd:output.obj
 0002:000556c0       ??$?0AEBV?$string_output_adapter@_W@__crt_stdio_output@@AEB_KAEBQEB_WAEAV__crt_cached_ptd_host@@AEBQEAD@?$standard_base@_WV?$string_output_adapter@_W@__crt_stdio_output@@@__crt_stdio_output@@IEAA@AEBV?$string_output_adapter@_W@1@AEB_KAEBQEB_WAEAV__crt_cached_ptd_host@@AEBQEAD@Z 00000001800d26c0 f i libucrtd:output.obj
 0002:00055c80       ??$_tcstol_internal@DPEAPEAD$0A@@@YAJAEAV__crt_cached_ptd_host@@QEBDQEAPEADH@Z 00000001800d2c80 f i libucrtd:output.obj
 0002:00055cf0       ??$_tcstol_internal@_WPEAPEA_W$0A@@@YAJAEAV__crt_cached_ptd_host@@QEB_WQEAPEA_WH@Z 00000001800d2cf0 f i libucrtd:output.obj
 0002:0005ac70       ??$count@D@formatting_buffer@__crt_stdio_output@@QEBA_KXZ 00000001800d7c70 f i libucrtd:output.obj
 0002:0005acd0       ??$count@_W@formatting_buffer@__crt_stdio_output@@QEBA_KXZ 00000001800d7cd0 f i libucrtd:output.obj
 0002:0005ad40       ??$data@D@formatting_buffer@__crt_stdio_output@@QEAAPEADXZ 00000001800d7d40 f i libucrtd:output.obj
 0002:0005ada0       ??$data@_W@formatting_buffer@__crt_stdio_output@@QEAAPEA_WXZ 00000001800d7da0 f i libucrtd:output.obj
 0002:0005ae00       ??$ensure_buffer_is_big_enough@D@formatting_buffer@__crt_stdio_output@@QEAA_N_KAEAV__crt_cached_ptd_host@@@Z 00000001800d7e00 f i libucrtd:output.obj
 0002:0005af90       ??$ensure_buffer_is_big_enough@_W@formatting_buffer@__crt_stdio_output@@QEAA_N_KAEAV__crt_cached_ptd_host@@@Z 00000001800d7f90 f i libucrtd:output.obj
 0002:0005b120       ??$extract_argument_from_va_list@C_J@?$positional_parameter_base@DV?$stream_output_adapter@D@__crt_stdio_output@@@__crt_stdio_output@@IEAA_NAEA_J@Z 00000001800d8120 f i libucrtd:output.obj
 0002:0005b350       ??$extract_argument_from_va_list@C_J@?$positional_parameter_base@DV?$string_output_adapter@D@__crt_stdio_output@@@__crt_stdio_output@@IEAA_NAEA_J@Z 00000001800d8350 f i libucrtd:output.obj
 0002:0005b580       ??$extract_argument_from_va_list@C_J@?$positional_parameter_base@_WV?$stream_output_adapter@_W@__crt_stdio_output@@@__crt_stdio_output@@IEAA_NAEA_J@Z 00000001800d8580 f i libucrtd:output.obj
 0002:0005b7b0       ??$extract_argument_from_va_list@C_J@?$positional_parameter_base@_WV?$string_output_adapter@_W@__crt_stdio_output@@@__crt_stdio_output@@IEAA_NAEA_J@Z 00000001800d87b0 f i libucrtd:output.obj
 0002:0005b9e0       ??$extract_argument_from_va_list@C_J@?$standard_base@DV?$stream_output_adapter@D@__crt_stdio_output@@@__crt_stdio_output@@IEAA_NAEA_J@Z 00000001800d89e0 f i libucrtd:output.obj
 0002:0005ba20       ??$extract_argument_from_va_list@C_J@?$standard_base@DV?$string_output_adapter@D@__crt_stdio_output@@@__crt_stdio_output@@IEAA_NAEA_J@Z 00000001800d8a20 f i libucrtd:output.obj
 0002:0005ba60       ??$extract_argument_from_va_list@C_J@?$standard_base@_WV?$stream_output_adapter@_W@__crt_stdio_output@@@__crt_stdio_output@@IEAA_NAEA_J@Z 00000001800d8a60 f i libucrtd:output.obj
 0002:0005baa0       ??$extract_argument_from_va_list@C_J@?$standard_base@_WV?$string_output_adapter@_W@__crt_stdio_output@@@__crt_stdio_output@@IEAA_NAEA_J@Z 00000001800d8aa0 f i libucrtd:output.obj
 0002:0005bae0       ??$extract_argument_from_va_list@E_J@?$positional_parameter_base@DV?$stream_output_adapter@D@__crt_stdio_output@@@__crt_stdio_output@@IEAA_NAEA_J@Z 00000001800d8ae0 f i libucrtd:output.obj
 0002:0005bd10       ??$extract_argument_from_va_list@E_J@?$positional_parameter_base@DV?$string_output_adapter@D@__crt_stdio_output@@@__crt_stdio_output@@IEAA_NAEA_J@Z 00000001800d8d10 f i libucrtd:output.obj
 0002:0005bf40       ??$extract_argument_from_va_list@E_J@?$positional_parameter_base@_WV?$stream_output_adapter@_W@__crt_stdio_output@@@__crt_stdio_output@@IEAA_NAEA_J@Z 00000001800d8f40 f i libucrtd:output.obj
 0002:0005c170       ??$extract_argument_from_va_list@E_J@?$positional_parameter_base@_WV?$string_output_adapter@_W@__crt_stdio_output@@@__crt_stdio_output@@IEAA_NAEA_J@Z 00000001800d9170 f i libucrtd:output.obj
 0002:0005c3a0       ??$extract_argument_from_va_list@E_J@?$standard_base@DV?$stream_output_adapter@D@__crt_stdio_output@@@__crt_stdio_output@@IEAA_NAEA_J@Z 00000001800d93a0 f i libucrtd:output.obj
 0002:0005c3e0       ??$extract_argument_from_va_list@E_J@?$standard_base@DV?$string_output_adapter@D@__crt_stdio_output@@@__crt_stdio_output@@IEAA_NAEA_J@Z 00000001800d93e0 f i libucrtd:output.obj
 0002:0005c420       ??$extract_argument_from_va_list@E_J@?$standard_base@_WV?$stream_output_adapter@_W@__crt_stdio_output@@@__crt_stdio_output@@IEAA_NAEA_J@Z 00000001800d9420 f i libucrtd:output.obj
 0002:0005c460       ??$extract_argument_from_va_list@E_J@?$standard_base@_WV?$string_output_adapter@_W@__crt_stdio_output@@@__crt_stdio_output@@IEAA_NAEA_J@Z 00000001800d9460 f i libucrtd:output.obj
 0002:0005c4a0       ??$extract_argument_from_va_list@F_J@?$positional_parameter_base@DV?$stream_output_adapter@D@__crt_stdio_output@@@__crt_stdio_output@@IEAA_NAEA_J@Z 00000001800d94a0 f i libucrtd:output.obj
 0002:0005c6d0       ??$extract_argument_from_va_list@F_J@?$positional_parameter_base@DV?$string_output_adapter@D@__crt_stdio_output@@@__crt_stdio_output@@IEAA_NAEA_J@Z 00000001800d96d0 f i libucrtd:output.obj
 0002:0005c900       ??$extract_argument_from_va_list@F_J@?$positional_parameter_base@_WV?$stream_output_adapter@_W@__crt_stdio_output@@@__crt_stdio_output@@IEAA_NAEA_J@Z 00000001800d9900 f i libucrtd:output.obj
 0002:0005cb30       ??$extract_argument_from_va_list@F_J@?$positional_parameter_base@_WV?$string_output_adapter@_W@__crt_stdio_output@@@__crt_stdio_output@@IEAA_NAEA_J@Z 00000001800d9b30 f i libucrtd:output.obj
 0002:0005cd60       ??$extract_argument_from_va_list@F_J@?$standard_base@DV?$stream_output_adapter@D@__crt_stdio_output@@@__crt_stdio_output@@IEAA_NAEA_J@Z 00000001800d9d60 f i libucrtd:output.obj
 0002:0005cda0       ??$extract_argument_from_va_list@F_J@?$standard_base@DV?$string_output_adapter@D@__crt_stdio_output@@@__crt_stdio_output@@IEAA_NAEA_J@Z 00000001800d9da0 f i libucrtd:output.obj
 0002:0005cde0       ??$extract_argument_from_va_list@F_J@?$standard_base@_WV?$stream_output_adapter@_W@__crt_stdio_output@@@__crt_stdio_output@@IEAA_NAEA_J@Z 00000001800d9de0 f i libucrtd:output.obj
 0002:0005ce20       ??$extract_argument_from_va_list@F_J@?$standard_base@_WV?$string_output_adapter@_W@__crt_stdio_output@@@__crt_stdio_output@@IEAA_NAEA_J@Z 00000001800d9e20 f i libucrtd:output.obj
 0002:0005ce60       ??$extract_argument_from_va_list@GD@?$positional_parameter_base@DV?$stream_output_adapter@D@__crt_stdio_output@@@__crt_stdio_output@@IEAA_NAEAD@Z 00000001800d9e60 f i libucrtd:output.obj
 0002:0005d090       ??$extract_argument_from_va_list@GD@?$positional_parameter_base@DV?$string_output_adapter@D@__crt_stdio_output@@@__crt_stdio_output@@IEAA_NAEAD@Z 00000001800da090 f i libucrtd:output.obj
 0002:0005d2c0       ??$extract_argument_from_va_list@GD@?$standard_base@DV?$stream_output_adapter@D@__crt_stdio_output@@@__crt_stdio_output@@IEAA_NAEAD@Z 00000001800da2c0 f i libucrtd:output.obj
 0002:0005d300       ??$extract_argument_from_va_list@GD@?$standard_base@DV?$string_output_adapter@D@__crt_stdio_output@@@__crt_stdio_output@@IEAA_NAEAD@Z 00000001800da300 f i libucrtd:output.obj
 0002:0005d340       ??$extract_argument_from_va_list@G_J@?$positional_parameter_base@DV?$stream_output_adapter@D@__crt_stdio_output@@@__crt_stdio_output@@IEAA_NAEA_J@Z 00000001800da340 f i libucrtd:output.obj
 0002:0005d570       ??$extract_argument_from_va_list@G_J@?$positional_parameter_base@DV?$string_output_adapter@D@__crt_stdio_output@@@__crt_stdio_output@@IEAA_NAEA_J@Z 00000001800da570 f i libucrtd:output.obj
 0002:0005d7a0       ??$extract_argument_from_va_list@G_J@?$positional_parameter_base@_WV?$stream_output_adapter@_W@__crt_stdio_output@@@__crt_stdio_output@@IEAA_NAEA_J@Z 00000001800da7a0 f i libucrtd:output.obj
 0002:0005d9d0       ??$extract_argument_from_va_list@G_J@?$positional_parameter_base@_WV?$string_output_adapter@_W@__crt_stdio_output@@@__crt_stdio_output@@IEAA_NAEA_J@Z 00000001800da9d0 f i libucrtd:output.obj
 0002:0005dc00       ??$extract_argument_from_va_list@G_J@?$standard_base@DV?$stream_output_adapter@D@__crt_stdio_output@@@__crt_stdio_output@@IEAA_NAEA_J@Z 00000001800dac00 f i libucrtd:output.obj
 0002:0005dc40       ??$extract_argument_from_va_list@G_J@?$standard_base@DV?$string_output_adapter@D@__crt_stdio_output@@@__crt_stdio_output@@IEAA_NAEA_J@Z 00000001800dac40 f i libucrtd:output.obj
 0002:0005dc80       ??$extract_argument_from_va_list@G_J@?$standard_base@_WV?$stream_output_adapter@_W@__crt_stdio_output@@@__crt_stdio_output@@IEAA_NAEA_J@Z 00000001800dac80 f i libucrtd:output.obj
 0002:0005dcc0       ??$extract_argument_from_va_list@G_J@?$standard_base@_WV?$string_output_adapter@_W@__crt_stdio_output@@@__crt_stdio_output@@IEAA_NAEA_J@Z 00000001800dacc0 f i libucrtd:output.obj
 0002:0005dd00       ??$extract_argument_from_va_list@H_J@?$positional_parameter_base@DV?$stream_output_adapter@D@__crt_stdio_output@@@__crt_stdio_output@@IEAA_NAEA_J@Z 00000001800dad00 f i libucrtd:output.obj
 0002:0005df30       ??$extract_argument_from_va_list@H_J@?$positional_parameter_base@DV?$string_output_adapter@D@__crt_stdio_output@@@__crt_stdio_output@@IEAA_NAEA_J@Z 00000001800daf30 f i libucrtd:output.obj
 0002:0005e160       ??$extract_argument_from_va_list@H_J@?$positional_parameter_base@_WV?$stream_output_adapter@_W@__crt_stdio_output@@@__crt_stdio_output@@IEAA_NAEA_J@Z 00000001800db160 f i libucrtd:output.obj
 0002:0005e390       ??$extract_argument_from_va_list@H_J@?$positional_parameter_base@_WV?$string_output_adapter@_W@__crt_stdio_output@@@__crt_stdio_output@@IEAA_NAEA_J@Z 00000001800db390 f i libucrtd:output.obj
 0002:0005e5c0       ??$extract_argument_from_va_list@H_J@?$standard_base@DV?$stream_output_adapter@D@__crt_stdio_output@@@__crt_stdio_output@@IEAA_NAEA_J@Z 00000001800db5c0 f i libucrtd:output.obj
 0002:0005e600       ??$extract_argument_from_va_list@H_J@?$standard_base@DV?$string_output_adapter@D@__crt_stdio_output@@@__crt_stdio_output@@IEAA_NAEA_J@Z 00000001800db600 f i libucrtd:output.obj
 0002:0005e640       ??$extract_argument_from_va_list@H_J@?$standard_base@_WV?$stream_output_adapter@_W@__crt_stdio_output@@@__crt_stdio_output@@IEAA_NAEA_J@Z 00000001800db640 f i libucrtd:output.obj
 0002:0005e680       ??$extract_argument_from_va_list@H_J@?$standard_base@_WV?$string_output_adapter@_W@__crt_stdio_output@@@__crt_stdio_output@@IEAA_NAEA_J@Z 00000001800db680 f i libucrtd:output.obj
 0002:0005e6c0       ??$extract_argument_from_va_list@I_J@?$positional_parameter_base@DV?$stream_output_adapter@D@__crt_stdio_output@@@__crt_stdio_output@@IEAA_NAEA_J@Z 00000001800db6c0 f i libucrtd:output.obj
 0002:0005e8f0       ??$extract_argument_from_va_list@I_J@?$positional_parameter_base@DV?$string_output_adapter@D@__crt_stdio_output@@@__crt_stdio_output@@IEAA_NAEA_J@Z 00000001800db8f0 f i libucrtd:output.obj
 0002:0005eb20       ??$extract_argument_from_va_list@I_J@?$positional_parameter_base@_WV?$stream_output_adapter@_W@__crt_stdio_output@@@__crt_stdio_output@@IEAA_NAEA_J@Z 00000001800dbb20 f i libucrtd:output.obj
 0002:0005ed50       ??$extract_argument_from_va_list@I_J@?$positional_parameter_base@_WV?$string_output_adapter@_W@__crt_stdio_output@@@__crt_stdio_output@@IEAA_NAEA_J@Z 00000001800dbd50 f i libucrtd:output.obj
 0002:0005ef80       ??$extract_argument_from_va_list@I_J@?$standard_base@DV?$stream_output_adapter@D@__crt_stdio_output@@@__crt_stdio_output@@IEAA_NAEA_J@Z 00000001800dbf80 f i libucrtd:output.obj
 0002:0005efc0       ??$extract_argument_from_va_list@I_J@?$standard_base@DV?$string_output_adapter@D@__crt_stdio_output@@@__crt_stdio_output@@IEAA_NAEA_J@Z 00000001800dbfc0 f i libucrtd:output.obj
 0002:0005f000       ??$extract_argument_from_va_list@I_J@?$standard_base@_WV?$stream_output_adapter@_W@__crt_stdio_output@@@__crt_stdio_output@@IEAA_NAEA_J@Z 00000001800dc000 f i libucrtd:output.obj
 0002:0005f040       ??$extract_argument_from_va_list@I_J@?$standard_base@_WV?$string_output_adapter@_W@__crt_stdio_output@@@__crt_stdio_output@@IEAA_NAEA_J@Z 00000001800dc040 f i libucrtd:output.obj
 0002:0005f080       ??$extract_argument_from_va_list@PEADPEAD@?$positional_parameter_base@DV?$stream_output_adapter@D@__crt_stdio_output@@@__crt_stdio_output@@IEAA_NAEAPEAD@Z 00000001800dc080 f i libucrtd:output.obj
 0002:0005f2b0       ??$extract_argument_from_va_list@PEADPEAD@?$positional_parameter_base@DV?$string_output_adapter@D@__crt_stdio_output@@@__crt_stdio_output@@IEAA_NAEAPEAD@Z 00000001800dc2b0 f i libucrtd:output.obj
 0002:0005f4e0       ??$extract_argument_from_va_list@PEADPEAD@?$positional_parameter_base@_WV?$stream_output_adapter@_W@__crt_stdio_output@@@__crt_stdio_output@@IEAA_NAEAPEAD@Z 00000001800dc4e0 f i libucrtd:output.obj
 0002:0005f710       ??$extract_argument_from_va_list@PEADPEAD@?$positional_parameter_base@_WV?$string_output_adapter@_W@__crt_stdio_output@@@__crt_stdio_output@@IEAA_NAEAPEAD@Z 00000001800dc710 f i libucrtd:output.obj
 0002:0005f940       ??$extract_argument_from_va_list@PEADPEAD@?$standard_base@DV?$stream_output_adapter@D@__crt_stdio_output@@@__crt_stdio_output@@IEAA_NAEAPEAD@Z 00000001800dc940 f i libucrtd:output.obj
 0002:0005f980       ??$extract_argument_from_va_list@PEADPEAD@?$standard_base@DV?$string_output_adapter@D@__crt_stdio_output@@@__crt_stdio_output@@IEAA_NAEAPEAD@Z 00000001800dc980 f i libucrtd:output.obj
 0002:0005f9c0       ??$extract_argument_from_va_list@PEADPEAD@?$standard_base@_WV?$stream_output_adapter@_W@__crt_stdio_output@@@__crt_stdio_output@@IEAA_NAEAPEAD@Z 00000001800dc9c0 f i libucrtd:output.obj
 0002:0005fa00       ??$extract_argument_from_va_list@PEADPEAD@?$standard_base@_WV?$string_output_adapter@_W@__crt_stdio_output@@@__crt_stdio_output@@IEAA_NAEAPEAD@Z 00000001800dca00 f i libucrtd:output.obj
 0002:0005fa40       ??$extract_argument_from_va_list@PEAUansi_string@?1??type_case_Z@?$output_processor@DV?$stream_output_adapter@D@__crt_stdio_output@@V?$format_validation_base@DV?$stream_output_adapter@D@__crt_stdio_output@@@2@@__crt_stdio_output@@AEAA_NXZ@PEAU1?1??234@AEAA_NXZ@@?$standard_base@DV?$stream_output_adapter@D@__crt_stdio_output@@@__crt_stdio_output@@IEAA_NAEAPEAUansi_string@?1??type_case_Z@?$output_processor@DV?$stream_output_adapter@D@__crt_stdio_output@@V?$format_validation_base@DV?$stream_output_adapter@D@__crt_stdio_output@@@2@@1@AEAA_NXZ@@Z 00000001800dca40 f i libucrtd:output.obj
 0002:0005fa80       ??$extract_argument_from_va_list@PEAUansi_string@?1??type_case_Z@?$output_processor@DV?$stream_output_adapter@D@__crt_stdio_output@@V?$positional_parameter_base@DV?$stream_output_adapter@D@__crt_stdio_output@@@2@@__crt_stdio_output@@AEAA_NXZ@PEAU1?1??234@AEAA_NXZ@@?$positional_parameter_base@DV?$stream_output_adapter@D@__crt_stdio_output@@@__crt_stdio_output@@IEAA_NAEAPEAUansi_string@?1??type_case_Z@?$output_processor@DV?$stream_output_adapter@D@__crt_stdio_output@@V?$positional_parameter_base@DV?$stream_output_adapter@D@__crt_stdio_output@@@2@@1@AEAA_NXZ@@Z 00000001800dca80 f i libucrtd:output.obj
 0002:0005fcb0       ??$extract_argument_from_va_list@PEAUansi_string@?1??type_case_Z@?$output_processor@DV?$stream_output_adapter@D@__crt_stdio_output@@V?$positional_parameter_base@DV?$stream_output_adapter@D@__crt_stdio_output@@@2@@__crt_stdio_output@@AEAA_NXZ@PEAU1?1??234@AEAA_NXZ@@?$standard_base@DV?$stream_output_adapter@D@__crt_stdio_output@@@__crt_stdio_output@@IEAA_NAEAPEAUansi_string@?1??type_case_Z@?$output_processor@DV?$stream_output_adapter@D@__crt_stdio_output@@V?$positional_parameter_base@DV?$stream_output_adapter@D@__crt_stdio_output@@@2@@1@AEAA_NXZ@@Z 00000001800dccb0 f i libucrtd:output.obj
 0002:0005fcf0       ??$extract_argument_from_va_list@PEAUansi_string@?1??type_case_Z@?$output_processor@DV?$stream_output_adapter@D@__crt_stdio_output@@V?$standard_base@DV?$stream_output_adapter@D@__crt_stdio_output@@@2@@__crt_stdio_output@@AEAA_NXZ@PEAU1?1??234@AEAA_NXZ@@?$standard_base@DV?$stream_output_adapter@D@__crt_stdio_output@@@__crt_stdio_output@@IEAA_NAEAPEAUansi_string@?1??type_case_Z@?$output_processor@DV?$stream_output_adapter@D@__crt_stdio_output@@V?$standard_base@DV?$stream_output_adapter@D@__crt_stdio_output@@@2@@1@AEAA_NXZ@@Z 00000001800dccf0 f i libucrtd:output.obj
 0002:0005fd30       ??$extract_argument_from_va_list@PEAUansi_string@?1??type_case_Z@?$output_processor@DV?$string_output_adapter@D@__crt_stdio_output@@V?$format_validation_base@DV?$string_output_adapter@D@__crt_stdio_output@@@2@@__crt_stdio_output@@AEAA_NXZ@PEAU1?1??234@AEAA_NXZ@@?$standard_base@DV?$string_output_adapter@D@__crt_stdio_output@@@__crt_stdio_output@@IEAA_NAEAPEAUansi_string@?1??type_case_Z@?$output_processor@DV?$string_output_adapter@D@__crt_stdio_output@@V?$format_validation_base@DV?$string_output_adapter@D@__crt_stdio_output@@@2@@1@AEAA_NXZ@@Z 00000001800dcd30 f i libucrtd:output.obj
 0002:0005fd70       ??$extract_argument_from_va_list@PEAUansi_string@?1??type_case_Z@?$output_processor@DV?$string_output_adapter@D@__crt_stdio_output@@V?$positional_parameter_base@DV?$string_output_adapter@D@__crt_stdio_output@@@2@@__crt_stdio_output@@AEAA_NXZ@PEAU1?1??234@AEAA_NXZ@@?$positional_parameter_base@DV?$string_output_adapter@D@__crt_stdio_output@@@__crt_stdio_output@@IEAA_NAEAPEAUansi_string@?1??type_case_Z@?$output_processor@DV?$string_output_adapter@D@__crt_stdio_output@@V?$positional_parameter_base@DV?$string_output_adapter@D@__crt_stdio_output@@@2@@1@AEAA_NXZ@@Z 00000001800dcd70 f i libucrtd:output.obj
 0002:0005ffa0       ??$extract_argument_from_va_list@PEAUansi_string@?1??type_case_Z@?$output_processor@DV?$string_output_adapter@D@__crt_stdio_output@@V?$positional_parameter_base@DV?$string_output_adapter@D@__crt_stdio_output@@@2@@__crt_stdio_output@@AEAA_NXZ@PEAU1?1??234@AEAA_NXZ@@?$standard_base@DV?$string_output_adapter@D@__crt_stdio_output@@@__crt_stdio_output@@IEAA_NAEAPEAUansi_string@?1??type_case_Z@?$output_processor@DV?$string_output_adapter@D@__crt_stdio_output@@V?$positional_parameter_base@DV?$string_output_adapter@D@__crt_stdio_output@@@2@@1@AEAA_NXZ@@Z 00000001800dcfa0 f i libucrtd:output.obj
 0002:0005ffe0       ??$extract_argument_from_va_list@PEAUansi_string@?1??type_case_Z@?$output_processor@DV?$string_output_adapter@D@__crt_stdio_output@@V?$standard_base@DV?$string_output_adapter@D@__crt_stdio_output@@@2@@__crt_stdio_output@@AEAA_NXZ@PEAU1?1??234@AEAA_NXZ@@?$standard_base@DV?$string_output_adapter@D@__crt_stdio_output@@@__crt_stdio_output@@IEAA_NAEAPEAUansi_string@?1??type_case_Z@?$output_processor@DV?$string_output_adapter@D@__crt_stdio_output@@V?$standard_base@DV?$string_output_adapter@D@__crt_stdio_output@@@2@@1@AEAA_NXZ@@Z 00000001800dcfe0 f i libucrtd:output.obj
 0002:00060020       ??$extract_argument_from_va_list@PEAUansi_string@?1??type_case_Z@?$output_processor@_WV?$stream_output_adapter@_W@__crt_stdio_output@@V?$format_validation_base@_WV?$stream_output_adapter@_W@__crt_stdio_output@@@2@@__crt_stdio_output@@AEAA_NXZ@PEAU1?1??234@AEAA_NXZ@@?$standard_base@_WV?$stream_output_adapter@_W@__crt_stdio_output@@@__crt_stdio_output@@IEAA_NAEAPEAUansi_string@?1??type_case_Z@?$output_processor@_WV?$stream_output_adapter@_W@__crt_stdio_output@@V?$format_validation_base@_WV?$stream_output_adapter@_W@__crt_stdio_output@@@2@@1@AEAA_NXZ@@Z 00000001800dd020 f i libucrtd:output.obj
 0002:00060060       ??$extract_argument_from_va_list@PEAUansi_string@?1??type_case_Z@?$output_processor@_WV?$stream_output_adapter@_W@__crt_stdio_output@@V?$positional_parameter_base@_WV?$stream_output_adapter@_W@__crt_stdio_output@@@2@@__crt_stdio_output@@AEAA_NXZ@PEAU1?1??234@AEAA_NXZ@@?$positional_parameter_base@_WV?$stream_output_adapter@_W@__crt_stdio_output@@@__crt_stdio_output@@IEAA_NAEAPEAUansi_string@?1??type_case_Z@?$output_processor@_WV?$stream_output_adapter@_W@__crt_stdio_output@@V?$positional_parameter_base@_WV?$stream_output_adapter@_W@__crt_stdio_output@@@2@@1@AEAA_NXZ@@Z 00000001800dd060 f i libucrtd:output.obj
 0002:00060290       ??$extract_argument_from_va_list@PEAUansi_string@?1??type_case_Z@?$output_processor@_WV?$stream_output_adapter@_W@__crt_stdio_output@@V?$positional_parameter_base@_WV?$stream_output_adapter@_W@__crt_stdio_output@@@2@@__crt_stdio_output@@AEAA_NXZ@PEAU1?1??234@AEAA_NXZ@@?$standard_base@_WV?$stream_output_adapter@_W@__crt_stdio_output@@@__crt_stdio_output@@IEAA_NAEAPEAUansi_string@?1??type_case_Z@?$output_processor@_WV?$stream_output_adapter@_W@__crt_stdio_output@@V?$positional_parameter_base@_WV?$stream_output_adapter@_W@__crt_stdio_output@@@2@@1@AEAA_NXZ@@Z 00000001800dd290 f i libucrtd:output.obj
 0002:000602d0       ??$extract_argument_from_va_list@PEAUansi_string@?1??type_case_Z@?$output_processor@_WV?$stream_output_adapter@_W@__crt_stdio_output@@V?$standard_base@_WV?$stream_output_adapter@_W@__crt_stdio_output@@@2@@__crt_stdio_output@@AEAA_NXZ@PEAU1?1??234@AEAA_NXZ@@?$standard_base@_WV?$stream_output_adapter@_W@__crt_stdio_output@@@__crt_stdio_output@@IEAA_NAEAPEAUansi_string@?1??type_case_Z@?$output_processor@_WV?$stream_output_adapter@_W@__crt_stdio_output@@V?$standard_base@_WV?$stream_output_adapter@_W@__crt_stdio_output@@@2@@1@AEAA_NXZ@@Z 00000001800dd2d0 f i libucrtd:output.obj
 0002:00060310       ??$extract_argument_from_va_list@PEAUansi_string@?1??type_case_Z@?$output_processor@_WV?$string_output_adapter@_W@__crt_stdio_output@@V?$format_validation_base@_WV?$string_output_adapter@_W@__crt_stdio_output@@@2@@__crt_stdio_output@@AEAA_NXZ@PEAU1?1??234@AEAA_NXZ@@?$standard_base@_WV?$string_output_adapter@_W@__crt_stdio_output@@@__crt_stdio_output@@IEAA_NAEAPEAUansi_string@?1??type_case_Z@?$output_processor@_WV?$string_output_adapter@_W@__crt_stdio_output@@V?$format_validation_base@_WV?$string_output_adapter@_W@__crt_stdio_output@@@2@@1@AEAA_NXZ@@Z 00000001800dd310 f i libucrtd:output.obj
 0002:00060350       ??$extract_argument_from_va_list@PEAUansi_string@?1??type_case_Z@?$output_processor@_WV?$string_output_adapter@_W@__crt_stdio_output@@V?$positional_parameter_base@_WV?$string_output_adapter@_W@__crt_stdio_output@@@2@@__crt_stdio_output@@AEAA_NXZ@PEAU1?1??234@AEAA_NXZ@@?$positional_parameter_base@_WV?$string_output_adapter@_W@__crt_stdio_output@@@__crt_stdio_output@@IEAA_NAEAPEAUansi_string@?1??type_case_Z@?$output_processor@_WV?$string_output_adapter@_W@__crt_stdio_output@@V?$positional_parameter_base@_WV?$string_output_adapter@_W@__crt_stdio_output@@@2@@1@AEAA_NXZ@@Z 00000001800dd350 f i libucrtd:output.obj
 0002:00060580       ??$extract_argument_from_va_list@PEAUansi_string@?1??type_case_Z@?$output_processor@_WV?$string_output_adapter@_W@__crt_stdio_output@@V?$positional_parameter_base@_WV?$string_output_adapter@_W@__crt_stdio_output@@@2@@__crt_stdio_output@@AEAA_NXZ@PEAU1?1??234@AEAA_NXZ@@?$standard_base@_WV?$string_output_adapter@_W@__crt_stdio_output@@@__crt_stdio_output@@IEAA_NAEAPEAUansi_string@?1??type_case_Z@?$output_processor@_WV?$string_output_adapter@_W@__crt_stdio_output@@V?$positional_parameter_base@_WV?$string_output_adapter@_W@__crt_stdio_output@@@2@@1@AEAA_NXZ@@Z 00000001800dd580 f i libucrtd:output.obj
 0002:000605c0       ??$extract_argument_from_va_list@PEAUansi_string@?1??type_case_Z@?$output_processor@_WV?$string_output_adapter@_W@__crt_stdio_output@@V?$standard_base@_WV?$string_output_adapter@_W@__crt_stdio_output@@@2@@__crt_stdio_output@@AEAA_NXZ@PEAU1?1??234@AEAA_NXZ@@?$standard_base@_WV?$string_output_adapter@_W@__crt_stdio_output@@@__crt_stdio_output@@IEAA_NAEAPEAUansi_string@?1??type_case_Z@?$output_processor@_WV?$string_output_adapter@_W@__crt_stdio_output@@V?$standard_base@_WV?$string_output_adapter@_W@__crt_stdio_output@@@2@@1@AEAA_NXZ@@Z 00000001800dd5c0 f i libucrtd:output.obj
 0002:00060600       ??$extract_argument_from_va_list@PEAXPEAX@?$positional_parameter_base@DV?$stream_output_adapter@D@__crt_stdio_output@@@__crt_stdio_output@@IEAA_NAEAPEAX@Z 00000001800dd600 f i libucrtd:output.obj
 0002:00060830       ??$extract_argument_from_va_list@PEAXPEAX@?$positional_parameter_base@DV?$string_output_adapter@D@__crt_stdio_output@@@__crt_stdio_output@@IEAA_NAEAPEAX@Z 00000001800dd830 f i libucrtd:output.obj
 0002:00060a60       ??$extract_argument_from_va_list@PEAXPEAX@?$positional_parameter_base@_WV?$stream_output_adapter@_W@__crt_stdio_output@@@__crt_stdio_output@@IEAA_NAEAPEAX@Z 00000001800dda60 f i libucrtd:output.obj
 0002:00060c90       ??$extract_argument_from_va_list@PEAXPEAX@?$positional_parameter_base@_WV?$string_output_adapter@_W@__crt_stdio_output@@@__crt_stdio_output@@IEAA_NAEAPEAX@Z 00000001800ddc90 f i libucrtd:output.obj
 0002:00060ec0       ??$extract_argument_from_va_list@PEAXPEAX@?$standard_base@DV?$stream_output_adapter@D@__crt_stdio_output@@@__crt_stdio_output@@IEAA_NAEAPEAX@Z 00000001800ddec0 f i libucrtd:output.obj
 0002:00060f00       ??$extract_argument_from_va_list@PEAXPEAX@?$standard_base@DV?$string_output_adapter@D@__crt_stdio_output@@@__crt_stdio_output@@IEAA_NAEAPEAX@Z 00000001800ddf00 f i libucrtd:output.obj
 0002:00060f40       ??$extract_argument_from_va_list@PEAXPEAX@?$standard_base@_WV?$stream_output_adapter@_W@__crt_stdio_output@@@__crt_stdio_output@@IEAA_NAEAPEAX@Z 00000001800ddf40 f i libucrtd:output.obj
 0002:00060f80       ??$extract_argument_from_va_list@PEAXPEAX@?$standard_base@_WV?$string_output_adapter@_W@__crt_stdio_output@@@__crt_stdio_output@@IEAA_NAEAPEAX@Z 00000001800ddf80 f i libucrtd:output.obj
 0002:00060fc0       ??$extract_argument_from_va_list@U_CRT_DOUBLE@@U1@@?$positional_parameter_base@DV?$stream_output_adapter@D@__crt_stdio_output@@@__crt_stdio_output@@IEAA_NAEAU_CRT_DOUBLE@@@Z 00000001800ddfc0 f i libucrtd:output.obj
 0002:00061260       ??$extract_argument_from_va_list@U_CRT_DOUBLE@@U1@@?$positional_parameter_base@DV?$string_output_adapter@D@__crt_stdio_output@@@__crt_stdio_output@@IEAA_NAEAU_CRT_DOUBLE@@@Z 00000001800de260 f i libucrtd:output.obj
 0002:00061500       ??$extract_argument_from_va_list@U_CRT_DOUBLE@@U1@@?$positional_parameter_base@_WV?$stream_output_adapter@_W@__crt_stdio_output@@@__crt_stdio_output@@IEAA_NAEAU_CRT_DOUBLE@@@Z 00000001800de500 f i libucrtd:output.obj
 0002:000617a0       ??$extract_argument_from_va_list@U_CRT_DOUBLE@@U1@@?$positional_parameter_base@_WV?$string_output_adapter@_W@__crt_stdio_output@@@__crt_stdio_output@@IEAA_NAEAU_CRT_DOUBLE@@@Z 00000001800de7a0 f i libucrtd:output.obj
 0002:00061a40       ??$extract_argument_from_va_list@U_CRT_DOUBLE@@U1@@?$standard_base@DV?$stream_output_adapter@D@__crt_stdio_output@@@__crt_stdio_output@@IEAA_NAEAU_CRT_DOUBLE@@@Z 00000001800dea40 f i libucrtd:output.obj
 0002:00061aa0       ??$extract_argument_from_va_list@U_CRT_DOUBLE@@U1@@?$standard_base@DV?$string_output_adapter@D@__crt_stdio_output@@@__crt_stdio_output@@IEAA_NAEAU_CRT_DOUBLE@@@Z 00000001800deaa0 f i libucrtd:output.obj
 0002:00061b00       ??$extract_argument_from_va_list@U_CRT_DOUBLE@@U1@@?$standard_base@_WV?$stream_output_adapter@_W@__crt_stdio_output@@@__crt_stdio_output@@IEAA_NAEAU_CRT_DOUBLE@@@Z 00000001800deb00 f i libucrtd:output.obj
 0002:00061b60       ??$extract_argument_from_va_list@U_CRT_DOUBLE@@U1@@?$standard_base@_WV?$string_output_adapter@_W@__crt_stdio_output@@@__crt_stdio_output@@IEAA_NAEAU_CRT_DOUBLE@@@Z 00000001800deb60 f i libucrtd:output.obj
 0002:00061bc0       ??$extract_argument_from_va_list@_J_J@?$positional_parameter_base@DV?$stream_output_adapter@D@__crt_stdio_output@@@__crt_stdio_output@@IEAA_NAEA_J@Z 00000001800debc0 f i libucrtd:output.obj
 0002:00061df0       ??$extract_argument_from_va_list@_J_J@?$positional_parameter_base@DV?$string_output_adapter@D@__crt_stdio_output@@@__crt_stdio_output@@IEAA_NAEA_J@Z 00000001800dedf0 f i libucrtd:output.obj
 0002:00062020       ??$extract_argument_from_va_list@_J_J@?$positional_parameter_base@_WV?$stream_output_adapter@_W@__crt_stdio_output@@@__crt_stdio_output@@IEAA_NAEA_J@Z 00000001800df020 f i libucrtd:output.obj
 0002:00062250       ??$extract_argument_from_va_list@_J_J@?$positional_parameter_base@_WV?$string_output_adapter@_W@__crt_stdio_output@@@__crt_stdio_output@@IEAA_NAEA_J@Z 00000001800df250 f i libucrtd:output.obj
 0002:00062480       ??$extract_argument_from_va_list@_J_J@?$standard_base@DV?$stream_output_adapter@D@__crt_stdio_output@@@__crt_stdio_output@@IEAA_NAEA_J@Z 00000001800df480 f i libucrtd:output.obj
 0002:000624c0       ??$extract_argument_from_va_list@_J_J@?$standard_base@DV?$string_output_adapter@D@__crt_stdio_output@@@__crt_stdio_output@@IEAA_NAEA_J@Z 00000001800df4c0 f i libucrtd:output.obj
 0002:00062500       ??$extract_argument_from_va_list@_J_J@?$standard_base@_WV?$stream_output_adapter@_W@__crt_stdio_output@@@__crt_stdio_output@@IEAA_NAEA_J@Z 00000001800df500 f i libucrtd:output.obj
 0002:00062540       ??$extract_argument_from_va_list@_J_J@?$standard_base@_WV?$string_output_adapter@_W@__crt_stdio_output@@@__crt_stdio_output@@IEAA_NAEA_J@Z 00000001800df540 f i libucrtd:output.obj
 0002:00062580       ??$extract_argument_from_va_list@_K_J@?$positional_parameter_base@DV?$stream_output_adapter@D@__crt_stdio_output@@@__crt_stdio_output@@IEAA_NAEA_J@Z 00000001800df580 f i libucrtd:output.obj
 0002:000627b0       ??$extract_argument_from_va_list@_K_J@?$positional_parameter_base@DV?$string_output_adapter@D@__crt_stdio_output@@@__crt_stdio_output@@IEAA_NAEA_J@Z 00000001800df7b0 f i libucrtd:output.obj
 0002:000629e0       ??$extract_argument_from_va_list@_K_J@?$positional_parameter_base@_WV?$stream_output_adapter@_W@__crt_stdio_output@@@__crt_stdio_output@@IEAA_NAEA_J@Z 00000001800df9e0 f i libucrtd:output.obj
 0002:00062c10       ??$extract_argument_from_va_list@_K_J@?$positional_parameter_base@_WV?$string_output_adapter@_W@__crt_stdio_output@@@__crt_stdio_output@@IEAA_NAEA_J@Z 00000001800dfc10 f i libucrtd:output.obj
 0002:00062e40       ??$extract_argument_from_va_list@_K_J@?$standard_base@DV?$stream_output_adapter@D@__crt_stdio_output@@@__crt_stdio_output@@IEAA_NAEA_J@Z 00000001800dfe40 f i libucrtd:output.obj
 0002:00062e80       ??$extract_argument_from_va_list@_K_J@?$standard_base@DV?$string_output_adapter@D@__crt_stdio_output@@@__crt_stdio_output@@IEAA_NAEA_J@Z 00000001800dfe80 f i libucrtd:output.obj
 0002:00062ec0       ??$extract_argument_from_va_list@_K_J@?$standard_base@_WV?$stream_output_adapter@_W@__crt_stdio_output@@@__crt_stdio_output@@IEAA_NAEA_J@Z 00000001800dfec0 f i libucrtd:output.obj
 0002:00062f00       ??$extract_argument_from_va_list@_K_J@?$standard_base@_WV?$string_output_adapter@_W@__crt_stdio_output@@@__crt_stdio_output@@IEAA_NAEA_J@Z 00000001800dff00 f i libucrtd:output.obj
 0002:00062f40       ??$extract_argument_from_va_list@_W_W@?$positional_parameter_base@DV?$stream_output_adapter@D@__crt_stdio_output@@@__crt_stdio_output@@IEAA_NAEA_W@Z 00000001800dff40 f i libucrtd:output.obj
 0002:00063170       ??$extract_argument_from_va_list@_W_W@?$positional_parameter_base@DV?$string_output_adapter@D@__crt_stdio_output@@@__crt_stdio_output@@IEAA_NAEA_W@Z 00000001800e0170 f i libucrtd:output.obj
 0002:000633a0       ??$extract_argument_from_va_list@_W_W@?$positional_parameter_base@_WV?$stream_output_adapter@_W@__crt_stdio_output@@@__crt_stdio_output@@IEAA_NAEA_W@Z 00000001800e03a0 f i libucrtd:output.obj
 0002:000635d0       ??$extract_argument_from_va_list@_W_W@?$positional_parameter_base@_WV?$string_output_adapter@_W@__crt_stdio_output@@@__crt_stdio_output@@IEAA_NAEA_W@Z 00000001800e05d0 f i libucrtd:output.obj
 0002:00063800       ??$extract_argument_from_va_list@_W_W@?$standard_base@DV?$stream_output_adapter@D@__crt_stdio_output@@@__crt_stdio_output@@IEAA_NAEA_W@Z 00000001800e0800 f i libucrtd:output.obj
 0002:00063840       ??$extract_argument_from_va_list@_W_W@?$standard_base@DV?$string_output_adapter@D@__crt_stdio_output@@@__crt_stdio_output@@IEAA_NAEA_W@Z 00000001800e0840 f i libucrtd:output.obj
 0002:00063880       ??$extract_argument_from_va_list@_W_W@?$standard_base@_WV?$stream_output_adapter@_W@__crt_stdio_output@@@__crt_stdio_output@@IEAA_NAEA_W@Z 00000001800e0880 f i libucrtd:output.obj
 0002:000638c0       ??$extract_argument_from_va_list@_W_W@?$standard_base@_WV?$string_output_adapter@_W@__crt_stdio_output@@@__crt_stdio_output@@IEAA_NAEA_W@Z 00000001800e08c0 f i libucrtd:output.obj
 0002:00063900       ??$get_parameter_type@D@?$positional_parameter_base@DV?$stream_output_adapter@D@__crt_stdio_output@@@__crt_stdio_output@@CA?AW4parameter_type@01@PEAD@Z 00000001800e0900 f i libucrtd:output.obj
 0002:00063910       ??$get_parameter_type@D@?$positional_parameter_base@DV?$string_output_adapter@D@__crt_stdio_output@@@__crt_stdio_output@@CA?AW4parameter_type@01@PEAD@Z 00000001800e0910 f i libucrtd:output.obj
 0002:00063920       ??$get_parameter_type@D@?$positional_parameter_base@_WV?$stream_output_adapter@_W@__crt_stdio_output@@@__crt_stdio_output@@CA?AW4parameter_type@01@PEAD@Z 00000001800e0920 f i libucrtd:output.obj
 0002:00063930       ??$get_parameter_type@D@?$positional_parameter_base@_WV?$string_output_adapter@_W@__crt_stdio_output@@@__crt_stdio_output@@CA?AW4parameter_type@01@PEAD@Z 00000001800e0930 f i libucrtd:output.obj
 0002:00063940       ??$get_parameter_type@Uansi_string@?1??type_case_Z@?$output_processor@DV?$stream_output_adapter@D@__crt_stdio_output@@V?$positional_parameter_base@DV?$stream_output_adapter@D@__crt_stdio_output@@@2@@__crt_stdio_output@@AEAA_NXZ@@?$positional_parameter_base@DV?$stream_output_adapter@D@__crt_stdio_output@@@__crt_stdio_output@@CA?AW4parameter_type@01@PEAUansi_string@?1??type_case_Z@?$output_processor@DV?$stream_output_adapter@D@__crt_stdio_output@@V?$positional_parameter_base@DV?$stream_output_adapter@D@__crt_stdio_output@@@2@@1@AEAA_NXZ@@Z 00000001800e0940 f i libucrtd:output.obj
 0002:00063950       ??$get_parameter_type@Uansi_string@?1??type_case_Z@?$output_processor@DV?$string_output_adapter@D@__crt_stdio_output@@V?$positional_parameter_base@DV?$string_output_adapter@D@__crt_stdio_output@@@2@@__crt_stdio_output@@AEAA_NXZ@@?$positional_parameter_base@DV?$string_output_adapter@D@__crt_stdio_output@@@__crt_stdio_output@@CA?AW4parameter_type@01@PEAUansi_string@?1??type_case_Z@?$output_processor@DV?$string_output_adapter@D@__crt_stdio_output@@V?$positional_parameter_base@DV?$string_output_adapter@D@__crt_stdio_output@@@2@@1@AEAA_NXZ@@Z 00000001800e0950 f i libucrtd:output.obj
 0002:00063960       ??$get_parameter_type@Uansi_string@?1??type_case_Z@?$output_processor@_WV?$stream_output_adapter@_W@__crt_stdio_output@@V?$positional_parameter_base@_WV?$stream_output_adapter@_W@__crt_stdio_output@@@2@@__crt_stdio_output@@AEAA_NXZ@@?$positional_parameter_base@_WV?$stream_output_adapter@_W@__crt_stdio_output@@@__crt_stdio_output@@CA?AW4parameter_type@01@PEAUansi_string@?1??type_case_Z@?$output_processor@_WV?$stream_output_adapter@_W@__crt_stdio_output@@V?$positional_parameter_base@_WV?$stream_output_adapter@_W@__crt_stdio_output@@@2@@1@AEAA_NXZ@@Z 00000001800e0960 f i libucrtd:output.obj
 0002:00063970       ??$get_parameter_type@Uansi_string@?1??type_case_Z@?$output_processor@_WV?$string_output_adapter@_W@__crt_stdio_output@@V?$positional_parameter_base@_WV?$string_output_adapter@_W@__crt_stdio_output@@@2@@__crt_stdio_output@@AEAA_NXZ@@?$positional_parameter_base@_WV?$string_output_adapter@_W@__crt_stdio_output@@@__crt_stdio_output@@CA?AW4parameter_type@01@PEAUansi_string@?1??type_case_Z@?$output_processor@_WV?$string_output_adapter@_W@__crt_stdio_output@@V?$positional_parameter_base@_WV?$string_output_adapter@_W@__crt_stdio_output@@@2@@1@AEAA_NXZ@@Z 00000001800e0970 f i libucrtd:output.obj
 0002:00063980       ??$get_parameter_type@X@?$positional_parameter_base@DV?$stream_output_adapter@D@__crt_stdio_output@@@__crt_stdio_output@@CA?AW4parameter_type@01@PEAX@Z 00000001800e0980 f i libucrtd:output.obj
 0002:00063990       ??$get_parameter_type@X@?$positional_parameter_base@DV?$string_output_adapter@D@__crt_stdio_output@@@__crt_stdio_output@@CA?AW4parameter_type@01@PEAX@Z 00000001800e0990 f i libucrtd:output.obj
 0002:000639a0       ??$get_parameter_type@X@?$positional_parameter_base@_WV?$stream_output_adapter@_W@__crt_stdio_output@@@__crt_stdio_output@@CA?AW4parameter_type@01@PEAX@Z 00000001800e09a0 f i libucrtd:output.obj
 0002:000639b0       ??$get_parameter_type@X@?$positional_parameter_base@_WV?$string_output_adapter@_W@__crt_stdio_output@@@__crt_stdio_output@@CA?AW4parameter_type@01@PEAX@Z 00000001800e09b0 f i libucrtd:output.obj
 0002:000639c0       ??$is_character_specifier@D@?$positional_parameter_base@DV?$stream_output_adapter@D@__crt_stdio_output@@@__crt_stdio_output@@CA_ND@Z 00000001800e09c0 f i libucrtd:output.obj
 0002:00063a10       ??$is_character_specifier@D@?$positional_parameter_base@DV?$string_output_adapter@D@__crt_stdio_output@@@__crt_stdio_output@@CA_ND@Z 00000001800e0a10 f i libucrtd:output.obj
 0002:00063a60       ??$is_character_specifier@_W@?$positional_parameter_base@_WV?$stream_output_adapter@_W@__crt_stdio_output@@@__crt_stdio_output@@CA_N_W@Z 00000001800e0a60 f i libucrtd:output.obj
 0002:00063ab0       ??$is_character_specifier@_W@?$positional_parameter_base@_WV?$string_output_adapter@_W@__crt_stdio_output@@@__crt_stdio_output@@CA_N_W@Z 00000001800e0ab0 f i libucrtd:output.obj
 0002:00063b00       ??$is_integral_specifier@D@?$positional_parameter_base@DV?$stream_output_adapter@D@__crt_stdio_output@@@__crt_stdio_output@@CA_ND@Z 00000001800e0b00 f i libucrtd:output.obj
 0002:00063b80       ??$is_integral_specifier@D@?$positional_parameter_base@DV?$string_output_adapter@D@__crt_stdio_output@@@__crt_stdio_output@@CA_ND@Z 00000001800e0b80 f i libucrtd:output.obj
 0002:00063c00       ??$is_integral_specifier@_W@?$positional_parameter_base@_WV?$stream_output_adapter@_W@__crt_stdio_output@@@__crt_stdio_output@@CA_N_W@Z 00000001800e0c00 f i libucrtd:output.obj
 0002:00063c90       ??$is_integral_specifier@_W@?$positional_parameter_base@_WV?$string_output_adapter@_W@__crt_stdio_output@@@__crt_stdio_output@@CA_N_W@Z 00000001800e0c90 f i libucrtd:output.obj
 0002:00063d20       ??$is_overflow_condition@K@__crt_strtox@@YA_NIK@Z 00000001800e0d20 f i libucrtd:output.obj
 0002:00063da0       ??$is_pointer_specifier@D@?$positional_parameter_base@DV?$stream_output_adapter@D@__crt_stdio_output@@@__crt_stdio_output@@CA_ND@Z 00000001800e0da0 f i libucrtd:output.obj
 0002:00063de0       ??$is_pointer_specifier@D@?$positional_parameter_base@DV?$string_output_adapter@D@__crt_stdio_output@@@__crt_stdio_output@@CA_ND@Z 00000001800e0de0 f i libucrtd:output.obj
 0002:00063e20       ??$is_pointer_specifier@_W@?$positional_parameter_base@_WV?$stream_output_adapter@_W@__crt_stdio_output@@@__crt_stdio_output@@CA_N_W@Z 00000001800e0e20 f i libucrtd:output.obj
 0002:00063e60       ??$is_pointer_specifier@_W@?$positional_parameter_base@_WV?$string_output_adapter@_W@__crt_stdio_output@@@__crt_stdio_output@@CA_N_W@Z 00000001800e0e60 f i libucrtd:output.obj
 0002:00063ea0       ??$is_string_specifier@D@?$positional_parameter_base@DV?$stream_output_adapter@D@__crt_stdio_output@@@__crt_stdio_output@@CA_ND@Z 00000001800e0ea0 f i libucrtd:output.obj
 0002:00063ef0       ??$is_string_specifier@D@?$positional_parameter_base@DV?$string_output_adapter@D@__crt_stdio_output@@@__crt_stdio_output@@CA_ND@Z 00000001800e0ef0 f i libucrtd:output.obj
 0002:00063f40       ??$is_string_specifier@_W@?$positional_parameter_base@_WV?$stream_output_adapter@_W@__crt_stdio_output@@@__crt_stdio_output@@CA_N_W@Z 00000001800e0f40 f i libucrtd:output.obj
 0002:00063f90       ??$is_string_specifier@_W@?$positional_parameter_base@_WV?$string_output_adapter@_W@__crt_stdio_output@@@__crt_stdio_output@@CA_N_W@Z 00000001800e0f90 f i libucrtd:output.obj
 0002:00063fe0       ??$is_wide_character_specifier@D@__crt_stdio_output@@YA_N_KDW4length_modifier@0@@Z 00000001800e0fe0 f i libucrtd:output.obj
 0002:000640a0       ??$is_wide_character_specifier@_W@__crt_stdio_output@@YA_N_K_WW4length_modifier@0@@Z 00000001800e10a0 f i libucrtd:output.obj
 0002:000641a0       ??$make_c_string_character_source@DPEAPEAD@__crt_strtox@@YA?AV?$c_string_character_source@D@0@QEBDQEAPEAD@Z 00000001800e11a0 f i libucrtd:output.obj
 0002:000641e0       ??$make_c_string_character_source@_WPEAPEA_W@__crt_strtox@@YA?AV?$c_string_character_source@_W@0@QEB_WQEAPEA_W@Z 00000001800e11e0 f i libucrtd:output.obj
 0002:00064220       ??$parse_integer@KV?$c_string_character_source@D@__crt_strtox@@$0A@@__crt_strtox@@YAKAEAV__crt_cached_ptd_host@@V?$c_string_character_source@D@0@H_N@Z 00000001800e1220 f i libucrtd:output.obj
 0002:000647c0       ??$parse_integer@KV?$c_string_character_source@_W@__crt_strtox@@$0A@@__crt_strtox@@YAKAEAV__crt_cached_ptd_host@@V?$c_string_character_source@_W@0@H_N@Z 00000001800e17c0 f i libucrtd:output.obj
 0002:00064d60       ??$peek_va_arg@C@__crt_stdio_output@@YACPEAD@Z 00000001800e1d60 f i libucrtd:output.obj
 0002:00064dd0       ??$peek_va_arg@E@__crt_stdio_output@@YAEPEAD@Z 00000001800e1dd0 f i libucrtd:output.obj
 0002:00064e40       ??$peek_va_arg@F@__crt_stdio_output@@YAFPEAD@Z 00000001800e1e40 f i libucrtd:output.obj
 0002:00064eb0       ??$peek_va_arg@G@__crt_stdio_output@@YAGPEAD@Z 00000001800e1eb0 f i libucrtd:output.obj
 0002:00064f20       ??$peek_va_arg@H@__crt_stdio_output@@YAHPEAD@Z 00000001800e1f20 f i libucrtd:output.obj
 0002:00064f90       ??$peek_va_arg@I@__crt_stdio_output@@YAIPEAD@Z 00000001800e1f90 f i libucrtd:output.obj
 0002:00065000       ??$peek_va_arg@PEAD@__crt_stdio_output@@YAPEADPEAD@Z 00000001800e2000 f i libucrtd:output.obj
 0002:00065070       ??$peek_va_arg@PEAUansi_string@?1??type_case_Z@?$output_processor@DV?$stream_output_adapter@D@__crt_stdio_output@@V?$positional_parameter_base@DV?$stream_output_adapter@D@__crt_stdio_output@@@2@@__crt_stdio_output@@AEAA_NXZ@@__crt_stdio_output@@YAPEAUansi_string@?1??type_case_Z@?$output_processor@DV?$stream_output_adapter@D@__crt_stdio_output@@V?$positional_parameter_base@DV?$stream_output_adapter@D@__crt_stdio_output@@@2@@0@AEAA_NXZ@PEAD@Z 00000001800e2070 f i libucrtd:output.obj
 0002:000650e0       ??$peek_va_arg@PEAUansi_string@?1??type_case_Z@?$output_processor@DV?$string_output_adapter@D@__crt_stdio_output@@V?$positional_parameter_base@DV?$string_output_adapter@D@__crt_stdio_output@@@2@@__crt_stdio_output@@AEAA_NXZ@@__crt_stdio_output@@YAPEAUansi_string@?1??type_case_Z@?$output_processor@DV?$string_output_adapter@D@__crt_stdio_output@@V?$positional_parameter_base@DV?$string_output_adapter@D@__crt_stdio_output@@@2@@0@AEAA_NXZ@PEAD@Z 00000001800e20e0 f i libucrtd:output.obj
 0002:00065150       ??$peek_va_arg@PEAUansi_string@?1??type_case_Z@?$output_processor@_WV?$stream_output_adapter@_W@__crt_stdio_output@@V?$positional_parameter_base@_WV?$stream_output_adapter@_W@__crt_stdio_output@@@2@@__crt_stdio_output@@AEAA_NXZ@@__crt_stdio_output@@YAPEAUansi_string@?1??type_case_Z@?$output_processor@_WV?$stream_output_adapter@_W@__crt_stdio_output@@V?$positional_parameter_base@_WV?$stream_output_adapter@_W@__crt_stdio_output@@@2@@0@AEAA_NXZ@PEAD@Z 00000001800e2150 f i libucrtd:output.obj
 0002:000651c0       ??$peek_va_arg@PEAUansi_string@?1??type_case_Z@?$output_processor@_WV?$string_output_adapter@_W@__crt_stdio_output@@V?$positional_parameter_base@_WV?$string_output_adapter@_W@__crt_stdio_output@@@2@@__crt_stdio_output@@AEAA_NXZ@@__crt_stdio_output@@YAPEAUansi_string@?1??type_case_Z@?$output_processor@_WV?$string_output_adapter@_W@__crt_stdio_output@@V?$positional_parameter_base@_WV?$string_output_adapter@_W@__crt_stdio_output@@@2@@0@AEAA_NXZ@PEAD@Z 00000001800e21c0 f i libucrtd:output.obj
 0002:00065230       ??$peek_va_arg@PEAX@__crt_stdio_output@@YAPEAXPEAD@Z 00000001800e2230 f i libucrtd:output.obj
 0002:000652a0       ??$peek_va_arg@U_CRT_DOUBLE@@@__crt_stdio_output@@YA?AU_CRT_DOUBLE@@PEAD@Z 00000001800e22a0 f i libucrtd:output.obj
 0002:00065310       ??$peek_va_arg@_J@__crt_stdio_output@@YA_JPEAD@Z 00000001800e2310 f i libucrtd:output.obj
 0002:00065380       ??$peek_va_arg@_K@__crt_stdio_output@@YA_KPEAD@Z 00000001800e2380 f i libucrtd:output.obj
 0002:000653f0       ??$peek_va_arg@_W@__crt_stdio_output@@YA_WPEAD@Z 00000001800e23f0 f i libucrtd:output.obj
 0002:00065460       ??$puttc_nolock_internal@AEBDPEAU_iobuf@@AEAV__crt_cached_ptd_host@@@?$__crt_char_traits@D@@SAHAEBD$$QEAPEAU_iobuf@@AEAV__crt_cached_ptd_host@@@Z 00000001800e2460 f i libucrtd:output.obj
 0002:000654b0       ??$puttc_nolock_internal@AEB_WPEAU_iobuf@@AEAV__crt_cached_ptd_host@@@?$__crt_char_traits@_W@@SAGAEB_W$$QEAPEAU_iobuf@@AEAV__crt_cached_ptd_host@@@Z 00000001800e24b0 f i libucrtd:output.obj
 0002:000654f0       ??$read_va_arg@C@__crt_stdio_output@@YACAEAPEAD@Z 00000001800e24f0 f i libucrtd:output.obj
 0002:00065570       ??$read_va_arg@E@__crt_stdio_output@@YAEAEAPEAD@Z 00000001800e2570 f i libucrtd:output.obj
 0002:000655f0       ??$read_va_arg@F@__crt_stdio_output@@YAFAEAPEAD@Z 00000001800e25f0 f i libucrtd:output.obj
 0002:00065670       ??$read_va_arg@G@__crt_stdio_output@@YAGAEAPEAD@Z 00000001800e2670 f i libucrtd:output.obj
 0002:000656f0       ??$read_va_arg@H@__crt_stdio_output@@YAHAEAPEAD@Z 00000001800e26f0 f i libucrtd:output.obj
 0002:00065770       ??$read_va_arg@I@__crt_stdio_output@@YAIAEAPEAD@Z 00000001800e2770 f i libucrtd:output.obj
 0002:000657f0       ??$read_va_arg@PEAD@__crt_stdio_output@@YAPEADAEAPEAD@Z 00000001800e27f0 f i libucrtd:output.obj
 0002:00065870       ??$read_va_arg@PEAUansi_string@?1??type_case_Z@?$output_processor@DV?$stream_output_adapter@D@__crt_stdio_output@@V?$format_validation_base@DV?$stream_output_adapter@D@__crt_stdio_output@@@2@@__crt_stdio_output@@AEAA_NXZ@@__crt_stdio_output@@YAPEAUansi_string@?1??type_case_Z@?$output_processor@DV?$stream_output_adapter@D@__crt_stdio_output@@V?$format_validation_base@DV?$stream_output_adapter@D@__crt_stdio_output@@@2@@0@AEAA_NXZ@AEAPEAD@Z 00000001800e2870 f i libucrtd:output.obj
 0002:000658f0       ??$read_va_arg@PEAUansi_string@?1??type_case_Z@?$output_processor@DV?$stream_output_adapter@D@__crt_stdio_output@@V?$positional_parameter_base@DV?$stream_output_adapter@D@__crt_stdio_output@@@2@@__crt_stdio_output@@AEAA_NXZ@@__crt_stdio_output@@YAPEAUansi_string@?1??type_case_Z@?$output_processor@DV?$stream_output_adapter@D@__crt_stdio_output@@V?$positional_parameter_base@DV?$stream_output_adapter@D@__crt_stdio_output@@@2@@0@AEAA_NXZ@AEAPEAD@Z 00000001800e28f0 f i libucrtd:output.obj
 0002:00065970       ??$read_va_arg@PEAUansi_string@?1??type_case_Z@?$output_processor@DV?$stream_output_adapter@D@__crt_stdio_output@@V?$standard_base@DV?$stream_output_adapter@D@__crt_stdio_output@@@2@@__crt_stdio_output@@AEAA_NXZ@@__crt_stdio_output@@YAPEAUansi_string@?1??type_case_Z@?$output_processor@DV?$stream_output_adapter@D@__crt_stdio_output@@V?$standard_base@DV?$stream_output_adapter@D@__crt_stdio_output@@@2@@0@AEAA_NXZ@AEAPEAD@Z 00000001800e2970 f i libucrtd:output.obj
 0002:000659f0       ??$read_va_arg@PEAUansi_string@?1??type_case_Z@?$output_processor@DV?$string_output_adapter@D@__crt_stdio_output@@V?$format_validation_base@DV?$string_output_adapter@D@__crt_stdio_output@@@2@@__crt_stdio_output@@AEAA_NXZ@@__crt_stdio_output@@YAPEAUansi_string@?1??type_case_Z@?$output_processor@DV?$string_output_adapter@D@__crt_stdio_output@@V?$format_validation_base@DV?$string_output_adapter@D@__crt_stdio_output@@@2@@0@AEAA_NXZ@AEAPEAD@Z 00000001800e29f0 f i libucrtd:output.obj
 0002:00065a70       ??$read_va_arg@PEAUansi_string@?1??type_case_Z@?$output_processor@DV?$string_output_adapter@D@__crt_stdio_output@@V?$positional_parameter_base@DV?$string_output_adapter@D@__crt_stdio_output@@@2@@__crt_stdio_output@@AEAA_NXZ@@__crt_stdio_output@@YAPEAUansi_string@?1??type_case_Z@?$output_processor@DV?$string_output_adapter@D@__crt_stdio_output@@V?$positional_parameter_base@DV?$string_output_adapter@D@__crt_stdio_output@@@2@@0@AEAA_NXZ@AEAPEAD@Z 00000001800e2a70 f i libucrtd:output.obj
 0002:00065af0       ??$read_va_arg@PEAUansi_string@?1??type_case_Z@?$output_processor@DV?$string_output_adapter@D@__crt_stdio_output@@V?$standard_base@DV?$string_output_adapter@D@__crt_stdio_output@@@2@@__crt_stdio_output@@AEAA_NXZ@@__crt_stdio_output@@YAPEAUansi_string@?1??type_case_Z@?$output_processor@DV?$string_output_adapter@D@__crt_stdio_output@@V?$standard_base@DV?$string_output_adapter@D@__crt_stdio_output@@@2@@0@AEAA_NXZ@AEAPEAD@Z 00000001800e2af0 f i libucrtd:output.obj
 0002:00065b70       ??$read_va_arg@PEAUansi_string@?1??type_case_Z@?$output_processor@_WV?$stream_output_adapter@_W@__crt_stdio_output@@V?$format_validation_base@_WV?$stream_output_adapter@_W@__crt_stdio_output@@@2@@__crt_stdio_output@@AEAA_NXZ@@__crt_stdio_output@@YAPEAUansi_string@?1??type_case_Z@?$output_processor@_WV?$stream_output_adapter@_W@__crt_stdio_output@@V?$format_validation_base@_WV?$stream_output_adapter@_W@__crt_stdio_output@@@2@@0@AEAA_NXZ@AEAPEAD@Z 00000001800e2b70 f i libucrtd:output.obj
 0002:00065bf0       ??$read_va_arg@PEAUansi_string@?1??type_case_Z@?$output_processor@_WV?$stream_output_adapter@_W@__crt_stdio_output@@V?$positional_parameter_base@_WV?$stream_output_adapter@_W@__crt_stdio_output@@@2@@__crt_stdio_output@@AEAA_NXZ@@__crt_stdio_output@@YAPEAUansi_string@?1??type_case_Z@?$output_processor@_WV?$stream_output_adapter@_W@__crt_stdio_output@@V?$positional_parameter_base@_WV?$stream_output_adapter@_W@__crt_stdio_output@@@2@@0@AEAA_NXZ@AEAPEAD@Z 00000001800e2bf0 f i libucrtd:output.obj
 0002:00065c70       ??$read_va_arg@PEAUansi_string@?1??type_case_Z@?$output_processor@_WV?$stream_output_adapter@_W@__crt_stdio_output@@V?$standard_base@_WV?$stream_output_adapter@_W@__crt_stdio_output@@@2@@__crt_stdio_output@@AEAA_NXZ@@__crt_stdio_output@@YAPEAUansi_string@?1??type_case_Z@?$output_processor@_WV?$stream_output_adapter@_W@__crt_stdio_output@@V?$standard_base@_WV?$stream_output_adapter@_W@__crt_stdio_output@@@2@@0@AEAA_NXZ@AEAPEAD@Z 00000001800e2c70 f i libucrtd:output.obj
 0002:00065cf0       ??$read_va_arg@PEAUansi_string@?1??type_case_Z@?$output_processor@_WV?$string_output_adapter@_W@__crt_stdio_output@@V?$format_validation_base@_WV?$string_output_adapter@_W@__crt_stdio_output@@@2@@__crt_stdio_output@@AEAA_NXZ@@__crt_stdio_output@@YAPEAUansi_string@?1??type_case_Z@?$output_processor@_WV?$string_output_adapter@_W@__crt_stdio_output@@V?$format_validation_base@_WV?$string_output_adapter@_W@__crt_stdio_output@@@2@@0@AEAA_NXZ@AEAPEAD@Z 00000001800e2cf0 f i libucrtd:output.obj
 0002:00065d70       ??$read_va_arg@PEAUansi_string@?1??type_case_Z@?$output_processor@_WV?$string_output_adapter@_W@__crt_stdio_output@@V?$positional_parameter_base@_WV?$string_output_adapter@_W@__crt_stdio_output@@@2@@__crt_stdio_output@@AEAA_NXZ@@__crt_stdio_output@@YAPEAUansi_string@?1??type_case_Z@?$output_processor@_WV?$string_output_adapter@_W@__crt_stdio_output@@V?$positional_parameter_base@_WV?$string_output_adapter@_W@__crt_stdio_output@@@2@@0@AEAA_NXZ@AEAPEAD@Z 00000001800e2d70 f i libucrtd:output.obj
 0002:00065df0       ??$read_va_arg@PEAUansi_string@?1??type_case_Z@?$output_processor@_WV?$string_output_adapter@_W@__crt_stdio_output@@V?$standard_base@_WV?$string_output_adapter@_W@__crt_stdio_output@@@2@@__crt_stdio_output@@AEAA_NXZ@@__crt_stdio_output@@YAPEAUansi_string@?1??type_case_Z@?$output_processor@_WV?$string_output_adapter@_W@__crt_stdio_output@@V?$standard_base@_WV?$string_output_adapter@_W@__crt_stdio_output@@@2@@0@AEAA_NXZ@AEAPEAD@Z 00000001800e2df0 f i libucrtd:output.obj
 0002:00065e70       ??$read_va_arg@PEAX@__crt_stdio_output@@YAPEAXAEAPEAD@Z 00000001800e2e70 f i libucrtd:output.obj
 0002:00065ef0       ??$read_va_arg@U_CRT_DOUBLE@@@__crt_stdio_output@@YA?AU_CRT_DOUBLE@@AEAPEAD@Z 00000001800e2ef0 f i libucrtd:output.obj
 0002:00065f70       ??$read_va_arg@_J@__crt_stdio_output@@YA_JAEAPEAD@Z 00000001800e2f70 f i libucrtd:output.obj
 0002:00065ff0       ??$read_va_arg@_K@__crt_stdio_output@@YA_KAEAPEAD@Z 00000001800e2ff0 f i libucrtd:output.obj
 0002:00066070       ??$read_va_arg@_W@__crt_stdio_output@@YA_WAEAPEAD@Z 00000001800e3070 f i libucrtd:output.obj
 0002:000660f0       ??$scratch_count@D@formatting_buffer@__crt_stdio_output@@QEBA_KXZ 00000001800e30f0 f i libucrtd:output.obj
 0002:00066110       ??$scratch_data@D@formatting_buffer@__crt_stdio_output@@QEAAPEADXZ 00000001800e3110 f i libucrtd:output.obj
 0002:000661a0       ??$type_case_integer@$07@?$output_processor@DV?$stream_output_adapter@D@__crt_stdio_output@@V?$format_validation_base@DV?$stream_output_adapter@D@__crt_stdio_output@@@2@@__crt_stdio_output@@AEAA_N_N@Z 00000001800e31a0 f i libucrtd:output.obj
 0002:00066730       ??$type_case_integer@$07@?$output_processor@DV?$stream_output_adapter@D@__crt_stdio_output@@V?$positional_parameter_base@DV?$stream_output_adapter@D@__crt_stdio_output@@@2@@__crt_stdio_output@@AEAA_N_N@Z 00000001800e3730 f i libucrtd:output.obj
 0002:00066cc0       ??$type_case_integer@$07@?$output_processor@DV?$stream_output_adapter@D@__crt_stdio_output@@V?$standard_base@DV?$stream_output_adapter@D@__crt_stdio_output@@@2@@__crt_stdio_output@@AEAA_N_N@Z 00000001800e3cc0 f i libucrtd:output.obj
 0002:00067250       ??$type_case_integer@$07@?$output_processor@DV?$string_output_adapter@D@__crt_stdio_output@@V?$format_validation_base@DV?$string_output_adapter@D@__crt_stdio_output@@@2@@__crt_stdio_output@@AEAA_N_N@Z 00000001800e4250 f i libucrtd:output.obj
 0002:000677e0       ??$type_case_integer@$07@?$output_processor@DV?$string_output_adapter@D@__crt_stdio_output@@V?$positional_parameter_base@DV?$string_output_adapter@D@__crt_stdio_output@@@2@@__crt_stdio_output@@AEAA_N_N@Z 00000001800e47e0 f i libucrtd:output.obj
 0002:00067d70       ??$type_case_integer@$07@?$output_processor@DV?$string_output_adapter@D@__crt_stdio_output@@V?$standard_base@DV?$string_output_adapter@D@__crt_stdio_output@@@2@@__crt_stdio_output@@AEAA_N_N@Z 00000001800e4d70 f i libucrtd:output.obj
 0002:00068300       ??$type_case_integer@$07@?$output_processor@_WV?$stream_output_adapter@_W@__crt_stdio_output@@V?$format_validation_base@_WV?$stream_output_adapter@_W@__crt_stdio_output@@@2@@__crt_stdio_output@@AEAA_N_N@Z 00000001800e5300 f i libucrtd:output.obj
 0002:000688a0       ??$type_case_integer@$07@?$output_processor@_WV?$stream_output_adapter@_W@__crt_stdio_output@@V?$positional_parameter_base@_WV?$stream_output_adapter@_W@__crt_stdio_output@@@2@@__crt_stdio_output@@AEAA_N_N@Z 00000001800e58a0 f i libucrtd:output.obj
 0002:00068e40       ??$type_case_integer@$07@?$output_processor@_WV?$stream_output_adapter@_W@__crt_stdio_output@@V?$standard_base@_WV?$stream_output_adapter@_W@__crt_stdio_output@@@2@@__crt_stdio_output@@AEAA_N_N@Z 00000001800e5e40 f i libucrtd:output.obj
 0002:000693e0       ??$type_case_integer@$07@?$output_processor@_WV?$string_output_adapter@_W@__crt_stdio_output@@V?$format_validation_base@_WV?$string_output_adapter@_W@__crt_stdio_output@@@2@@__crt_stdio_output@@AEAA_N_N@Z 00000001800e63e0 f i libucrtd:output.obj
 0002:00069980       ??$type_case_integer@$07@?$output_processor@_WV?$string_output_adapter@_W@__crt_stdio_output@@V?$positional_parameter_base@_WV?$string_output_adapter@_W@__crt_stdio_output@@@2@@__crt_stdio_output@@AEAA_N_N@Z 00000001800e6980 f i libucrtd:output.obj
 0002:00069f20       ??$type_case_integer@$07@?$output_processor@_WV?$string_output_adapter@_W@__crt_stdio_output@@V?$standard_base@_WV?$string_output_adapter@_W@__crt_stdio_output@@@2@@__crt_stdio_output@@AEAA_N_N@Z 00000001800e6f20 f i libucrtd:output.obj
 0002:0006a4c0       ??$type_case_integer@$09@?$output_processor@DV?$stream_output_adapter@D@__crt_stdio_output@@V?$format_validation_base@DV?$stream_output_adapter@D@__crt_stdio_output@@@2@@__crt_stdio_output@@AEAA_N_N@Z 00000001800e74c0 f i libucrtd:output.obj
 0002:0006aa50       ??$type_case_integer@$09@?$output_processor@DV?$stream_output_adapter@D@__crt_stdio_output@@V?$positional_parameter_base@DV?$stream_output_adapter@D@__crt_stdio_output@@@2@@__crt_stdio_output@@AEAA_N_N@Z 00000001800e7a50 f i libucrtd:output.obj
 0002:0006afe0       ??$type_case_integer@$09@?$output_processor@DV?$stream_output_adapter@D@__crt_stdio_output@@V?$standard_base@DV?$stream_output_adapter@D@__crt_stdio_output@@@2@@__crt_stdio_output@@AEAA_N_N@Z 00000001800e7fe0 f i libucrtd:output.obj
 0002:0006b570       ??$type_case_integer@$09@?$output_processor@DV?$string_output_adapter@D@__crt_stdio_output@@V?$format_validation_base@DV?$string_output_adapter@D@__crt_stdio_output@@@2@@__crt_stdio_output@@AEAA_N_N@Z 00000001800e8570 f i libucrtd:output.obj
 0002:0006bb00       ??$type_case_integer@$09@?$output_processor@DV?$string_output_adapter@D@__crt_stdio_output@@V?$positional_parameter_base@DV?$string_output_adapter@D@__crt_stdio_output@@@2@@__crt_stdio_output@@AEAA_N_N@Z 00000001800e8b00 f i libucrtd:output.obj
 0002:0006c090       ??$type_case_integer@$09@?$output_processor@DV?$string_output_adapter@D@__crt_stdio_output@@V?$standard_base@DV?$string_output_adapter@D@__crt_stdio_output@@@2@@__crt_stdio_output@@AEAA_N_N@Z 00000001800e9090 f i libucrtd:output.obj
 0002:0006c620       ??$type_case_integer@$09@?$output_processor@_WV?$stream_output_adapter@_W@__crt_stdio_output@@V?$format_validation_base@_WV?$stream_output_adapter@_W@__crt_stdio_output@@@2@@__crt_stdio_output@@AEAA_N_N@Z 00000001800e9620 f i libucrtd:output.obj
 0002:0006cbc0       ??$type_case_integer@$09@?$output_processor@_WV?$stream_output_adapter@_W@__crt_stdio_output@@V?$positional_parameter_base@_WV?$stream_output_adapter@_W@__crt_stdio_output@@@2@@__crt_stdio_output@@AEAA_N_N@Z 00000001800e9bc0 f i libucrtd:output.obj
 0002:0006d160       ??$type_case_integer@$09@?$output_processor@_WV?$stream_output_adapter@_W@__crt_stdio_output@@V?$standard_base@_WV?$stream_output_adapter@_W@__crt_stdio_output@@@2@@__crt_stdio_output@@AEAA_N_N@Z 00000001800ea160 f i libucrtd:output.obj
 0002:0006d700       ??$type_case_integer@$09@?$output_processor@_WV?$string_output_adapter@_W@__crt_stdio_output@@V?$format_validation_base@_WV?$string_output_adapter@_W@__crt_stdio_output@@@2@@__crt_stdio_output@@AEAA_N_N@Z 00000001800ea700 f i libucrtd:output.obj
 0002:0006dca0       ??$type_case_integer@$09@?$output_processor@_WV?$string_output_adapter@_W@__crt_stdio_output@@V?$positional_parameter_base@_WV?$string_output_adapter@_W@__crt_stdio_output@@@2@@__crt_stdio_output@@AEAA_N_N@Z 00000001800eaca0 f i libucrtd:output.obj
 0002:0006e240       ??$type_case_integer@$09@?$output_processor@_WV?$string_output_adapter@_W@__crt_stdio_output@@V?$standard_base@_WV?$string_output_adapter@_W@__crt_stdio_output@@@2@@__crt_stdio_output@@AEAA_N_N@Z 00000001800eb240 f i libucrtd:output.obj
 0002:0006e7e0       ??$type_case_integer@$0BA@@?$output_processor@DV?$stream_output_adapter@D@__crt_stdio_output@@V?$format_validation_base@DV?$stream_output_adapter@D@__crt_stdio_output@@@2@@__crt_stdio_output@@AEAA_N_N@Z 00000001800eb7e0 f i libucrtd:output.obj
 0002:0006ed70       ??$type_case_integer@$0BA@@?$output_processor@DV?$stream_output_adapter@D@__crt_stdio_output@@V?$positional_parameter_base@DV?$stream_output_adapter@D@__crt_stdio_output@@@2@@__crt_stdio_output@@AEAA_N_N@Z 00000001800ebd70 f i libucrtd:output.obj
 0002:0006f300       ??$type_case_integer@$0BA@@?$output_processor@DV?$stream_output_adapter@D@__crt_stdio_output@@V?$standard_base@DV?$stream_output_adapter@D@__crt_stdio_output@@@2@@__crt_stdio_output@@AEAA_N_N@Z 00000001800ec300 f i libucrtd:output.obj
 0002:0006f890       ??$type_case_integer@$0BA@@?$output_processor@DV?$string_output_adapter@D@__crt_stdio_output@@V?$format_validation_base@DV?$string_output_adapter@D@__crt_stdio_output@@@2@@__crt_stdio_output@@AEAA_N_N@Z 00000001800ec890 f i libucrtd:output.obj
 0002:0006fe20       ??$type_case_integer@$0BA@@?$output_processor@DV?$string_output_adapter@D@__crt_stdio_output@@V?$positional_parameter_base@DV?$string_output_adapter@D@__crt_stdio_output@@@2@@__crt_stdio_output@@AEAA_N_N@Z 00000001800ece20 f i libucrtd:output.obj
 0002:000703b0       ??$type_case_integer@$0BA@@?$output_processor@DV?$string_output_adapter@D@__crt_stdio_output@@V?$standard_base@DV?$string_output_adapter@D@__crt_stdio_output@@@2@@__crt_stdio_output@@AEAA_N_N@Z 00000001800ed3b0 f i libucrtd:output.obj
 0002:00070940       ??$type_case_integer@$0BA@@?$output_processor@_WV?$stream_output_adapter@_W@__crt_stdio_output@@V?$format_validation_base@_WV?$stream_output_adapter@_W@__crt_stdio_output@@@2@@__crt_stdio_output@@AEAA_N_N@Z 00000001800ed940 f i libucrtd:output.obj
 0002:00070ee0       ??$type_case_integer@$0BA@@?$output_processor@_WV?$stream_output_adapter@_W@__crt_stdio_output@@V?$positional_parameter_base@_WV?$stream_output_adapter@_W@__crt_stdio_output@@@2@@__crt_stdio_output@@AEAA_N_N@Z 00000001800edee0 f i libucrtd:output.obj
 0002:00071480       ??$type_case_integer@$0BA@@?$output_processor@_WV?$stream_output_adapter@_W@__crt_stdio_output@@V?$standard_base@_WV?$stream_output_adapter@_W@__crt_stdio_output@@@2@@__crt_stdio_output@@AEAA_N_N@Z 00000001800ee480 f i libucrtd:output.obj
 0002:00071a20       ??$type_case_integer@$0BA@@?$output_processor@_WV?$string_output_adapter@_W@__crt_stdio_output@@V?$format_validation_base@_WV?$string_output_adapter@_W@__crt_stdio_output@@@2@@__crt_stdio_output@@AEAA_N_N@Z 00000001800eea20 f i libucrtd:output.obj
 0002:00071fc0       ??$type_case_integer@$0BA@@?$output_processor@_WV?$string_output_adapter@_W@__crt_stdio_output@@V?$positional_parameter_base@_WV?$string_output_adapter@_W@__crt_stdio_output@@@2@@__crt_stdio_output@@AEAA_N_N@Z 00000001800eefc0 f i libucrtd:output.obj
 0002:00072560       ??$type_case_integer@$0BA@@?$output_processor@_WV?$string_output_adapter@_W@__crt_stdio_output@@V?$standard_base@_WV?$string_output_adapter@_W@__crt_stdio_output@@@2@@__crt_stdio_output@@AEAA_N_N@Z 00000001800ef560 f i libucrtd:output.obj
 0002:00072b00       ??$type_case_integer_parse_into_buffer@I$07@?$output_processor@DV?$stream_output_adapter@D@__crt_stdio_output@@V?$format_validation_base@DV?$stream_output_adapter@D@__crt_stdio_output@@@2@@__crt_stdio_output@@AEAAXI_N@Z 00000001800efb00 f i libucrtd:output.obj
 0002:00072c70       ??$type_case_integer_parse_into_buffer@I$07@?$output_processor@DV?$stream_output_adapter@D@__crt_stdio_output@@V?$positional_parameter_base@DV?$stream_output_adapter@D@__crt_stdio_output@@@2@@__crt_stdio_output@@AEAAXI_N@Z 00000001800efc70 f i libucrtd:output.obj
 0002:00072de0       ??$type_case_integer_parse_into_buffer@I$07@?$output_processor@DV?$stream_output_adapter@D@__crt_stdio_output@@V?$standard_base@DV?$stream_output_adapter@D@__crt_stdio_output@@@2@@__crt_stdio_output@@AEAAXI_N@Z 00000001800efde0 f i libucrtd:output.obj
 0002:00072f50       ??$type_case_integer_parse_into_buffer@I$07@?$output_processor@DV?$string_output_adapter@D@__crt_stdio_output@@V?$format_validation_base@DV?$string_output_adapter@D@__crt_stdio_output@@@2@@__crt_stdio_output@@AEAAXI_N@Z 00000001800eff50 f i libucrtd:output.obj
 0002:000730c0       ??$type_case_integer_parse_into_buffer@I$07@?$output_processor@DV?$string_output_adapter@D@__crt_stdio_output@@V?$positional_parameter_base@DV?$string_output_adapter@D@__crt_stdio_output@@@2@@__crt_stdio_output@@AEAAXI_N@Z 00000001800f00c0 f i libucrtd:output.obj
 0002:00073230       ??$type_case_integer_parse_into_buffer@I$07@?$output_processor@DV?$string_output_adapter@D@__crt_stdio_output@@V?$standard_base@DV?$string_output_adapter@D@__crt_stdio_output@@@2@@__crt_stdio_output@@AEAAXI_N@Z 00000001800f0230 f i libucrtd:output.obj
 0002:000733a0       ??$type_case_integer_parse_into_buffer@I$07@?$output_processor@_WV?$stream_output_adapter@_W@__crt_stdio_output@@V?$format_validation_base@_WV?$stream_output_adapter@_W@__crt_stdio_output@@@2@@__crt_stdio_output@@AEAAXI_N@Z 00000001800f03a0 f i libucrtd:output.obj
 0002:00073530       ??$type_case_integer_parse_into_buffer@I$07@?$output_processor@_WV?$stream_output_adapter@_W@__crt_stdio_output@@V?$positional_parameter_base@_WV?$stream_output_adapter@_W@__crt_stdio_output@@@2@@__crt_stdio_output@@AEAAXI_N@Z 00000001800f0530 f i libucrtd:output.obj
 0002:000736c0       ??$type_case_integer_parse_into_buffer@I$07@?$output_processor@_WV?$stream_output_adapter@_W@__crt_stdio_output@@V?$standard_base@_WV?$stream_output_adapter@_W@__crt_stdio_output@@@2@@__crt_stdio_output@@AEAAXI_N@Z 00000001800f06c0 f i libucrtd:output.obj
 0002:00073850       ??$type_case_integer_parse_into_buffer@I$07@?$output_processor@_WV?$string_output_adapter@_W@__crt_stdio_output@@V?$format_validation_base@_WV?$string_output_adapter@_W@__crt_stdio_output@@@2@@__crt_stdio_output@@AEAAXI_N@Z 00000001800f0850 f i libucrtd:output.obj
 0002:000739e0       ??$type_case_integer_parse_into_buffer@I$07@?$output_processor@_WV?$string_output_adapter@_W@__crt_stdio_output@@V?$positional_parameter_base@_WV?$string_output_adapter@_W@__crt_stdio_output@@@2@@__crt_stdio_output@@AEAAXI_N@Z 00000001800f09e0 f i libucrtd:output.obj
 0002:00073b70       ??$type_case_integer_parse_into_buffer@I$07@?$output_processor@_WV?$string_output_adapter@_W@__crt_stdio_output@@V?$standard_base@_WV?$string_output_adapter@_W@__crt_stdio_output@@@2@@__crt_stdio_output@@AEAAXI_N@Z 00000001800f0b70 f i libucrtd:output.obj
 0002:00073d00       ??$type_case_integer_parse_into_buffer@I$09@?$output_processor@DV?$stream_output_adapter@D@__crt_stdio_output@@V?$format_validation_base@DV?$stream_output_adapter@D@__crt_stdio_output@@@2@@__crt_stdio_output@@AEAAXI_N@Z 00000001800f0d00 f i libucrtd:output.obj
 0002:00073e70       ??$type_case_integer_parse_into_buffer@I$09@?$output_processor@DV?$stream_output_adapter@D@__crt_stdio_output@@V?$positional_parameter_base@DV?$stream_output_adapter@D@__crt_stdio_output@@@2@@__crt_stdio_output@@AEAAXI_N@Z 00000001800f0e70 f i libucrtd:output.obj
 0002:00073fe0       ??$type_case_integer_parse_into_buffer@I$09@?$output_processor@DV?$stream_output_adapter@D@__crt_stdio_output@@V?$standard_base@DV?$stream_output_adapter@D@__crt_stdio_output@@@2@@__crt_stdio_output@@AEAAXI_N@Z 00000001800f0fe0 f i libucrtd:output.obj
 0002:00074150       ??$type_case_integer_parse_into_buffer@I$09@?$output_processor@DV?$string_output_adapter@D@__crt_stdio_output@@V?$format_validation_base@DV?$string_output_adapter@D@__crt_stdio_output@@@2@@__crt_stdio_output@@AEAAXI_N@Z 00000001800f1150 f i libucrtd:output.obj
 0002:000742c0       ??$type_case_integer_parse_into_buffer@I$09@?$output_processor@DV?$string_output_adapter@D@__crt_stdio_output@@V?$positional_parameter_base@DV?$string_output_adapter@D@__crt_stdio_output@@@2@@__crt_stdio_output@@AEAAXI_N@Z 00000001800f12c0 f i libucrtd:output.obj
 0002:00074430       ??$type_case_integer_parse_into_buffer@I$09@?$output_processor@DV?$string_output_adapter@D@__crt_stdio_output@@V?$standard_base@DV?$string_output_adapter@D@__crt_stdio_output@@@2@@__crt_stdio_output@@AEAAXI_N@Z 00000001800f1430 f i libucrtd:output.obj
 0002:000745a0       ??$type_case_integer_parse_into_buffer@I$09@?$output_processor@_WV?$stream_output_adapter@_W@__crt_stdio_output@@V?$format_validation_base@_WV?$stream_output_adapter@_W@__crt_stdio_output@@@2@@__crt_stdio_output@@AEAAXI_N@Z 00000001800f15a0 f i libucrtd:output.obj
 0002:00074730       ??$type_case_integer_parse_into_buffer@I$09@?$output_processor@_WV?$stream_output_adapter@_W@__crt_stdio_output@@V?$positional_parameter_base@_WV?$stream_output_adapter@_W@__crt_stdio_output@@@2@@__crt_stdio_output@@AEAAXI_N@Z 00000001800f1730 f i libucrtd:output.obj
 0002:000748c0       ??$type_case_integer_parse_into_buffer@I$09@?$output_processor@_WV?$stream_output_adapter@_W@__crt_stdio_output@@V?$standard_base@_WV?$stream_output_adapter@_W@__crt_stdio_output@@@2@@__crt_stdio_output@@AEAAXI_N@Z 00000001800f18c0 f i libucrtd:output.obj
 0002:00074a50       ??$type_case_integer_parse_into_buffer@I$09@?$output_processor@_WV?$string_output_adapter@_W@__crt_stdio_output@@V?$format_validation_base@_WV?$string_output_adapter@_W@__crt_stdio_output@@@2@@__crt_stdio_output@@AEAAXI_N@Z 00000001800f1a50 f i libucrtd:output.obj
 0002:00074be0       ??$type_case_integer_parse_into_buffer@I$09@?$output_processor@_WV?$string_output_adapter@_W@__crt_stdio_output@@V?$positional_parameter_base@_WV?$string_output_adapter@_W@__crt_stdio_output@@@2@@__crt_stdio_output@@AEAAXI_N@Z 00000001800f1be0 f i libucrtd:output.obj
 0002:00074d70       ??$type_case_integer_parse_into_buffer@I$09@?$output_processor@_WV?$string_output_adapter@_W@__crt_stdio_output@@V?$standard_base@_WV?$string_output_adapter@_W@__crt_stdio_output@@@2@@__crt_stdio_output@@AEAAXI_N@Z 00000001800f1d70 f i libucrtd:output.obj
 0002:00074f00       ??$type_case_integer_parse_into_buffer@I$0BA@@?$output_processor@DV?$stream_output_adapter@D@__crt_stdio_output@@V?$format_validation_base@DV?$stream_output_adapter@D@__crt_stdio_output@@@2@@__crt_stdio_output@@AEAAXI_N@Z 00000001800f1f00 f i libucrtd:output.obj
 0002:00075070       ??$type_case_integer_parse_into_buffer@I$0BA@@?$output_processor@DV?$stream_output_adapter@D@__crt_stdio_output@@V?$positional_parameter_base@DV?$stream_output_adapter@D@__crt_stdio_output@@@2@@__crt_stdio_output@@AEAAXI_N@Z 00000001800f2070 f i libucrtd:output.obj
 0002:000751e0       ??$type_case_integer_parse_into_buffer@I$0BA@@?$output_processor@DV?$stream_output_adapter@D@__crt_stdio_output@@V?$standard_base@DV?$stream_output_adapter@D@__crt_stdio_output@@@2@@__crt_stdio_output@@AEAAXI_N@Z 00000001800f21e0 f i libucrtd:output.obj
 0002:00075350       ??$type_case_integer_parse_into_buffer@I$0BA@@?$output_processor@DV?$string_output_adapter@D@__crt_stdio_output@@V?$format_validation_base@DV?$string_output_adapter@D@__crt_stdio_output@@@2@@__crt_stdio_output@@AEAAXI_N@Z 00000001800f2350 f i libucrtd:output.obj
 0002:000754c0       ??$type_case_integer_parse_into_buffer@I$0BA@@?$output_processor@DV?$string_output_adapter@D@__crt_stdio_output@@V?$positional_parameter_base@DV?$string_output_adapter@D@__crt_stdio_output@@@2@@__crt_stdio_output@@AEAAXI_N@Z 00000001800f24c0 f i libucrtd:output.obj
 0002:00075630       ??$type_case_integer_parse_into_buffer@I$0BA@@?$output_processor@DV?$string_output_adapter@D@__crt_stdio_output@@V?$standard_base@DV?$string_output_adapter@D@__crt_stdio_output@@@2@@__crt_stdio_output@@AEAAXI_N@Z 00000001800f2630 f i libucrtd:output.obj
 0002:000757a0       ??$type_case_integer_parse_into_buffer@I$0BA@@?$output_processor@_WV?$stream_output_adapter@_W@__crt_stdio_output@@V?$format_validation_base@_WV?$stream_output_adapter@_W@__crt_stdio_output@@@2@@__crt_stdio_output@@AEAAXI_N@Z 00000001800f27a0 f i libucrtd:output.obj
 0002:00075930       ??$type_case_integer_parse_into_buffer@I$0BA@@?$output_processor@_WV?$stream_output_adapter@_W@__crt_stdio_output@@V?$positional_parameter_base@_WV?$stream_output_adapter@_W@__crt_stdio_output@@@2@@__crt_stdio_output@@AEAAXI_N@Z 00000001800f2930 f i libucrtd:output.obj
 0002:00075ac0       ??$type_case_integer_parse_into_buffer@I$0BA@@?$output_processor@_WV?$stream_output_adapter@_W@__crt_stdio_output@@V?$standard_base@_WV?$stream_output_adapter@_W@__crt_stdio_output@@@2@@__crt_stdio_output@@AEAAXI_N@Z 00000001800f2ac0 f i libucrtd:output.obj
 0002:00075c50       ??$type_case_integer_parse_into_buffer@I$0BA@@?$output_processor@_WV?$string_output_adapter@_W@__crt_stdio_output@@V?$format_validation_base@_WV?$string_output_adapter@_W@__crt_stdio_output@@@2@@__crt_stdio_output@@AEAAXI_N@Z 00000001800f2c50 f i libucrtd:output.obj
 0002:00075de0       ??$type_case_integer_parse_into_buffer@I$0BA@@?$output_processor@_WV?$string_output_adapter@_W@__crt_stdio_output@@V?$positional_parameter_base@_WV?$string_output_adapter@_W@__crt_stdio_output@@@2@@__crt_stdio_output@@AEAAXI_N@Z 00000001800f2de0 f i libucrtd:output.obj
 0002:00075f70       ??$type_case_integer_parse_into_buffer@I$0BA@@?$output_processor@_WV?$string_output_adapter@_W@__crt_stdio_output@@V?$standard_base@_WV?$string_output_adapter@_W@__crt_stdio_output@@@2@@__crt_stdio_output@@AEAAXI_N@Z 00000001800f2f70 f i libucrtd:output.obj
 0002:00076100       ??$type_case_integer_parse_into_buffer@_K$07@?$output_processor@DV?$stream_output_adapter@D@__crt_stdio_output@@V?$format_validation_base@DV?$stream_output_adapter@D@__crt_stdio_output@@@2@@__crt_stdio_output@@AEAAX_K_N@Z 00000001800f3100 f i libucrtd:output.obj
 0002:00076280       ??$type_case_integer_parse_into_buffer@_K$07@?$output_processor@DV?$stream_output_adapter@D@__crt_stdio_output@@V?$positional_parameter_base@DV?$stream_output_adapter@D@__crt_stdio_output@@@2@@__crt_stdio_output@@AEAAX_K_N@Z 00000001800f3280 f i libucrtd:output.obj
 0002:00076400       ??$type_case_integer_parse_into_buffer@_K$07@?$output_processor@DV?$stream_output_adapter@D@__crt_stdio_output@@V?$standard_base@DV?$stream_output_adapter@D@__crt_stdio_output@@@2@@__crt_stdio_output@@AEAAX_K_N@Z 00000001800f3400 f i libucrtd:output.obj
 0002:00076580       ??$type_case_integer_parse_into_buffer@_K$07@?$output_processor@DV?$string_output_adapter@D@__crt_stdio_output@@V?$format_validation_base@DV?$string_output_adapter@D@__crt_stdio_output@@@2@@__crt_stdio_output@@AEAAX_K_N@Z 00000001800f3580 f i libucrtd:output.obj
 0002:00076700       ??$type_case_integer_parse_into_buffer@_K$07@?$output_processor@DV?$string_output_adapter@D@__crt_stdio_output@@V?$positional_parameter_base@DV?$string_output_adapter@D@__crt_stdio_output@@@2@@__crt_stdio_output@@AEAAX_K_N@Z 00000001800f3700 f i libucrtd:output.obj
 0002:00076880       ??$type_case_integer_parse_into_buffer@_K$07@?$output_processor@DV?$string_output_adapter@D@__crt_stdio_output@@V?$standard_base@DV?$string_output_adapter@D@__crt_stdio_output@@@2@@__crt_stdio_output@@AEAAX_K_N@Z 00000001800f3880 f i libucrtd:output.obj
 0002:00076a00       ??$type_case_integer_parse_into_buffer@_K$07@?$output_processor@_WV?$stream_output_adapter@_W@__crt_stdio_output@@V?$format_validation_base@_WV?$stream_output_adapter@_W@__crt_stdio_output@@@2@@__crt_stdio_output@@AEAAX_K_N@Z 00000001800f3a00 f i libucrtd:output.obj
 0002:00076b90       ??$type_case_integer_parse_into_buffer@_K$07@?$output_processor@_WV?$stream_output_adapter@_W@__crt_stdio_output@@V?$positional_parameter_base@_WV?$stream_output_adapter@_W@__crt_stdio_output@@@2@@__crt_stdio_output@@AEAAX_K_N@Z 00000001800f3b90 f i libucrtd:output.obj
 0002:00076d20       ??$type_case_integer_parse_into_buffer@_K$07@?$output_processor@_WV?$stream_output_adapter@_W@__crt_stdio_output@@V?$standard_base@_WV?$stream_output_adapter@_W@__crt_stdio_output@@@2@@__crt_stdio_output@@AEAAX_K_N@Z 00000001800f3d20 f i libucrtd:output.obj
 0002:00076eb0       ??$type_case_integer_parse_into_buffer@_K$07@?$output_processor@_WV?$string_output_adapter@_W@__crt_stdio_output@@V?$format_validation_base@_WV?$string_output_adapter@_W@__crt_stdio_output@@@2@@__crt_stdio_output@@AEAAX_K_N@Z 00000001800f3eb0 f i libucrtd:output.obj
 0002:00077040       ??$type_case_integer_parse_into_buffer@_K$07@?$output_processor@_WV?$string_output_adapter@_W@__crt_stdio_output@@V?$positional_parameter_base@_WV?$string_output_adapter@_W@__crt_stdio_output@@@2@@__crt_stdio_output@@AEAAX_K_N@Z 00000001800f4040 f i libucrtd:output.obj
 0002:000771d0       ??$type_case_integer_parse_into_buffer@_K$07@?$output_processor@_WV?$string_output_adapter@_W@__crt_stdio_output@@V?$standard_base@_WV?$string_output_adapter@_W@__crt_stdio_output@@@2@@__crt_stdio_output@@AEAAX_K_N@Z 00000001800f41d0 f i libucrtd:output.obj
 0002:00077360       ??$type_case_integer_parse_into_buffer@_K$09@?$output_processor@DV?$stream_output_adapter@D@__crt_stdio_output@@V?$format_validation_base@DV?$stream_output_adapter@D@__crt_stdio_output@@@2@@__crt_stdio_output@@AEAAX_K_N@Z 00000001800f4360 f i libucrtd:output.obj
 0002:000774e0       ??$type_case_integer_parse_into_buffer@_K$09@?$output_processor@DV?$stream_output_adapter@D@__crt_stdio_output@@V?$positional_parameter_base@DV?$stream_output_adapter@D@__crt_stdio_output@@@2@@__crt_stdio_output@@AEAAX_K_N@Z 00000001800f44e0 f i libucrtd:output.obj
 0002:00077660       ??$type_case_integer_parse_into_buffer@_K$09@?$output_processor@DV?$stream_output_adapter@D@__crt_stdio_output@@V?$standard_base@DV?$stream_output_adapter@D@__crt_stdio_output@@@2@@__crt_stdio_output@@AEAAX_K_N@Z 00000001800f4660 f i libucrtd:output.obj
 0002:000777e0       ??$type_case_integer_parse_into_buffer@_K$09@?$output_processor@DV?$string_output_adapter@D@__crt_stdio_output@@V?$format_validation_base@DV?$string_output_adapter@D@__crt_stdio_output@@@2@@__crt_stdio_output@@AEAAX_K_N@Z 00000001800f47e0 f i libucrtd:output.obj
 0002:00077960       ??$type_case_integer_parse_into_buffer@_K$09@?$output_processor@DV?$string_output_adapter@D@__crt_stdio_output@@V?$positional_parameter_base@DV?$string_output_adapter@D@__crt_stdio_output@@@2@@__crt_stdio_output@@AEAAX_K_N@Z 00000001800f4960 f i libucrtd:output.obj
 0002:00077ae0       ??$type_case_integer_parse_into_buffer@_K$09@?$output_processor@DV?$string_output_adapter@D@__crt_stdio_output@@V?$standard_base@DV?$string_output_adapter@D@__crt_stdio_output@@@2@@__crt_stdio_output@@AEAAX_K_N@Z 00000001800f4ae0 f i libucrtd:output.obj
 0002:00077c60       ??$type_case_integer_parse_into_buffer@_K$09@?$output_processor@_WV?$stream_output_adapter@_W@__crt_stdio_output@@V?$format_validation_base@_WV?$stream_output_adapter@_W@__crt_stdio_output@@@2@@__crt_stdio_output@@AEAAX_K_N@Z 00000001800f4c60 f i libucrtd:output.obj
 0002:00077df0       ??$type_case_integer_parse_into_buffer@_K$09@?$output_processor@_WV?$stream_output_adapter@_W@__crt_stdio_output@@V?$positional_parameter_base@_WV?$stream_output_adapter@_W@__crt_stdio_output@@@2@@__crt_stdio_output@@AEAAX_K_N@Z 00000001800f4df0 f i libucrtd:output.obj
 0002:00077f80       ??$type_case_integer_parse_into_buffer@_K$09@?$output_processor@_WV?$stream_output_adapter@_W@__crt_stdio_output@@V?$standard_base@_WV?$stream_output_adapter@_W@__crt_stdio_output@@@2@@__crt_stdio_output@@AEAAX_K_N@Z 00000001800f4f80 f i libucrtd:output.obj
 0002:00078110       ??$type_case_integer_parse_into_buffer@_K$09@?$output_processor@_WV?$string_output_adapter@_W@__crt_stdio_output@@V?$format_validation_base@_WV?$string_output_adapter@_W@__crt_stdio_output@@@2@@__crt_stdio_output@@AEAAX_K_N@Z 00000001800f5110 f i libucrtd:output.obj
 0002:000782a0       ??$type_case_integer_parse_into_buffer@_K$09@?$output_processor@_WV?$string_output_adapter@_W@__crt_stdio_output@@V?$positional_parameter_base@_WV?$string_output_adapter@_W@__crt_stdio_output@@@2@@__crt_stdio_output@@AEAAX_K_N@Z 00000001800f52a0 f i libucrtd:output.obj
 0002:00078430       ??$type_case_integer_parse_into_buffer@_K$09@?$output_processor@_WV?$string_output_adapter@_W@__crt_stdio_output@@V?$standard_base@_WV?$string_output_adapter@_W@__crt_stdio_output@@@2@@__crt_stdio_output@@AEAAX_K_N@Z 00000001800f5430 f i libucrtd:output.obj
 0002:000785c0       ??$type_case_integer_parse_into_buffer@_K$0BA@@?$output_processor@DV?$stream_output_adapter@D@__crt_stdio_output@@V?$format_validation_base@DV?$stream_output_adapter@D@__crt_stdio_output@@@2@@__crt_stdio_output@@AEAAX_K_N@Z 00000001800f55c0 f i libucrtd:output.obj
 0002:00078740       ??$type_case_integer_parse_into_buffer@_K$0BA@@?$output_processor@DV?$stream_output_adapter@D@__crt_stdio_output@@V?$positional_parameter_base@DV?$stream_output_adapter@D@__crt_stdio_output@@@2@@__crt_stdio_output@@AEAAX_K_N@Z 00000001800f5740 f i libucrtd:output.obj
 0002:000788c0       ??$type_case_integer_parse_into_buffer@_K$0BA@@?$output_processor@DV?$stream_output_adapter@D@__crt_stdio_output@@V?$standard_base@DV?$stream_output_adapter@D@__crt_stdio_output@@@2@@__crt_stdio_output@@AEAAX_K_N@Z 00000001800f58c0 f i libucrtd:output.obj
 0002:00078a40       ??$type_case_integer_parse_into_buffer@_K$0BA@@?$output_processor@DV?$string_output_adapter@D@__crt_stdio_output@@V?$format_validation_base@DV?$string_output_adapter@D@__crt_stdio_output@@@2@@__crt_stdio_output@@AEAAX_K_N@Z 00000001800f5a40 f i libucrtd:output.obj
 0002:00078bc0       ??$type_case_integer_parse_into_buffer@_K$0BA@@?$output_processor@DV?$string_output_adapter@D@__crt_stdio_output@@V?$positional_parameter_base@DV?$string_output_adapter@D@__crt_stdio_output@@@2@@__crt_stdio_output@@AEAAX_K_N@Z 00000001800f5bc0 f i libucrtd:output.obj
 0002:00078d40       ??$type_case_integer_parse_into_buffer@_K$0BA@@?$output_processor@DV?$string_output_adapter@D@__crt_stdio_output@@V?$standard_base@DV?$string_output_adapter@D@__crt_stdio_output@@@2@@__crt_stdio_output@@AEAAX_K_N@Z 00000001800f5d40 f i libucrtd:output.obj
 0002:00078ec0       ??$type_case_integer_parse_into_buffer@_K$0BA@@?$output_processor@_WV?$stream_output_adapter@_W@__crt_stdio_output@@V?$format_validation_base@_WV?$stream_output_adapter@_W@__crt_stdio_output@@@2@@__crt_stdio_output@@AEAAX_K_N@Z 00000001800f5ec0 f i libucrtd:output.obj
 0002:00079050       ??$type_case_integer_parse_into_buffer@_K$0BA@@?$output_processor@_WV?$stream_output_adapter@_W@__crt_stdio_output@@V?$positional_parameter_base@_WV?$stream_output_adapter@_W@__crt_stdio_output@@@2@@__crt_stdio_output@@AEAAX_K_N@Z 00000001800f6050 f i libucrtd:output.obj
 0002:000791e0       ??$type_case_integer_parse_into_buffer@_K$0BA@@?$output_processor@_WV?$stream_output_adapter@_W@__crt_stdio_output@@V?$standard_base@_WV?$stream_output_adapter@_W@__crt_stdio_output@@@2@@__crt_stdio_output@@AEAAX_K_N@Z 00000001800f61e0 f i libucrtd:output.obj
 0002:00079370       ??$type_case_integer_parse_into_buffer@_K$0BA@@?$output_processor@_WV?$string_output_adapter@_W@__crt_stdio_output@@V?$format_validation_base@_WV?$string_output_adapter@_W@__crt_stdio_output@@@2@@__crt_stdio_output@@AEAAX_K_N@Z 00000001800f6370 f i libucrtd:output.obj
 0002:00079500       ??$type_case_integer_parse_into_buffer@_K$0BA@@?$output_processor@_WV?$string_output_adapter@_W@__crt_stdio_output@@V?$positional_parameter_base@_WV?$string_output_adapter@_W@__crt_stdio_output@@@2@@__crt_stdio_output@@AEAAX_K_N@Z 00000001800f6500 f i libucrtd:output.obj
 0002:00079690       ??$type_case_integer_parse_into_buffer@_K$0BA@@?$output_processor@_WV?$string_output_adapter@_W@__crt_stdio_output@@V?$standard_base@_WV?$string_output_adapter@_W@__crt_stdio_output@@@2@@__crt_stdio_output@@AEAAX_K_N@Z 00000001800f6690 f i libucrtd:output.obj
 0002:00079820       ??$write_multiple_characters@V?$stream_output_adapter@D@__crt_stdio_output@@D@__crt_stdio_output@@YAXAEBV?$stream_output_adapter@D@0@DHQEAHAEAV__crt_cached_ptd_host@@@Z 00000001800f6820 f i libucrtd:output.obj
 0002:000798a0       ??$write_multiple_characters@V?$stream_output_adapter@_W@__crt_stdio_output@@D@__crt_stdio_output@@YAXAEBV?$stream_output_adapter@_W@0@DHQEAHAEAV__crt_cached_ptd_host@@@Z 00000001800f68a0 f i libucrtd:output.obj
 0002:00079920       ??$write_multiple_characters@V?$string_output_adapter@D@__crt_stdio_output@@D@__crt_stdio_output@@YAXAEBV?$string_output_adapter@D@0@DHQEAHAEAV__crt_cached_ptd_host@@@Z 00000001800f6920 f i libucrtd:output.obj
 0002:000799a0       ??$write_multiple_characters@V?$string_output_adapter@_W@__crt_stdio_output@@D@__crt_stdio_output@@YAXAEBV?$string_output_adapter@_W@0@DHQEAHAEAV__crt_cached_ptd_host@@@Z 00000001800f69a0 f i libucrtd:output.obj
 0002:00079f60       ??0?$c_string_character_source@D@__crt_strtox@@QEAA@QEBDQEAPEBD@Z 00000001800f6f60 f i libucrtd:output.obj
 0002:00079fc0       ??0?$c_string_character_source@_W@__crt_strtox@@QEAA@QEB_WQEAPEB_W@Z 00000001800f6fc0 f i libucrtd:output.obj
 0002:0007a020       ??0?$common_data@D@__crt_stdio_output@@IEAA@AEAV__crt_cached_ptd_host@@@Z 00000001800f7020 f i libucrtd:output.obj
 0002:0007a110       ??0?$common_data@_W@__crt_stdio_output@@IEAA@AEAV__crt_cached_ptd_host@@@Z 00000001800f7110 f i libucrtd:output.obj
 0002:0007a200       ??0?$output_adapter_data@DV?$stream_output_adapter@D@__crt_stdio_output@@@__crt_stdio_output@@IEAA@AEBV?$stream_output_adapter@D@1@_KQEBDAEAV__crt_cached_ptd_host@@QEAD@Z 00000001800f7200 f i libucrtd:output.obj
 0002:0007a2a0       ??0?$output_adapter_data@DV?$string_output_adapter@D@__crt_stdio_output@@@__crt_stdio_output@@IEAA@AEBV?$string_output_adapter@D@1@_KQEBDAEAV__crt_cached_ptd_host@@QEAD@Z 00000001800f72a0 f i libucrtd:output.obj
 0002:0007a340       ??0?$output_adapter_data@_WV?$stream_output_adapter@_W@__crt_stdio_output@@@__crt_stdio_output@@IEAA@AEBV?$stream_output_adapter@_W@1@_KQEB_WAEAV__crt_cached_ptd_host@@QEAD@Z 00000001800f7340 f i libucrtd:output.obj
 0002:0007a3e0       ??0?$output_adapter_data@_WV?$string_output_adapter@_W@__crt_stdio_output@@@__crt_stdio_output@@IEAA@AEBV?$string_output_adapter@_W@1@_KQEB_WAEAV__crt_cached_ptd_host@@QEAD@Z 00000001800f73e0 f i libucrtd:output.obj
 0002:0007a480       ??0?$output_processor@DV?$stream_output_adapter@D@__crt_stdio_output@@V?$format_validation_base@DV?$stream_output_adapter@D@__crt_stdio_output@@@2@@__crt_stdio_output@@QEAA@AEBV?$stream_output_adapter@D@1@_KQEBDAEAV__crt_cached_ptd_host@@QEAD@Z 00000001800f7480 f i libucrtd:output.obj
 0002:0007a4f0       ??0?$output_processor@DV?$stream_output_adapter@D@__crt_stdio_output@@V?$positional_parameter_base@DV?$stream_output_adapter@D@__crt_stdio_output@@@2@@__crt_stdio_output@@QEAA@AEBV?$stream_output_adapter@D@1@_KQEBDAEAV__crt_cached_ptd_host@@QEAD@Z 00000001800f74f0 f i libucrtd:output.obj
 0002:0007a560       ??0?$output_processor@DV?$stream_output_adapter@D@__crt_stdio_output@@V?$standard_base@DV?$stream_output_adapter@D@__crt_stdio_output@@@2@@__crt_stdio_output@@QEAA@AEBV?$stream_output_adapter@D@1@_KQEBDAEAV__crt_cached_ptd_host@@QEAD@Z 00000001800f7560 f i libucrtd:output.obj
 0002:0007a5d0       ??0?$output_processor@DV?$string_output_adapter@D@__crt_stdio_output@@V?$format_validation_base@DV?$string_output_adapter@D@__crt_stdio_output@@@2@@__crt_stdio_output@@QEAA@AEBV?$string_output_adapter@D@1@_KQEBDAEAV__crt_cached_ptd_host@@QEAD@Z 00000001800f75d0 f i libucrtd:output.obj
 0002:0007a640       ??0?$output_processor@DV?$string_output_adapter@D@__crt_stdio_output@@V?$positional_parameter_base@DV?$string_output_adapter@D@__crt_stdio_output@@@2@@__crt_stdio_output@@QEAA@AEBV?$string_output_adapter@D@1@_KQEBDAEAV__crt_cached_ptd_host@@QEAD@Z 00000001800f7640 f i libucrtd:output.obj
 0002:0007a6b0       ??0?$output_processor@DV?$string_output_adapter@D@__crt_stdio_output@@V?$standard_base@DV?$string_output_adapter@D@__crt_stdio_output@@@2@@__crt_stdio_output@@QEAA@AEBV?$string_output_adapter@D@1@_KQEBDAEAV__crt_cached_ptd_host@@QEAD@Z 00000001800f76b0 f i libucrtd:output.obj
 0002:0007a720       ??0?$output_processor@_WV?$stream_output_adapter@_W@__crt_stdio_output@@V?$format_validation_base@_WV?$stream_output_adapter@_W@__crt_stdio_output@@@2@@__crt_stdio_output@@QEAA@AEBV?$stream_output_adapter@_W@1@_KQEB_WAEAV__crt_cached_ptd_host@@QEAD@Z 00000001800f7720 f i libucrtd:output.obj
 0002:0007a790       ??0?$output_processor@_WV?$stream_output_adapter@_W@__crt_stdio_output@@V?$positional_parameter_base@_WV?$stream_output_adapter@_W@__crt_stdio_output@@@2@@__crt_stdio_output@@QEAA@AEBV?$stream_output_adapter@_W@1@_KQEB_WAEAV__crt_cached_ptd_host@@QEAD@Z 00000001800f7790 f i libucrtd:output.obj
 0002:0007a800       ??0?$output_processor@_WV?$stream_output_adapter@_W@__crt_stdio_output@@V?$standard_base@_WV?$stream_output_adapter@_W@__crt_stdio_output@@@2@@__crt_stdio_output@@QEAA@AEBV?$stream_output_adapter@_W@1@_KQEB_WAEAV__crt_cached_ptd_host@@QEAD@Z 00000001800f7800 f i libucrtd:output.obj
 0002:0007a870       ??0?$output_processor@_WV?$string_output_adapter@_W@__crt_stdio_output@@V?$format_validation_base@_WV?$string_output_adapter@_W@__crt_stdio_output@@@2@@__crt_stdio_output@@QEAA@AEBV?$string_output_adapter@_W@1@_KQEB_WAEAV__crt_cached_ptd_host@@QEAD@Z 00000001800f7870 f i libucrtd:output.obj
 0002:0007a8e0       ??0?$output_processor@_WV?$string_output_adapter@_W@__crt_stdio_output@@V?$positional_parameter_base@_WV?$string_output_adapter@_W@__crt_stdio_output@@@2@@__crt_stdio_output@@QEAA@AEBV?$string_output_adapter@_W@1@_KQEB_WAEAV__crt_cached_ptd_host@@QEAD@Z 00000001800f78e0 f i libucrtd:output.obj
 0002:0007a950       ??0?$output_processor@_WV?$string_output_adapter@_W@__crt_stdio_output@@V?$standard_base@_WV?$string_output_adapter@_W@__crt_stdio_output@@@2@@__crt_stdio_output@@QEAA@AEBV?$string_output_adapter@_W@1@_KQEB_WAEAV__crt_cached_ptd_host@@QEAD@Z 00000001800f7950 f i libucrtd:output.obj
 0002:0007a9c0       ??0?$stream_output_adapter@D@__crt_stdio_output@@QEAA@QEAU_iobuf@@@Z 00000001800f79c0 f i libucrtd:output.obj
 0002:0007aa00       ??0?$stream_output_adapter@_W@__crt_stdio_output@@QEAA@QEAU_iobuf@@@Z 00000001800f7a00 f i libucrtd:output.obj
 0002:0007aa40       ??0?$string_output_adapter@D@__crt_stdio_output@@QEAA@QEAU?$string_output_adapter_context@D@1@@Z 00000001800f7a40 f i libucrtd:output.obj
 0002:0007aa70       ??0?$string_output_adapter@_W@__crt_stdio_output@@QEAA@QEAU?$string_output_adapter_context@_W@1@@Z 00000001800f7a70 f i libucrtd:output.obj
 0002:0007aaa0       ??0__acrt_stdio_temporary_buffering_guard@@QEAA@QEAU_iobuf@@AEAV__crt_cached_ptd_host@@@Z 00000001800f7aa0 f i libucrtd:output.obj
 0002:0007ab00       ??0formatting_buffer@__crt_stdio_output@@QEAA@XZ 00000001800f7b00 f i libucrtd:output.obj
 0002:0007ab50       ??0guard@?$cached@H@__crt_cached_ptd_host@@QEAA@AEAU12@@Z 00000001800f7b50 f i libucrtd:output.obj
 0002:0007aba0       ??1?$c_string_character_source@D@__crt_strtox@@QEAA@XZ 00000001800f7ba0 f i libucrtd:output.obj
 0002:0007abd0       ??1?$c_string_character_source@_W@__crt_strtox@@QEAA@XZ 00000001800f7bd0 f i libucrtd:output.obj
 0002:0007ac00       ??1?$common_data@D@__crt_stdio_output@@QEAA@XZ 00000001800f7c00 f i libucrtd:output.obj
 0002:0007ac30       ??1?$common_data@_W@__crt_stdio_output@@QEAA@XZ 00000001800f7c30 f i libucrtd:output.obj
 0002:0007ac60       ??1?$format_validation_base@DV?$stream_output_adapter@D@__crt_stdio_output@@@__crt_stdio_output@@QEAA@XZ 00000001800f7c60 f i libucrtd:output.obj
 0002:0007ac80       ??1?$format_validation_base@DV?$string_output_adapter@D@__crt_stdio_output@@@__crt_stdio_output@@QEAA@XZ 00000001800f7c80 f i libucrtd:output.obj
 0002:0007aca0       ??1?$format_validation_base@_WV?$stream_output_adapter@_W@__crt_stdio_output@@@__crt_stdio_output@@QEAA@XZ 00000001800f7ca0 f i libucrtd:output.obj
 0002:0007acc0       ??1?$format_validation_base@_WV?$string_output_adapter@_W@__crt_stdio_output@@@__crt_stdio_output@@QEAA@XZ 00000001800f7cc0 f i libucrtd:output.obj
 0002:0007ace0       ??1?$output_adapter_data@DV?$stream_output_adapter@D@__crt_stdio_output@@@__crt_stdio_output@@QEAA@XZ 00000001800f7ce0 f i libucrtd:output.obj
 0002:0007ad00       ??1?$output_adapter_data@DV?$string_output_adapter@D@__crt_stdio_output@@@__crt_stdio_output@@QEAA@XZ 00000001800f7d00 f i libucrtd:output.obj
 0002:0007ad20       ??1?$output_adapter_data@_WV?$stream_output_adapter@_W@__crt_stdio_output@@@__crt_stdio_output@@QEAA@XZ 00000001800f7d20 f i libucrtd:output.obj
 0002:0007ad40       ??1?$output_adapter_data@_WV?$string_output_adapter@_W@__crt_stdio_output@@@__crt_stdio_output@@QEAA@XZ 00000001800f7d40 f i libucrtd:output.obj
 0002:0007ad60       ??1?$output_processor@DV?$stream_output_adapter@D@__crt_stdio_output@@V?$format_validation_base@DV?$stream_output_adapter@D@__crt_stdio_output@@@2@@__crt_stdio_output@@QEAA@XZ 00000001800f7d60 f i libucrtd:output.obj
 0002:0007ad80       ??1?$output_processor@DV?$stream_output_adapter@D@__crt_stdio_output@@V?$positional_parameter_base@DV?$stream_output_adapter@D@__crt_stdio_output@@@2@@__crt_stdio_output@@QEAA@XZ 00000001800f7d80 f i libucrtd:output.obj
 0002:0007ada0       ??1?$output_processor@DV?$stream_output_adapter@D@__crt_stdio_output@@V?$standard_base@DV?$stream_output_adapter@D@__crt_stdio_output@@@2@@__crt_stdio_output@@QEAA@XZ 00000001800f7da0 f i libucrtd:output.obj
 0002:0007adc0       ??1?$output_processor@DV?$string_output_adapter@D@__crt_stdio_output@@V?$format_validation_base@DV?$string_output_adapter@D@__crt_stdio_output@@@2@@__crt_stdio_output@@QEAA@XZ 00000001800f7dc0 f i libucrtd:output.obj
 0002:0007ade0       ??1?$output_processor@DV?$string_output_adapter@D@__crt_stdio_output@@V?$positional_parameter_base@DV?$string_output_adapter@D@__crt_stdio_output@@@2@@__crt_stdio_output@@QEAA@XZ 00000001800f7de0 f i libucrtd:output.obj
 0002:0007ae00       ??1?$output_processor@DV?$string_output_adapter@D@__crt_stdio_output@@V?$standard_base@DV?$string_output_adapter@D@__crt_stdio_output@@@2@@__crt_stdio_output@@QEAA@XZ 00000001800f7e00 f i libucrtd:output.obj
 0002:0007ae20       ??1?$output_processor@_WV?$stream_output_adapter@_W@__crt_stdio_output@@V?$format_validation_base@_WV?$stream_output_adapter@_W@__crt_stdio_output@@@2@@__crt_stdio_output@@QEAA@XZ 00000001800f7e20 f i libucrtd:output.obj
 0002:0007ae40       ??1?$output_processor@_WV?$stream_output_adapter@_W@__crt_stdio_output@@V?$positional_parameter_base@_WV?$stream_output_adapter@_W@__crt_stdio_output@@@2@@__crt_stdio_output@@QEAA@XZ 00000001800f7e40 f i libucrtd:output.obj
 0002:0007ae60       ??1?$output_processor@_WV?$stream_output_adapter@_W@__crt_stdio_output@@V?$standard_base@_WV?$stream_output_adapter@_W@__crt_stdio_output@@@2@@__crt_stdio_output@@QEAA@XZ 00000001800f7e60 f i libucrtd:output.obj
 0002:0007ae80       ??1?$output_processor@_WV?$string_output_adapter@_W@__crt_stdio_output@@V?$format_validation_base@_WV?$string_output_adapter@_W@__crt_stdio_output@@@2@@__crt_stdio_output@@QEAA@XZ 00000001800f7e80 f i libucrtd:output.obj
 0002:0007aea0       ??1?$output_processor@_WV?$string_output_adapter@_W@__crt_stdio_output@@V?$positional_parameter_base@_WV?$string_output_adapter@_W@__crt_stdio_output@@@2@@__crt_stdio_output@@QEAA@XZ 00000001800f7ea0 f i libucrtd:output.obj
 0002:0007aec0       ??1?$output_processor@_WV?$string_output_adapter@_W@__crt_stdio_output@@V?$standard_base@_WV?$string_output_adapter@_W@__crt_stdio_output@@@2@@__crt_stdio_output@@QEAA@XZ 00000001800f7ec0 f i libucrtd:output.obj
 0002:0007aee0       ??1?$positional_parameter_base@DV?$stream_output_adapter@D@__crt_stdio_output@@@__crt_stdio_output@@QEAA@XZ 00000001800f7ee0 f i libucrtd:output.obj
 0002:0007af00       ??1?$positional_parameter_base@DV?$string_output_adapter@D@__crt_stdio_output@@@__crt_stdio_output@@QEAA@XZ 00000001800f7f00 f i libucrtd:output.obj
 0002:0007af20       ??1?$positional_parameter_base@_WV?$stream_output_adapter@_W@__crt_stdio_output@@@__crt_stdio_output@@QEAA@XZ 00000001800f7f20 f i libucrtd:output.obj
 0002:0007af40       ??1?$positional_parameter_base@_WV?$string_output_adapter@_W@__crt_stdio_output@@@__crt_stdio_output@@QEAA@XZ 00000001800f7f40 f i libucrtd:output.obj
 0002:0007af60       ??1?$standard_base@DV?$stream_output_adapter@D@__crt_stdio_output@@@__crt_stdio_output@@QEAA@XZ 00000001800f7f60 f i libucrtd:output.obj
 0002:0007af80       ??1?$standard_base@DV?$string_output_adapter@D@__crt_stdio_output@@@__crt_stdio_output@@QEAA@XZ 00000001800f7f80 f i libucrtd:output.obj
 0002:0007afa0       ??1?$standard_base@_WV?$stream_output_adapter@_W@__crt_stdio_output@@@__crt_stdio_output@@QEAA@XZ 00000001800f7fa0 f i libucrtd:output.obj
 0002:0007afc0       ??1?$standard_base@_WV?$string_output_adapter@_W@__crt_stdio_output@@@__crt_stdio_output@@QEAA@XZ 00000001800f7fc0 f i libucrtd:output.obj
 0002:0007afe0       ??1__acrt_stdio_temporary_buffering_guard@@QEAA@XZ 00000001800f7fe0 f i libucrtd:output.obj
 0002:0007b020       ??1formatting_buffer@__crt_stdio_output@@QEAA@XZ 00000001800f8020 f i libucrtd:output.obj
 0002:0007b050       ??1guard@?$cached@H@__crt_cached_ptd_host@@QEAA@XZ 00000001800f8050 f i libucrtd:output.obj
 0002:0007b080       ??4?$__crt_unique_heap_ptr@DU__crt_internal_free_policy@@@@QEAAAEAV0@$$QEAV0@@Z 00000001800f8080 f i libucrtd:output.obj
 0002:0007b0d0       ??A?$spectre_mitigated_lookup_table@Ustate_transition_pair@__crt_stdio_output@@$0IA@@__crt_stdio_output@@QEBAAEBUstate_transition_pair@1@_K@Z 00000001800f80d0 f i libucrtd:output.obj
 0002:0007bbe0       ?adjust_hexit@?$output_processor@DV?$stream_output_adapter@D@__crt_stdio_output@@V?$format_validation_base@DV?$stream_output_adapter@D@__crt_stdio_output@@@2@@__crt_stdio_output@@CADH_N@Z 00000001800f8be0 f i libucrtd:output.obj
 0002:0007bc40       ?adjust_hexit@?$output_processor@DV?$stream_output_adapter@D@__crt_stdio_output@@V?$positional_parameter_base@DV?$stream_output_adapter@D@__crt_stdio_output@@@2@@__crt_stdio_output@@CADH_N@Z 00000001800f8c40 f i libucrtd:output.obj
 0002:0007bca0       ?adjust_hexit@?$output_processor@DV?$stream_output_adapter@D@__crt_stdio_output@@V?$standard_base@DV?$stream_output_adapter@D@__crt_stdio_output@@@2@@__crt_stdio_output@@CADH_N@Z 00000001800f8ca0 f i libucrtd:output.obj
 0002:0007bd00       ?adjust_hexit@?$output_processor@DV?$string_output_adapter@D@__crt_stdio_output@@V?$format_validation_base@DV?$string_output_adapter@D@__crt_stdio_output@@@2@@__crt_stdio_output@@CADH_N@Z 00000001800f8d00 f i libucrtd:output.obj
 0002:0007bd60       ?adjust_hexit@?$output_processor@DV?$string_output_adapter@D@__crt_stdio_output@@V?$positional_parameter_base@DV?$string_output_adapter@D@__crt_stdio_output@@@2@@__crt_stdio_output@@CADH_N@Z 00000001800f8d60 f i libucrtd:output.obj
 0002:0007bdc0       ?adjust_hexit@?$output_processor@DV?$string_output_adapter@D@__crt_stdio_output@@V?$standard_base@DV?$string_output_adapter@D@__crt_stdio_output@@@2@@__crt_stdio_output@@CADH_N@Z 00000001800f8dc0 f i libucrtd:output.obj
 0002:0007be20       ?adjust_hexit@?$output_processor@_WV?$stream_output_adapter@_W@__crt_stdio_output@@V?$format_validation_base@_WV?$stream_output_adapter@_W@__crt_stdio_output@@@2@@__crt_stdio_output@@CADH_N@Z 00000001800f8e20 f i libucrtd:output.obj
 0002:0007be80       ?adjust_hexit@?$output_processor@_WV?$stream_output_adapter@_W@__crt_stdio_output@@V?$positional_parameter_base@_WV?$stream_output_adapter@_W@__crt_stdio_output@@@2@@__crt_stdio_output@@CADH_N@Z 00000001800f8e80 f i libucrtd:output.obj
 0002:0007bee0       ?adjust_hexit@?$output_processor@_WV?$stream_output_adapter@_W@__crt_stdio_output@@V?$standard_base@_WV?$stream_output_adapter@_W@__crt_stdio_output@@@2@@__crt_stdio_output@@CADH_N@Z 00000001800f8ee0 f i libucrtd:output.obj
 0002:0007bf40       ?adjust_hexit@?$output_processor@_WV?$string_output_adapter@_W@__crt_stdio_output@@V?$format_validation_base@_WV?$string_output_adapter@_W@__crt_stdio_output@@@2@@__crt_stdio_output@@CADH_N@Z 00000001800f8f40 f i libucrtd:output.obj
 0002:0007bfa0       ?adjust_hexit@?$output_processor@_WV?$string_output_adapter@_W@__crt_stdio_output@@V?$positional_parameter_base@_WV?$string_output_adapter@_W@__crt_stdio_output@@@2@@__crt_stdio_output@@CADH_N@Z 00000001800f8fa0 f i libucrtd:output.obj
 0002:0007c000       ?adjust_hexit@?$output_processor@_WV?$string_output_adapter@_W@__crt_stdio_output@@V?$standard_base@_WV?$string_output_adapter@_W@__crt_stdio_output@@@2@@__crt_stdio_output@@CADH_N@Z 00000001800f9000 f i libucrtd:output.obj
 0002:0007c060       ?advance_to_next_pass@?$positional_parameter_base@DV?$stream_output_adapter@D@__crt_stdio_output@@@__crt_stdio_output@@IEAA_NXZ 00000001800f9060 f i libucrtd:output.obj
 0002:0007c140       ?advance_to_next_pass@?$positional_parameter_base@DV?$string_output_adapter@D@__crt_stdio_output@@@__crt_stdio_output@@IEAA_NXZ 00000001800f9140 f i libucrtd:output.obj
 0002:0007c220       ?advance_to_next_pass@?$positional_parameter_base@_WV?$stream_output_adapter@_W@__crt_stdio_output@@@__crt_stdio_output@@IEAA_NXZ 00000001800f9220 f i libucrtd:output.obj
 0002:0007c300       ?advance_to_next_pass@?$positional_parameter_base@_WV?$string_output_adapter@_W@__crt_stdio_output@@@__crt_stdio_output@@IEAA_NXZ 00000001800f9300 f i libucrtd:output.obj
 0002:0007c3e0       ?advance_to_next_pass@?$standard_base@DV?$stream_output_adapter@D@__crt_stdio_output@@@__crt_stdio_output@@IEAA_NXZ 00000001800f93e0 f i libucrtd:output.obj
 0002:0007c440       ?advance_to_next_pass@?$standard_base@DV?$string_output_adapter@D@__crt_stdio_output@@@__crt_stdio_output@@IEAA_NXZ 00000001800f9440 f i libucrtd:output.obj
 0002:0007c4a0       ?advance_to_next_pass@?$standard_base@_WV?$stream_output_adapter@_W@__crt_stdio_output@@@__crt_stdio_output@@IEAA_NXZ 00000001800f94a0 f i libucrtd:output.obj
 0002:0007c500       ?advance_to_next_pass@?$standard_base@_WV?$string_output_adapter@_W@__crt_stdio_output@@@__crt_stdio_output@@IEAA_NXZ 00000001800f9500 f i libucrtd:output.obj
 0002:0007c560       ?check@?$cached@H@__crt_cached_ptd_host@@QEBA_NH@Z 00000001800f9560 f i libucrtd:output.obj
 0002:0007c5b0       ?create_guard@?$cached@H@__crt_cached_ptd_host@@QEAA?AVguard@12@XZ 00000001800f95b0 f i libucrtd:output.obj
 0002:0007c5e0       ?crop_zeroes@__crt_stdio_output@@YAXPEADQEAU__crt_locale_pointers@@@Z 00000001800f95e0 f i libucrtd:output.obj
 0002:0007c780       ?disable@guard@?$cached@H@__crt_cached_ptd_host@@QEAAXXZ 00000001800f9780 f i libucrtd:output.obj
 0002:0007c7a0       ?enable@guard@?$cached@H@__crt_cached_ptd_host@@QEAAXXZ 00000001800f97a0 f i libucrtd:output.obj
 0002:0007c7c0       ?find_next_state@?$output_processor@DV?$stream_output_adapter@D@__crt_stdio_output@@V?$format_validation_base@DV?$stream_output_adapter@D@__crt_stdio_output@@@2@@__crt_stdio_output@@AEBA?AW4state@2@DW432@@Z 00000001800f97c0 f i libucrtd:output.obj
 0002:0007c880       ?find_next_state@?$output_processor@DV?$stream_output_adapter@D@__crt_stdio_output@@V?$positional_parameter_base@DV?$stream_output_adapter@D@__crt_stdio_output@@@2@@__crt_stdio_output@@AEBA?AW4state@2@DW432@@Z 00000001800f9880 f i libucrtd:output.obj
 0002:0007c940       ?find_next_state@?$output_processor@DV?$stream_output_adapter@D@__crt_stdio_output@@V?$standard_base@DV?$stream_output_adapter@D@__crt_stdio_output@@@2@@__crt_stdio_output@@AEBA?AW4state@2@DW432@@Z 00000001800f9940 f i libucrtd:output.obj
 0002:0007ca00       ?find_next_state@?$output_processor@DV?$string_output_adapter@D@__crt_stdio_output@@V?$format_validation_base@DV?$string_output_adapter@D@__crt_stdio_output@@@2@@__crt_stdio_output@@AEBA?AW4state@2@DW432@@Z 00000001800f9a00 f i libucrtd:output.obj
 0002:0007cac0       ?find_next_state@?$output_processor@DV?$string_output_adapter@D@__crt_stdio_output@@V?$positional_parameter_base@DV?$string_output_adapter@D@__crt_stdio_output@@@2@@__crt_stdio_output@@AEBA?AW4state@2@DW432@@Z 00000001800f9ac0 f i libucrtd:output.obj
 0002:0007cb80       ?find_next_state@?$output_processor@DV?$string_output_adapter@D@__crt_stdio_output@@V?$standard_base@DV?$string_output_adapter@D@__crt_stdio_output@@@2@@__crt_stdio_output@@AEBA?AW4state@2@DW432@@Z 00000001800f9b80 f i libucrtd:output.obj
 0002:0007cc40       ?find_next_state@?$output_processor@_WV?$stream_output_adapter@_W@__crt_stdio_output@@V?$format_validation_base@_WV?$stream_output_adapter@_W@__crt_stdio_output@@@2@@__crt_stdio_output@@AEBA?AW4state@2@_WW432@@Z 00000001800f9c40 f i libucrtd:output.obj
 0002:0007cd00       ?find_next_state@?$output_processor@_WV?$stream_output_adapter@_W@__crt_stdio_output@@V?$positional_parameter_base@_WV?$stream_output_adapter@_W@__crt_stdio_output@@@2@@__crt_stdio_output@@AEBA?AW4state@2@_WW432@@Z 00000001800f9d00 f i libucrtd:output.obj
 0002:0007cdc0       ?find_next_state@?$output_processor@_WV?$stream_output_adapter@_W@__crt_stdio_output@@V?$standard_base@_WV?$stream_output_adapter@_W@__crt_stdio_output@@@2@@__crt_stdio_output@@AEBA?AW4state@2@_WW432@@Z 00000001800f9dc0 f i libucrtd:output.obj
 0002:0007ce80       ?find_next_state@?$output_processor@_WV?$string_output_adapter@_W@__crt_stdio_output@@V?$format_validation_base@_WV?$string_output_adapter@_W@__crt_stdio_output@@@2@@__crt_stdio_output@@AEBA?AW4state@2@_WW432@@Z 00000001800f9e80 f i libucrtd:output.obj
 0002:0007cf40       ?find_next_state@?$output_processor@_WV?$string_output_adapter@_W@__crt_stdio_output@@V?$positional_parameter_base@_WV?$string_output_adapter@_W@__crt_stdio_output@@@2@@__crt_stdio_output@@AEBA?AW4state@2@_WW432@@Z 00000001800f9f40 f i libucrtd:output.obj
 0002:0007d000       ?find_next_state@?$output_processor@_WV?$string_output_adapter@_W@__crt_stdio_output@@V?$standard_base@_WV?$string_output_adapter@_W@__crt_stdio_output@@@2@@__crt_stdio_output@@AEBA?AW4state@2@_WW432@@Z 00000001800fa000 f i libucrtd:output.obj
 0002:0007d0c0       ?force_decimal_point@__crt_stdio_output@@YAXPEADQEAU__crt_locale_pointers@@@Z 00000001800fa0c0 f i libucrtd:output.obj
 0002:0007d1f0       ?get@?$c_string_character_source@D@__crt_strtox@@QEAADXZ 00000001800fa1f0 f i libucrtd:output.obj
 0002:0007d230       ?get@?$c_string_character_source@_W@__crt_strtox@@QEAA_WXZ 00000001800fa230 f i libucrtd:output.obj
 0002:0007d280       ?get_locale@__crt_cached_ptd_host@@QEAAPEAU__crt_locale_pointers@@XZ 00000001800fa280 f i libucrtd:output.obj
 0002:0007d2b0       ?get_parameter_type@?$positional_parameter_base@DV?$stream_output_adapter@D@__crt_stdio_output@@@__crt_stdio_output@@CA?AW4parameter_type@12@F@Z 00000001800fa2b0 f i libucrtd:output.obj
 0002:0007d2c0       ?get_parameter_type@?$positional_parameter_base@DV?$stream_output_adapter@D@__crt_stdio_output@@@__crt_stdio_output@@CA?AW4parameter_type@12@G@Z 00000001800fa2c0 f i libucrtd:output.obj
 0002:0007d2d0       ?get_parameter_type@?$positional_parameter_base@DV?$stream_output_adapter@D@__crt_stdio_output@@@__crt_stdio_output@@CA?AW4parameter_type@12@H@Z 00000001800fa2d0 f i libucrtd:output.obj
 0002:0007d2e0       ?get_parameter_type@?$positional_parameter_base@DV?$stream_output_adapter@D@__crt_stdio_output@@@__crt_stdio_output@@CA?AW4parameter_type@12@I@Z 00000001800fa2e0 f i libucrtd:output.obj
 0002:0007d2f0       ?get_parameter_type@?$positional_parameter_base@DV?$stream_output_adapter@D@__crt_stdio_output@@@__crt_stdio_output@@CA?AW4parameter_type@12@U_CRT_DOUBLE@@@Z 00000001800fa2f0 f i libucrtd:output.obj
 0002:0007d300       ?get_parameter_type@?$positional_parameter_base@DV?$stream_output_adapter@D@__crt_stdio_output@@@__crt_stdio_output@@CA?AW4parameter_type@12@_J@Z 00000001800fa300 f i libucrtd:output.obj
 0002:0007d310       ?get_parameter_type@?$positional_parameter_base@DV?$stream_output_adapter@D@__crt_stdio_output@@@__crt_stdio_output@@CA?AW4parameter_type@12@_K@Z 00000001800fa310 f i libucrtd:output.obj
 0002:0007d320       ?get_parameter_type@?$positional_parameter_base@DV?$stream_output_adapter@D@__crt_stdio_output@@@__crt_stdio_output@@CA?AW4parameter_type@12@_W@Z 00000001800fa320 f i libucrtd:output.obj
 0002:0007d330       ?get_parameter_type@?$positional_parameter_base@DV?$string_output_adapter@D@__crt_stdio_output@@@__crt_stdio_output@@CA?AW4parameter_type@12@F@Z 00000001800fa330 f i libucrtd:output.obj
 0002:0007d340       ?get_parameter_type@?$positional_parameter_base@DV?$string_output_adapter@D@__crt_stdio_output@@@__crt_stdio_output@@CA?AW4parameter_type@12@G@Z 00000001800fa340 f i libucrtd:output.obj
 0002:0007d350       ?get_parameter_type@?$positional_parameter_base@DV?$string_output_adapter@D@__crt_stdio_output@@@__crt_stdio_output@@CA?AW4parameter_type@12@H@Z 00000001800fa350 f i libucrtd:output.obj
 0002:0007d360       ?get_parameter_type@?$positional_parameter_base@DV?$string_output_adapter@D@__crt_stdio_output@@@__crt_stdio_output@@CA?AW4parameter_type@12@I@Z 00000001800fa360 f i libucrtd:output.obj
 0002:0007d370       ?get_parameter_type@?$positional_parameter_base@DV?$string_output_adapter@D@__crt_stdio_output@@@__crt_stdio_output@@CA?AW4parameter_type@12@U_CRT_DOUBLE@@@Z 00000001800fa370 f i libucrtd:output.obj
 0002:0007d380       ?get_parameter_type@?$positional_parameter_base@DV?$string_output_adapter@D@__crt_stdio_output@@@__crt_stdio_output@@CA?AW4parameter_type@12@_J@Z 00000001800fa380 f i libucrtd:output.obj
 0002:0007d390       ?get_parameter_type@?$positional_parameter_base@DV?$string_output_adapter@D@__crt_stdio_output@@@__crt_stdio_output@@CA?AW4parameter_type@12@_K@Z 00000001800fa390 f i libucrtd:output.obj
 0002:0007d3a0       ?get_parameter_type@?$positional_parameter_base@DV?$string_output_adapter@D@__crt_stdio_output@@@__crt_stdio_output@@CA?AW4parameter_type@12@_W@Z 00000001800fa3a0 f i libucrtd:output.obj
 0002:0007d3b0       ?get_parameter_type@?$positional_parameter_base@_WV?$stream_output_adapter@_W@__crt_stdio_output@@@__crt_stdio_output@@CA?AW4parameter_type@12@F@Z 00000001800fa3b0 f i libucrtd:output.obj
 0002:0007d3c0       ?get_parameter_type@?$positional_parameter_base@_WV?$stream_output_adapter@_W@__crt_stdio_output@@@__crt_stdio_output@@CA?AW4parameter_type@12@G@Z 00000001800fa3c0 f i libucrtd:output.obj
 0002:0007d3d0       ?get_parameter_type@?$positional_parameter_base@_WV?$stream_output_adapter@_W@__crt_stdio_output@@@__crt_stdio_output@@CA?AW4parameter_type@12@H@Z 00000001800fa3d0 f i libucrtd:output.obj
 0002:0007d3e0       ?get_parameter_type@?$positional_parameter_base@_WV?$stream_output_adapter@_W@__crt_stdio_output@@@__crt_stdio_output@@CA?AW4parameter_type@12@I@Z 00000001800fa3e0 f i libucrtd:output.obj
 0002:0007d3f0       ?get_parameter_type@?$positional_parameter_base@_WV?$stream_output_adapter@_W@__crt_stdio_output@@@__crt_stdio_output@@CA?AW4parameter_type@12@U_CRT_DOUBLE@@@Z 00000001800fa3f0 f i libucrtd:output.obj
 0002:0007d400       ?get_parameter_type@?$positional_parameter_base@_WV?$stream_output_adapter@_W@__crt_stdio_output@@@__crt_stdio_output@@CA?AW4parameter_type@12@_J@Z 00000001800fa400 f i libucrtd:output.obj
 0002:0007d410       ?get_parameter_type@?$positional_parameter_base@_WV?$stream_output_adapter@_W@__crt_stdio_output@@@__crt_stdio_output@@CA?AW4parameter_type@12@_K@Z 00000001800fa410 f i libucrtd:output.obj
 0002:0007d420       ?get_parameter_type@?$positional_parameter_base@_WV?$stream_output_adapter@_W@__crt_stdio_output@@@__crt_stdio_output@@CA?AW4parameter_type@12@_W@Z 00000001800fa420 f i libucrtd:output.obj
 0002:0007d430       ?get_parameter_type@?$positional_parameter_base@_WV?$string_output_adapter@_W@__crt_stdio_output@@@__crt_stdio_output@@CA?AW4parameter_type@12@F@Z 00000001800fa430 f i libucrtd:output.obj
 0002:0007d440       ?get_parameter_type@?$positional_parameter_base@_WV?$string_output_adapter@_W@__crt_stdio_output@@@__crt_stdio_output@@CA?AW4parameter_type@12@G@Z 00000001800fa440 f i libucrtd:output.obj
 0002:0007d450       ?get_parameter_type@?$positional_parameter_base@_WV?$string_output_adapter@_W@__crt_stdio_output@@@__crt_stdio_output@@CA?AW4parameter_type@12@H@Z 00000001800fa450 f i libucrtd:output.obj
 0002:0007d460       ?get_parameter_type@?$positional_parameter_base@_WV?$string_output_adapter@_W@__crt_stdio_output@@@__crt_stdio_output@@CA?AW4parameter_type@12@I@Z 00000001800fa460 f i libucrtd:output.obj
 0002:0007d470       ?get_parameter_type@?$positional_parameter_base@_WV?$string_output_adapter@_W@__crt_stdio_output@@@__crt_stdio_output@@CA?AW4parameter_type@12@U_CRT_DOUBLE@@@Z 00000001800fa470 f i libucrtd:output.obj
 0002:0007d480       ?get_parameter_type@?$positional_parameter_base@_WV?$string_output_adapter@_W@__crt_stdio_output@@@__crt_stdio_output@@CA?AW4parameter_type@12@_J@Z 00000001800fa480 f i libucrtd:output.obj
 0002:0007d490       ?get_parameter_type@?$positional_parameter_base@_WV?$string_output_adapter@_W@__crt_stdio_output@@@__crt_stdio_output@@CA?AW4parameter_type@12@_K@Z 00000001800fa490 f i libucrtd:output.obj
 0002:0007d4a0       ?get_parameter_type@?$positional_parameter_base@_WV?$string_output_adapter@_W@__crt_stdio_output@@@__crt_stdio_output@@CA?AW4parameter_type@12@_W@Z 00000001800fa4a0 f i libucrtd:output.obj
 0002:0007d4b0       ?has_flag@?$output_processor@DV?$stream_output_adapter@D@__crt_stdio_output@@V?$format_validation_base@DV?$stream_output_adapter@D@__crt_stdio_output@@@2@@__crt_stdio_output@@AEBA_NI@Z 00000001800fa4b0 f i libucrtd:output.obj
 0002:0007d500       ?has_flag@?$output_processor@DV?$stream_output_adapter@D@__crt_stdio_output@@V?$positional_parameter_base@DV?$stream_output_adapter@D@__crt_stdio_output@@@2@@__crt_stdio_output@@AEBA_NI@Z 00000001800fa500 f i libucrtd:output.obj
 0002:0007d550       ?has_flag@?$output_processor@DV?$stream_output_adapter@D@__crt_stdio_output@@V?$standard_base@DV?$stream_output_adapter@D@__crt_stdio_output@@@2@@__crt_stdio_output@@AEBA_NI@Z 00000001800fa550 f i libucrtd:output.obj
 0002:0007d5a0       ?has_flag@?$output_processor@DV?$string_output_adapter@D@__crt_stdio_output@@V?$format_validation_base@DV?$string_output_adapter@D@__crt_stdio_output@@@2@@__crt_stdio_output@@AEBA_NI@Z 00000001800fa5a0 f i libucrtd:output.obj
 0002:0007d5f0       ?has_flag@?$output_processor@DV?$string_output_adapter@D@__crt_stdio_output@@V?$positional_parameter_base@DV?$string_output_adapter@D@__crt_stdio_output@@@2@@__crt_stdio_output@@AEBA_NI@Z 00000001800fa5f0 f i libucrtd:output.obj
 0002:0007d640       ?has_flag@?$output_processor@DV?$string_output_adapter@D@__crt_stdio_output@@V?$standard_base@DV?$string_output_adapter@D@__crt_stdio_output@@@2@@__crt_stdio_output@@AEBA_NI@Z 00000001800fa640 f i libucrtd:output.obj
 0002:0007d690       ?has_flag@?$output_processor@_WV?$stream_output_adapter@_W@__crt_stdio_output@@V?$format_validation_base@_WV?$stream_output_adapter@_W@__crt_stdio_output@@@2@@__crt_stdio_output@@AEBA_NI@Z 00000001800fa690 f i libucrtd:output.obj
 0002:0007d6e0       ?has_flag@?$output_processor@_WV?$stream_output_adapter@_W@__crt_stdio_output@@V?$positional_parameter_base@_WV?$stream_output_adapter@_W@__crt_stdio_output@@@2@@__crt_stdio_output@@AEBA_NI@Z 00000001800fa6e0 f i libucrtd:output.obj
 0002:0007d730       ?has_flag@?$output_processor@_WV?$stream_output_adapter@_W@__crt_stdio_output@@V?$standard_base@_WV?$stream_output_adapter@_W@__crt_stdio_output@@@2@@__crt_stdio_output@@AEBA_NI@Z 00000001800fa730 f i libucrtd:output.obj
 0002:0007d780       ?has_flag@?$output_processor@_WV?$string_output_adapter@_W@__crt_stdio_output@@V?$format_validation_base@_WV?$string_output_adapter@_W@__crt_stdio_output@@@2@@__crt_stdio_output@@AEBA_NI@Z 00000001800fa780 f i libucrtd:output.obj
 0002:0007d7d0       ?has_flag@?$output_processor@_WV?$string_output_adapter@_W@__crt_stdio_output@@V?$positional_parameter_base@_WV?$string_output_adapter@_W@__crt_stdio_output@@@2@@__crt_stdio_output@@AEBA_NI@Z 00000001800fa7d0 f i libucrtd:output.obj
 0002:0007d820       ?has_flag@?$output_processor@_WV?$string_output_adapter@_W@__crt_stdio_output@@V?$standard_base@_WV?$string_output_adapter@_W@__crt_stdio_output@@@2@@__crt_stdio_output@@AEBA_NI@Z 00000001800fa820 f i libucrtd:output.obj
 0002:0007d870       ?is_positional_parameter_reappearance_consistent@?$positional_parameter_base@DV?$stream_output_adapter@D@__crt_stdio_output@@@__crt_stdio_output@@AEAA_NAEBUparameter_data@12@W4parameter_type@12@DW4length_modifier@2@@Z 00000001800fa870 f i libucrtd:output.obj
 0002:0007db60       ?is_positional_parameter_reappearance_consistent@?$positional_parameter_base@DV?$string_output_adapter@D@__crt_stdio_output@@@__crt_stdio_output@@AEAA_NAEBUparameter_data@12@W4parameter_type@12@DW4length_modifier@2@@Z 00000001800fab60 f i libucrtd:output.obj
 0002:0007de50       ?is_positional_parameter_reappearance_consistent@?$positional_parameter_base@_WV?$stream_output_adapter@_W@__crt_stdio_output@@@__crt_stdio_output@@AEAA_NAEBUparameter_data@12@W4parameter_type@12@_WW4length_modifier@2@@Z 00000001800fae50 f i libucrtd:output.obj
 0002:0007e140       ?is_positional_parameter_reappearance_consistent@?$positional_parameter_base@_WV?$string_output_adapter@_W@__crt_stdio_output@@@__crt_stdio_output@@AEAA_NAEBUparameter_data@12@W4parameter_type@12@_WW4length_modifier@2@@Z 00000001800fb140 f i libucrtd:output.obj
 0002:0007e430       ?maximum_signed_value@__crt_strtox@@YAJK@Z 00000001800fb430 f i libucrtd:output.obj
 0002:0007e440       ?minimum_signed_value@__crt_strtox@@YAJK@Z 00000001800fb440 f i libucrtd:output.obj
 0002:0007e450       ?narrow_null_string@?$output_processor@DV?$stream_output_adapter@D@__crt_stdio_output@@V?$format_validation_base@DV?$stream_output_adapter@D@__crt_stdio_output@@@2@@__crt_stdio_output@@CAPEADXZ 00000001800fb450 f i libucrtd:output.obj
 0002:0007e460       ?narrow_null_string@?$output_processor@DV?$stream_output_adapter@D@__crt_stdio_output@@V?$positional_parameter_base@DV?$stream_output_adapter@D@__crt_stdio_output@@@2@@__crt_stdio_output@@CAPEADXZ 00000001800fb460 f i libucrtd:output.obj
 0002:0007e470       ?narrow_null_string@?$output_processor@DV?$stream_output_adapter@D@__crt_stdio_output@@V?$standard_base@DV?$stream_output_adapter@D@__crt_stdio_output@@@2@@__crt_stdio_output@@CAPEADXZ 00000001800fb470 f i libucrtd:output.obj
 0002:0007e480       ?narrow_null_string@?$output_processor@DV?$string_output_adapter@D@__crt_stdio_output@@V?$format_validation_base@DV?$string_output_adapter@D@__crt_stdio_output@@@2@@__crt_stdio_output@@CAPEADXZ 00000001800fb480 f i libucrtd:output.obj
 0002:0007e490       ?narrow_null_string@?$output_processor@DV?$string_output_adapter@D@__crt_stdio_output@@V?$positional_parameter_base@DV?$string_output_adapter@D@__crt_stdio_output@@@2@@__crt_stdio_output@@CAPEADXZ 00000001800fb490 f i libucrtd:output.obj
 0002:0007e4a0       ?narrow_null_string@?$output_processor@DV?$string_output_adapter@D@__crt_stdio_output@@V?$standard_base@DV?$string_output_adapter@D@__crt_stdio_output@@@2@@__crt_stdio_output@@CAPEADXZ 00000001800fb4a0 f i libucrtd:output.obj
 0002:0007e4b0       ?narrow_null_string@?$output_processor@_WV?$stream_output_adapter@_W@__crt_stdio_output@@V?$format_validation_base@_WV?$stream_output_adapter@_W@__crt_stdio_output@@@2@@__crt_stdio_output@@CAPEADXZ 00000001800fb4b0 f i libucrtd:output.obj
 0002:0007e4c0       ?narrow_null_string@?$output_processor@_WV?$stream_output_adapter@_W@__crt_stdio_output@@V?$positional_parameter_base@_WV?$stream_output_adapter@_W@__crt_stdio_output@@@2@@__crt_stdio_output@@CAPEADXZ 00000001800fb4c0 f i libucrtd:output.obj
 0002:0007e4d0       ?narrow_null_string@?$output_processor@_WV?$stream_output_adapter@_W@__crt_stdio_output@@V?$standard_base@_WV?$stream_output_adapter@_W@__crt_stdio_output@@@2@@__crt_stdio_output@@CAPEADXZ 00000001800fb4d0 f i libucrtd:output.obj
 0002:0007e4e0       ?narrow_null_string@?$output_processor@_WV?$string_output_adapter@_W@__crt_stdio_output@@V?$format_validation_base@_WV?$string_output_adapter@_W@__crt_stdio_output@@@2@@__crt_stdio_output@@CAPEADXZ 00000001800fb4e0 f i libucrtd:output.obj
 0002:0007e4f0       ?narrow_null_string@?$output_processor@_WV?$string_output_adapter@_W@__crt_stdio_output@@V?$positional_parameter_base@_WV?$string_output_adapter@_W@__crt_stdio_output@@@2@@__crt_stdio_output@@CAPEADXZ 00000001800fb4f0 f i libucrtd:output.obj
 0002:0007e500       ?narrow_null_string@?$output_processor@_WV?$string_output_adapter@_W@__crt_stdio_output@@V?$standard_base@_WV?$string_output_adapter@_W@__crt_stdio_output@@@2@@__crt_stdio_output@@CAPEADXZ 00000001800fb500 f i libucrtd:output.obj
 0002:0007e510       ?parse_digit@__crt_strtox@@YAID@Z 00000001800fb510 f i libucrtd:output.obj
 0002:0007e590       ?parse_digit@__crt_strtox@@YAI_W@Z 00000001800fb590 f i libucrtd:output.obj
 0002:0007e600       ?parse_int_from_format_string@?$output_processor@DV?$stream_output_adapter@D@__crt_stdio_output@@V?$format_validation_base@DV?$stream_output_adapter@D@__crt_stdio_output@@@2@@__crt_stdio_output@@AEAA_NQEAH@Z 00000001800fb600 f i libucrtd:output.obj
 0002:0007e740       ?parse_int_from_format_string@?$output_processor@DV?$stream_output_adapter@D@__crt_stdio_output@@V?$positional_parameter_base@DV?$stream_output_adapter@D@__crt_stdio_output@@@2@@__crt_stdio_output@@AEAA_NQEAH@Z 00000001800fb740 f i libucrtd:output.obj
 0002:0007e880       ?parse_int_from_format_string@?$output_processor@DV?$stream_output_adapter@D@__crt_stdio_output@@V?$standard_base@DV?$stream_output_adapter@D@__crt_stdio_output@@@2@@__crt_stdio_output@@AEAA_NQEAH@Z 00000001800fb880 f i libucrtd:output.obj
 0002:0007e9c0       ?parse_int_from_format_string@?$output_processor@DV?$string_output_adapter@D@__crt_stdio_output@@V?$format_validation_base@DV?$string_output_adapter@D@__crt_stdio_output@@@2@@__crt_stdio_output@@AEAA_NQEAH@Z 00000001800fb9c0 f i libucrtd:output.obj
 0002:0007eb00       ?parse_int_from_format_string@?$output_processor@DV?$string_output_adapter@D@__crt_stdio_output@@V?$positional_parameter_base@DV?$string_output_adapter@D@__crt_stdio_output@@@2@@__crt_stdio_output@@AEAA_NQEAH@Z 00000001800fbb00 f i libucrtd:output.obj
 0002:0007ec40       ?parse_int_from_format_string@?$output_processor@DV?$string_output_adapter@D@__crt_stdio_output@@V?$standard_base@DV?$string_output_adapter@D@__crt_stdio_output@@@2@@__crt_stdio_output@@AEAA_NQEAH@Z 00000001800fbc40 f i libucrtd:output.obj
 0002:0007ed80       ?parse_int_from_format_string@?$output_processor@_WV?$stream_output_adapter@_W@__crt_stdio_output@@V?$format_validation_base@_WV?$stream_output_adapter@_W@__crt_stdio_output@@@2@@__crt_stdio_output@@AEAA_NQEAH@Z 00000001800fbd80 f i libucrtd:output.obj
 0002:0007eec0       ?parse_int_from_format_string@?$output_processor@_WV?$stream_output_adapter@_W@__crt_stdio_output@@V?$positional_parameter_base@_WV?$stream_output_adapter@_W@__crt_stdio_output@@@2@@__crt_stdio_output@@AEAA_NQEAH@Z 00000001800fbec0 f i libucrtd:output.obj
 0002:0007f000       ?parse_int_from_format_string@?$output_processor@_WV?$stream_output_adapter@_W@__crt_stdio_output@@V?$standard_base@_WV?$stream_output_adapter@_W@__crt_stdio_output@@@2@@__crt_stdio_output@@AEAA_NQEAH@Z 00000001800fc000 f i libucrtd:output.obj
 0002:0007f140       ?parse_int_from_format_string@?$output_processor@_WV?$string_output_adapter@_W@__crt_stdio_output@@V?$format_validation_base@_WV?$string_output_adapter@_W@__crt_stdio_output@@@2@@__crt_stdio_output@@AEAA_NQEAH@Z 00000001800fc140 f i libucrtd:output.obj
 0002:0007f280       ?parse_int_from_format_string@?$output_processor@_WV?$string_output_adapter@_W@__crt_stdio_output@@V?$positional_parameter_base@_WV?$string_output_adapter@_W@__crt_stdio_output@@@2@@__crt_stdio_output@@AEAA_NQEAH@Z 00000001800fc280 f i libucrtd:output.obj
 0002:0007f3c0       ?parse_int_from_format_string@?$output_processor@_WV?$string_output_adapter@_W@__crt_stdio_output@@V?$standard_base@_WV?$string_output_adapter@_W@__crt_stdio_output@@@2@@__crt_stdio_output@@AEAA_NQEAH@Z 00000001800fc3c0 f i libucrtd:output.obj
 0002:0007f500       ?process@?$output_processor@DV?$stream_output_adapter@D@__crt_stdio_output@@V?$format_validation_base@DV?$stream_output_adapter@D@__crt_stdio_output@@@2@@__crt_stdio_output@@QEAAHXZ 00000001800fc500 f i libucrtd:output.obj
 0002:0007f9b0       ?process@?$output_processor@DV?$stream_output_adapter@D@__crt_stdio_output@@V?$positional_parameter_base@DV?$stream_output_adapter@D@__crt_stdio_output@@@2@@__crt_stdio_output@@QEAAHXZ 00000001800fc9b0 f i libucrtd:output.obj
 0002:0007fe60       ?process@?$output_processor@DV?$stream_output_adapter@D@__crt_stdio_output@@V?$standard_base@DV?$stream_output_adapter@D@__crt_stdio_output@@@2@@__crt_stdio_output@@QEAAHXZ 00000001800fce60 f i libucrtd:output.obj
 0002:00080310       ?process@?$output_processor@DV?$string_output_adapter@D@__crt_stdio_output@@V?$format_validation_base@DV?$string_output_adapter@D@__crt_stdio_output@@@2@@__crt_stdio_output@@QEAAHXZ 00000001800fd310 f i libucrtd:output.obj
 0002:000807c0       ?process@?$output_processor@DV?$string_output_adapter@D@__crt_stdio_output@@V?$positional_parameter_base@DV?$string_output_adapter@D@__crt_stdio_output@@@2@@__crt_stdio_output@@QEAAHXZ 00000001800fd7c0 f i libucrtd:output.obj
 0002:00080c70       ?process@?$output_processor@DV?$string_output_adapter@D@__crt_stdio_output@@V?$standard_base@DV?$string_output_adapter@D@__crt_stdio_output@@@2@@__crt_stdio_output@@QEAAHXZ 00000001800fdc70 f i libucrtd:output.obj
 0002:00081120       ?process@?$output_processor@_WV?$stream_output_adapter@_W@__crt_stdio_output@@V?$format_validation_base@_WV?$stream_output_adapter@_W@__crt_stdio_output@@@2@@__crt_stdio_output@@QEAAHXZ 00000001800fe120 f i libucrtd:output.obj
 0002:000815d0       ?process@?$output_processor@_WV?$stream_output_adapter@_W@__crt_stdio_output@@V?$positional_parameter_base@_WV?$stream_output_adapter@_W@__crt_stdio_output@@@2@@__crt_stdio_output@@QEAAHXZ 00000001800fe5d0 f i libucrtd:output.obj
 0002:00081a80       ?process@?$output_processor@_WV?$stream_output_adapter@_W@__crt_stdio_output@@V?$standard_base@_WV?$stream_output_adapter@_W@__crt_stdio_output@@@2@@__crt_stdio_output@@QEAAHXZ 00000001800fea80 f i libucrtd:output.obj
 0002:00081f30       ?process@?$output_processor@_WV?$string_output_adapter@_W@__crt_stdio_output@@V?$format_validation_base@_WV?$string_output_adapter@_W@__crt_stdio_output@@@2@@__crt_stdio_output@@QEAAHXZ 00000001800fef30 f i libucrtd:output.obj
 0002:000823e0       ?process@?$output_processor@_WV?$string_output_adapter@_W@__crt_stdio_output@@V?$positional_parameter_base@_WV?$string_output_adapter@_W@__crt_stdio_output@@@2@@__crt_stdio_output@@QEAAHXZ 00000001800ff3e0 f i libucrtd:output.obj
 0002:00082890       ?process@?$output_processor@_WV?$string_output_adapter@_W@__crt_stdio_output@@V?$standard_base@_WV?$string_output_adapter@_W@__crt_stdio_output@@@2@@__crt_stdio_output@@QEAAHXZ 00000001800ff890 f i libucrtd:output.obj
 0002:00082d40       ?restore_state@?$c_string_character_source@D@__crt_strtox@@QEAA_NQEBD@Z 00000001800ffd40 f i libucrtd:output.obj
 0002:00082d60       ?restore_state@?$c_string_character_source@_W@__crt_strtox@@QEAA_NQEB_W@Z 00000001800ffd60 f i libucrtd:output.obj
 0002:00082d80       ?save_state@?$c_string_character_source@D@__crt_strtox@@QEBAPEBDXZ 00000001800ffd80 f i libucrtd:output.obj
 0002:00082da0       ?save_state@?$c_string_character_source@_W@__crt_strtox@@QEBAPEB_WXZ 00000001800ffda0 f i libucrtd:output.obj
 0002:00082dc0       ?set_flag@?$output_processor@DV?$stream_output_adapter@D@__crt_stdio_output@@V?$format_validation_base@DV?$stream_output_adapter@D@__crt_stdio_output@@@2@@__crt_stdio_output@@AEAAXI@Z 00000001800ffdc0 f i libucrtd:output.obj
 0002:00082df0       ?set_flag@?$output_processor@DV?$stream_output_adapter@D@__crt_stdio_output@@V?$positional_parameter_base@DV?$stream_output_adapter@D@__crt_stdio_output@@@2@@__crt_stdio_output@@AEAAXI@Z 00000001800ffdf0 f i libucrtd:output.obj
 0002:00082e20       ?set_flag@?$output_processor@DV?$stream_output_adapter@D@__crt_stdio_output@@V?$standard_base@DV?$stream_output_adapter@D@__crt_stdio_output@@@2@@__crt_stdio_output@@AEAAXI@Z 00000001800ffe20 f i libucrtd:output.obj
 0002:00082e50       ?set_flag@?$output_processor@DV?$string_output_adapter@D@__crt_stdio_output@@V?$format_validation_base@DV?$string_output_adapter@D@__crt_stdio_output@@@2@@__crt_stdio_output@@AEAAXI@Z 00000001800ffe50 f i libucrtd:output.obj
 0002:00082e80       ?set_flag@?$output_processor@DV?$string_output_adapter@D@__crt_stdio_output@@V?$positional_parameter_base@DV?$string_output_adapter@D@__crt_stdio_output@@@2@@__crt_stdio_output@@AEAAXI@Z 00000001800ffe80 f i libucrtd:output.obj
 0002:00082eb0       ?set_flag@?$output_processor@DV?$string_output_adapter@D@__crt_stdio_output@@V?$standard_base@DV?$string_output_adapter@D@__crt_stdio_output@@@2@@__crt_stdio_output@@AEAAXI@Z 00000001800ffeb0 f i libucrtd:output.obj
 0002:00082ee0       ?set_flag@?$output_processor@_WV?$stream_output_adapter@_W@__crt_stdio_output@@V?$format_validation_base@_WV?$stream_output_adapter@_W@__crt_stdio_output@@@2@@__crt_stdio_output@@AEAAXI@Z 00000001800ffee0 f i libucrtd:output.obj
 0002:00082f10       ?set_flag@?$output_processor@_WV?$stream_output_adapter@_W@__crt_stdio_output@@V?$positional_parameter_base@_WV?$stream_output_adapter@_W@__crt_stdio_output@@@2@@__crt_stdio_output@@AEAAXI@Z 00000001800fff10 f i libucrtd:output.obj
 0002:00082f40       ?set_flag@?$output_processor@_WV?$stream_output_adapter@_W@__crt_stdio_output@@V?$standard_base@_WV?$stream_output_adapter@_W@__crt_stdio_output@@@2@@__crt_stdio_output@@AEAAXI@Z 00000001800fff40 f i libucrtd:output.obj
 0002:00082f70       ?set_flag@?$output_processor@_WV?$string_output_adapter@_W@__crt_stdio_output@@V?$format_validation_base@_WV?$string_output_adapter@_W@__crt_stdio_output@@@2@@__crt_stdio_output@@AEAAXI@Z 00000001800fff70 f i libucrtd:output.obj
 0002:00082fa0       ?set_flag@?$output_processor@_WV?$string_output_adapter@_W@__crt_stdio_output@@V?$positional_parameter_base@_WV?$string_output_adapter@_W@__crt_stdio_output@@@2@@__crt_stdio_output@@AEAAXI@Z 00000001800fffa0 f i libucrtd:output.obj
 0002:00082fd0       ?set_flag@?$output_processor@_WV?$string_output_adapter@_W@__crt_stdio_output@@V?$standard_base@_WV?$string_output_adapter@_W@__crt_stdio_output@@@2@@__crt_stdio_output@@AEAAXI@Z 00000001800fffd0 f i libucrtd:output.obj
 0002:00083000       ?should_format@?$positional_parameter_base@DV?$stream_output_adapter@D@__crt_stdio_output@@@__crt_stdio_output@@IEAA_NXZ 0000000180100000 f i libucrtd:output.obj
 0002:00083050       ?should_format@?$positional_parameter_base@DV?$string_output_adapter@D@__crt_stdio_output@@@__crt_stdio_output@@IEAA_NXZ 0000000180100050 f i libucrtd:output.obj
 0002:000830a0       ?should_format@?$positional_parameter_base@_WV?$stream_output_adapter@_W@__crt_stdio_output@@@__crt_stdio_output@@IEAA_NXZ 00000001801000a0 f i libucrtd:output.obj
 0002:000830f0       ?should_format@?$positional_parameter_base@_WV?$string_output_adapter@_W@__crt_stdio_output@@@__crt_stdio_output@@IEAA_NXZ 00000001801000f0 f i libucrtd:output.obj
 0002:00083140       ?should_format@?$standard_base@DV?$stream_output_adapter@D@__crt_stdio_output@@@__crt_stdio_output@@IEAA_NXZ 0000000180100140 f i libucrtd:output.obj
 0002:00083150       ?should_format@?$standard_base@DV?$string_output_adapter@D@__crt_stdio_output@@@__crt_stdio_output@@IEAA_NXZ 0000000180100150 f i libucrtd:output.obj
 0002:00083160       ?should_format@?$standard_base@_WV?$stream_output_adapter@_W@__crt_stdio_output@@@__crt_stdio_output@@IEAA_NXZ 0000000180100160 f i libucrtd:output.obj
 0002:00083170       ?should_format@?$standard_base@_WV?$string_output_adapter@_W@__crt_stdio_output@@@__crt_stdio_output@@IEAA_NXZ 0000000180100170 f i libucrtd:output.obj
 0002:00083180       ?should_skip_normal_state_processing@?$positional_parameter_base@DV?$stream_output_adapter@D@__crt_stdio_output@@@__crt_stdio_output@@IEAA_NXZ 0000000180100180 f i libucrtd:output.obj
 0002:000831e0       ?should_skip_normal_state_processing@?$positional_parameter_base@DV?$string_output_adapter@D@__crt_stdio_output@@@__crt_stdio_output@@IEAA_NXZ 00000001801001e0 f i libucrtd:output.obj
 0002:00083240       ?should_skip_normal_state_processing@?$positional_parameter_base@_WV?$stream_output_adapter@_W@__crt_stdio_output@@@__crt_stdio_output@@IEAA_NXZ 0000000180100240 f i libucrtd:output.obj
 0002:000832a0       ?should_skip_normal_state_processing@?$positional_parameter_base@_WV?$string_output_adapter@_W@__crt_stdio_output@@@__crt_stdio_output@@IEAA_NXZ 00000001801002a0 f i libucrtd:output.obj
 0002:00083300       ?should_skip_normal_state_processing@?$standard_base@DV?$stream_output_adapter@D@__crt_stdio_output@@@__crt_stdio_output@@IEAA_NXZ 0000000180100300 f i libucrtd:output.obj
 0002:00083310       ?should_skip_normal_state_processing@?$standard_base@DV?$string_output_adapter@D@__crt_stdio_output@@@__crt_stdio_output@@IEAA_NXZ 0000000180100310 f i libucrtd:output.obj
 0002:00083320       ?should_skip_normal_state_processing@?$standard_base@_WV?$stream_output_adapter@_W@__crt_stdio_output@@@__crt_stdio_output@@IEAA_NXZ 0000000180100320 f i libucrtd:output.obj
 0002:00083330       ?should_skip_normal_state_processing@?$standard_base@_WV?$string_output_adapter@_W@__crt_stdio_output@@@__crt_stdio_output@@IEAA_NXZ 0000000180100330 f i libucrtd:output.obj
 0002:00083340       ?should_skip_type_state_output@?$positional_parameter_base@DV?$stream_output_adapter@D@__crt_stdio_output@@@__crt_stdio_output@@IEBA_NXZ 0000000180100340 f i libucrtd:output.obj
 0002:00083390       ?should_skip_type_state_output@?$positional_parameter_base@DV?$string_output_adapter@D@__crt_stdio_output@@@__crt_stdio_output@@IEBA_NXZ 0000000180100390 f i libucrtd:output.obj
 0002:000833e0       ?should_skip_type_state_output@?$positional_parameter_base@_WV?$stream_output_adapter@_W@__crt_stdio_output@@@__crt_stdio_output@@IEBA_NXZ 00000001801003e0 f i libucrtd:output.obj
 0002:00083430       ?should_skip_type_state_output@?$positional_parameter_base@_WV?$string_output_adapter@_W@__crt_stdio_output@@@__crt_stdio_output@@IEBA_NXZ 0000000180100430 f i libucrtd:output.obj
 0002:00083480       ?should_skip_type_state_output@?$standard_base@DV?$stream_output_adapter@D@__crt_stdio_output@@@__crt_stdio_output@@IEBA_NXZ 0000000180100480 f i libucrtd:output.obj
 0002:00083490       ?should_skip_type_state_output@?$standard_base@DV?$string_output_adapter@D@__crt_stdio_output@@@__crt_stdio_output@@IEBA_NXZ 0000000180100490 f i libucrtd:output.obj
 0002:000834a0       ?should_skip_type_state_output@?$standard_base@_WV?$stream_output_adapter@_W@__crt_stdio_output@@@__crt_stdio_output@@IEBA_NXZ 00000001801004a0 f i libucrtd:output.obj
 0002:000834b0       ?should_skip_type_state_output@?$standard_base@_WV?$string_output_adapter@_W@__crt_stdio_output@@@__crt_stdio_output@@IEBA_NXZ 00000001801004b0 f i libucrtd:output.obj
 0002:000834c0       ?state_case_dot@?$output_processor@DV?$stream_output_adapter@D@__crt_stdio_output@@V?$format_validation_base@DV?$stream_output_adapter@D@__crt_stdio_output@@@2@@__crt_stdio_output@@AEAA_NXZ 00000001801004c0 f i libucrtd:output.obj
 0002:000834e0       ?state_case_dot@?$output_processor@DV?$stream_output_adapter@D@__crt_stdio_output@@V?$positional_parameter_base@DV?$stream_output_adapter@D@__crt_stdio_output@@@2@@__crt_stdio_output@@AEAA_NXZ 00000001801004e0 f i libucrtd:output.obj
 0002:00083500       ?state_case_dot@?$output_processor@DV?$stream_output_adapter@D@__crt_stdio_output@@V?$standard_base@DV?$stream_output_adapter@D@__crt_stdio_output@@@2@@__crt_stdio_output@@AEAA_NXZ 0000000180100500 f i libucrtd:output.obj
 0002:00083520       ?state_case_dot@?$output_processor@DV?$string_output_adapter@D@__crt_stdio_output@@V?$format_validation_base@DV?$string_output_adapter@D@__crt_stdio_output@@@2@@__crt_stdio_output@@AEAA_NXZ 0000000180100520 f i libucrtd:output.obj
 0002:00083540       ?state_case_dot@?$output_processor@DV?$string_output_adapter@D@__crt_stdio_output@@V?$positional_parameter_base@DV?$string_output_adapter@D@__crt_stdio_output@@@2@@__crt_stdio_output@@AEAA_NXZ 0000000180100540 f i libucrtd:output.obj
 0002:00083560       ?state_case_dot@?$output_processor@DV?$string_output_adapter@D@__crt_stdio_output@@V?$standard_base@DV?$string_output_adapter@D@__crt_stdio_output@@@2@@__crt_stdio_output@@AEAA_NXZ 0000000180100560 f i libucrtd:output.obj
 0002:00083580       ?state_case_dot@?$output_processor@_WV?$stream_output_adapter@_W@__crt_stdio_output@@V?$format_validation_base@_WV?$stream_output_adapter@_W@__crt_stdio_output@@@2@@__crt_stdio_output@@AEAA_NXZ 0000000180100580 f i libucrtd:output.obj
 0002:000835a0       ?state_case_dot@?$output_processor@_WV?$stream_output_adapter@_W@__crt_stdio_output@@V?$positional_parameter_base@_WV?$stream_output_adapter@_W@__crt_stdio_output@@@2@@__crt_stdio_output@@AEAA_NXZ 00000001801005a0 f i libucrtd:output.obj
 0002:000835c0       ?state_case_dot@?$output_processor@_WV?$stream_output_adapter@_W@__crt_stdio_output@@V?$standard_base@_WV?$stream_output_adapter@_W@__crt_stdio_output@@@2@@__crt_stdio_output@@AEAA_NXZ 00000001801005c0 f i libucrtd:output.obj
 0002:000835e0       ?state_case_dot@?$output_processor@_WV?$string_output_adapter@_W@__crt_stdio_output@@V?$format_validation_base@_WV?$string_output_adapter@_W@__crt_stdio_output@@@2@@__crt_stdio_output@@AEAA_NXZ 00000001801005e0 f i libucrtd:output.obj
 0002:00083600       ?state_case_dot@?$output_processor@_WV?$string_output_adapter@_W@__crt_stdio_output@@V?$positional_parameter_base@_WV?$string_output_adapter@_W@__crt_stdio_output@@@2@@__crt_stdio_output@@AEAA_NXZ 0000000180100600 f i libucrtd:output.obj
 0002:00083620       ?state_case_dot@?$output_processor@_WV?$string_output_adapter@_W@__crt_stdio_output@@V?$standard_base@_WV?$string_output_adapter@_W@__crt_stdio_output@@@2@@__crt_stdio_output@@AEAA_NXZ 0000000180100620 f i libucrtd:output.obj
 0002:00083640       ?state_case_flag@?$output_processor@DV?$stream_output_adapter@D@__crt_stdio_output@@V?$format_validation_base@DV?$stream_output_adapter@D@__crt_stdio_output@@@2@@__crt_stdio_output@@AEAA_NXZ 0000000180100640 f i libucrtd:output.obj
 0002:00083700       ?state_case_flag@?$output_processor@DV?$stream_output_adapter@D@__crt_stdio_output@@V?$positional_parameter_base@DV?$stream_output_adapter@D@__crt_stdio_output@@@2@@__crt_stdio_output@@AEAA_NXZ 0000000180100700 f i libucrtd:output.obj
 0002:000837c0       ?state_case_flag@?$output_processor@DV?$stream_output_adapter@D@__crt_stdio_output@@V?$standard_base@DV?$stream_output_adapter@D@__crt_stdio_output@@@2@@__crt_stdio_output@@AEAA_NXZ 00000001801007c0 f i libucrtd:output.obj
 0002:00083880       ?state_case_flag@?$output_processor@DV?$string_output_adapter@D@__crt_stdio_output@@V?$format_validation_base@DV?$string_output_adapter@D@__crt_stdio_output@@@2@@__crt_stdio_output@@AEAA_NXZ 0000000180100880 f i libucrtd:output.obj
 0002:00083940       ?state_case_flag@?$output_processor@DV?$string_output_adapter@D@__crt_stdio_output@@V?$positional_parameter_base@DV?$string_output_adapter@D@__crt_stdio_output@@@2@@__crt_stdio_output@@AEAA_NXZ 0000000180100940 f i libucrtd:output.obj
 0002:00083a00       ?state_case_flag@?$output_processor@DV?$string_output_adapter@D@__crt_stdio_output@@V?$standard_base@DV?$string_output_adapter@D@__crt_stdio_output@@@2@@__crt_stdio_output@@AEAA_NXZ 0000000180100a00 f i libucrtd:output.obj
 0002:00083ac0       ?state_case_flag@?$output_processor@_WV?$stream_output_adapter@_W@__crt_stdio_output@@V?$format_validation_base@_WV?$stream_output_adapter@_W@__crt_stdio_output@@@2@@__crt_stdio_output@@AEAA_NXZ 0000000180100ac0 f i libucrtd:output.obj
 0002:00083b80       ?state_case_flag@?$output_processor@_WV?$stream_output_adapter@_W@__crt_stdio_output@@V?$positional_parameter_base@_WV?$stream_output_adapter@_W@__crt_stdio_output@@@2@@__crt_stdio_output@@AEAA_NXZ 0000000180100b80 f i libucrtd:output.obj
 0002:00083c40       ?state_case_flag@?$output_processor@_WV?$stream_output_adapter@_W@__crt_stdio_output@@V?$standard_base@_WV?$stream_output_adapter@_W@__crt_stdio_output@@@2@@__crt_stdio_output@@AEAA_NXZ 0000000180100c40 f i libucrtd:output.obj
 0002:00083d00       ?state_case_flag@?$output_processor@_WV?$string_output_adapter@_W@__crt_stdio_output@@V?$format_validation_base@_WV?$string_output_adapter@_W@__crt_stdio_output@@@2@@__crt_stdio_output@@AEAA_NXZ 0000000180100d00 f i libucrtd:output.obj
 0002:00083dc0       ?state_case_flag@?$output_processor@_WV?$string_output_adapter@_W@__crt_stdio_output@@V?$positional_parameter_base@_WV?$string_output_adapter@_W@__crt_stdio_output@@@2@@__crt_stdio_output@@AEAA_NXZ 0000000180100dc0 f i libucrtd:output.obj
 0002:00083e80       ?state_case_flag@?$output_processor@_WV?$string_output_adapter@_W@__crt_stdio_output@@V?$standard_base@_WV?$string_output_adapter@_W@__crt_stdio_output@@@2@@__crt_stdio_output@@AEAA_NXZ 0000000180100e80 f i libucrtd:output.obj
 0002:00083f40       ?state_case_normal@?$output_processor@DV?$stream_output_adapter@D@__crt_stdio_output@@V?$format_validation_base@DV?$stream_output_adapter@D@__crt_stdio_output@@@2@@__crt_stdio_output@@AEAA_NXZ 0000000180100f40 f i libucrtd:output.obj
 0002:00084080       ?state_case_normal@?$output_processor@DV?$stream_output_adapter@D@__crt_stdio_output@@V?$positional_parameter_base@DV?$stream_output_adapter@D@__crt_stdio_output@@@2@@__crt_stdio_output@@AEAA_NXZ 0000000180101080 f i libucrtd:output.obj
 0002:000841c0       ?state_case_normal@?$output_processor@DV?$stream_output_adapter@D@__crt_stdio_output@@V?$standard_base@DV?$stream_output_adapter@D@__crt_stdio_output@@@2@@__crt_stdio_output@@AEAA_NXZ 00000001801011c0 f i libucrtd:output.obj
 0002:00084300       ?state_case_normal@?$output_processor@DV?$string_output_adapter@D@__crt_stdio_output@@V?$format_validation_base@DV?$string_output_adapter@D@__crt_stdio_output@@@2@@__crt_stdio_output@@AEAA_NXZ 0000000180101300 f i libucrtd:output.obj
 0002:00084440       ?state_case_normal@?$output_processor@DV?$string_output_adapter@D@__crt_stdio_output@@V?$positional_parameter_base@DV?$string_output_adapter@D@__crt_stdio_output@@@2@@__crt_stdio_output@@AEAA_NXZ 0000000180101440 f i libucrtd:output.obj
 0002:00084580       ?state_case_normal@?$output_processor@DV?$string_output_adapter@D@__crt_stdio_output@@V?$standard_base@DV?$string_output_adapter@D@__crt_stdio_output@@@2@@__crt_stdio_output@@AEAA_NXZ 0000000180101580 f i libucrtd:output.obj
 0002:000846c0       ?state_case_normal@?$output_processor@_WV?$stream_output_adapter@_W@__crt_stdio_output@@V?$format_validation_base@_WV?$stream_output_adapter@_W@__crt_stdio_output@@@2@@__crt_stdio_output@@AEAA_NXZ 00000001801016c0 f i libucrtd:output.obj
 0002:00084800       ?state_case_normal@?$output_processor@_WV?$stream_output_adapter@_W@__crt_stdio_output@@V?$positional_parameter_base@_WV?$stream_output_adapter@_W@__crt_stdio_output@@@2@@__crt_stdio_output@@AEAA_NXZ 0000000180101800 f i libucrtd:output.obj
 0002:00084940       ?state_case_normal@?$output_processor@_WV?$stream_output_adapter@_W@__crt_stdio_output@@V?$standard_base@_WV?$stream_output_adapter@_W@__crt_stdio_output@@@2@@__crt_stdio_output@@AEAA_NXZ 0000000180101940 f i libucrtd:output.obj
 0002:00084a80       ?state_case_normal@?$output_processor@_WV?$string_output_adapter@_W@__crt_stdio_output@@V?$format_validation_base@_WV?$string_output_adapter@_W@__crt_stdio_output@@@2@@__crt_stdio_output@@AEAA_NXZ 0000000180101a80 f i libucrtd:output.obj
 0002:00084bc0       ?state_case_normal@?$output_processor@_WV?$string_output_adapter@_W@__crt_stdio_output@@V?$positional_parameter_base@_WV?$string_output_adapter@_W@__crt_stdio_output@@@2@@__crt_stdio_output@@AEAA_NXZ 0000000180101bc0 f i libucrtd:output.obj
 0002:00084d00       ?state_case_normal@?$output_processor@_WV?$string_output_adapter@_W@__crt_stdio_output@@V?$standard_base@_WV?$string_output_adapter@_W@__crt_stdio_output@@@2@@__crt_stdio_output@@AEAA_NXZ 0000000180101d00 f i libucrtd:output.obj
 0002:00084e40       ?state_case_normal_common@?$output_processor@DV?$stream_output_adapter@D@__crt_stdio_output@@V?$format_validation_base@DV?$stream_output_adapter@D@__crt_stdio_output@@@2@@__crt_stdio_output@@AEAA_NXZ 0000000180101e40 f i libucrtd:output.obj
 0002:00084ec0       ?state_case_normal_common@?$output_processor@DV?$stream_output_adapter@D@__crt_stdio_output@@V?$positional_parameter_base@DV?$stream_output_adapter@D@__crt_stdio_output@@@2@@__crt_stdio_output@@AEAA_NXZ 0000000180101ec0 f i libucrtd:output.obj
 0002:00084f40       ?state_case_normal_common@?$output_processor@DV?$stream_output_adapter@D@__crt_stdio_output@@V?$standard_base@DV?$stream_output_adapter@D@__crt_stdio_output@@@2@@__crt_stdio_output@@AEAA_NXZ 0000000180101f40 f i libucrtd:output.obj
 0002:00084fc0       ?state_case_normal_common@?$output_processor@DV?$string_output_adapter@D@__crt_stdio_output@@V?$format_validation_base@DV?$string_output_adapter@D@__crt_stdio_output@@@2@@__crt_stdio_output@@AEAA_NXZ 0000000180101fc0 f i libucrtd:output.obj
 0002:00085040       ?state_case_normal_common@?$output_processor@DV?$string_output_adapter@D@__crt_stdio_output@@V?$positional_parameter_base@DV?$string_output_adapter@D@__crt_stdio_output@@@2@@__crt_stdio_output@@AEAA_NXZ 0000000180102040 f i libucrtd:output.obj
 0002:000850c0       ?state_case_normal_common@?$output_processor@DV?$string_output_adapter@D@__crt_stdio_output@@V?$standard_base@DV?$string_output_adapter@D@__crt_stdio_output@@@2@@__crt_stdio_output@@AEAA_NXZ 00000001801020c0 f i libucrtd:output.obj
 0002:00085140       ?state_case_normal_common@?$output_processor@_WV?$stream_output_adapter@_W@__crt_stdio_output@@V?$format_validation_base@_WV?$stream_output_adapter@_W@__crt_stdio_output@@@2@@__crt_stdio_output@@AEAA_NXZ 0000000180102140 f i libucrtd:output.obj
 0002:000851c0       ?state_case_normal_common@?$output_processor@_WV?$stream_output_adapter@_W@__crt_stdio_output@@V?$positional_parameter_base@_WV?$stream_output_adapter@_W@__crt_stdio_output@@@2@@__crt_stdio_output@@AEAA_NXZ 00000001801021c0 f i libucrtd:output.obj
 0002:00085240       ?state_case_normal_common@?$output_processor@_WV?$stream_output_adapter@_W@__crt_stdio_output@@V?$standard_base@_WV?$stream_output_adapter@_W@__crt_stdio_output@@@2@@__crt_stdio_output@@AEAA_NXZ 0000000180102240 f i libucrtd:output.obj
 0002:000852c0       ?state_case_normal_common@?$output_processor@_WV?$string_output_adapter@_W@__crt_stdio_output@@V?$format_validation_base@_WV?$string_output_adapter@_W@__crt_stdio_output@@@2@@__crt_stdio_output@@AEAA_NXZ 00000001801022c0 f i libucrtd:output.obj
 0002:00085340       ?state_case_normal_common@?$output_processor@_WV?$string_output_adapter@_W@__crt_stdio_output@@V?$positional_parameter_base@_WV?$string_output_adapter@_W@__crt_stdio_output@@@2@@__crt_stdio_output@@AEAA_NXZ 0000000180102340 f i libucrtd:output.obj
 0002:000853c0       ?state_case_normal_common@?$output_processor@_WV?$string_output_adapter@_W@__crt_stdio_output@@V?$standard_base@_WV?$string_output_adapter@_W@__crt_stdio_output@@@2@@__crt_stdio_output@@AEAA_NXZ 00000001801023c0 f i libucrtd:output.obj
 0002:00085440       ?state_case_normal_tchar@?$output_processor@DV?$stream_output_adapter@D@__crt_stdio_output@@V?$format_validation_base@DV?$stream_output_adapter@D@__crt_stdio_output@@@2@@__crt_stdio_output@@AEAA_ND@Z 0000000180102440 f i libucrtd:output.obj
 0002:00085630       ?state_case_normal_tchar@?$output_processor@DV?$stream_output_adapter@D@__crt_stdio_output@@V?$positional_parameter_base@DV?$stream_output_adapter@D@__crt_stdio_output@@@2@@__crt_stdio_output@@AEAA_ND@Z 0000000180102630 f i libucrtd:output.obj
 0002:00085820       ?state_case_normal_tchar@?$output_processor@DV?$stream_output_adapter@D@__crt_stdio_output@@V?$standard_base@DV?$stream_output_adapter@D@__crt_stdio_output@@@2@@__crt_stdio_output@@AEAA_ND@Z 0000000180102820 f i libucrtd:output.obj
 0002:00085a10       ?state_case_normal_tchar@?$output_processor@DV?$string_output_adapter@D@__crt_stdio_output@@V?$format_validation_base@DV?$string_output_adapter@D@__crt_stdio_output@@@2@@__crt_stdio_output@@AEAA_ND@Z 0000000180102a10 f i libucrtd:output.obj
 0002:00085c00       ?state_case_normal_tchar@?$output_processor@DV?$string_output_adapter@D@__crt_stdio_output@@V?$positional_parameter_base@DV?$string_output_adapter@D@__crt_stdio_output@@@2@@__crt_stdio_output@@AEAA_ND@Z 0000000180102c00 f i libucrtd:output.obj
 0002:00085df0       ?state_case_normal_tchar@?$output_processor@DV?$string_output_adapter@D@__crt_stdio_output@@V?$standard_base@DV?$string_output_adapter@D@__crt_stdio_output@@@2@@__crt_stdio_output@@AEAA_ND@Z 0000000180102df0 f i libucrtd:output.obj
 0002:00085fe0       ?state_case_normal_tchar@?$output_processor@_WV?$stream_output_adapter@_W@__crt_stdio_output@@V?$format_validation_base@_WV?$stream_output_adapter@_W@__crt_stdio_output@@@2@@__crt_stdio_output@@AEAA_N_W@Z 0000000180102fe0 f i libucrtd:output.obj
 0002:00086000       ?state_case_normal_tchar@?$output_processor@_WV?$stream_output_adapter@_W@__crt_stdio_output@@V?$positional_parameter_base@_WV?$stream_output_adapter@_W@__crt_stdio_output@@@2@@__crt_stdio_output@@AEAA_N_W@Z 0000000180103000 f i libucrtd:output.obj
 0002:00086020       ?state_case_normal_tchar@?$output_processor@_WV?$stream_output_adapter@_W@__crt_stdio_output@@V?$standard_base@_WV?$stream_output_adapter@_W@__crt_stdio_output@@@2@@__crt_stdio_output@@AEAA_N_W@Z 0000000180103020 f i libucrtd:output.obj
 0002:00086040       ?state_case_normal_tchar@?$output_processor@_WV?$string_output_adapter@_W@__crt_stdio_output@@V?$format_validation_base@_WV?$string_output_adapter@_W@__crt_stdio_output@@@2@@__crt_stdio_output@@AEAA_N_W@Z 0000000180103040 f i libucrtd:output.obj
 0002:00086060       ?state_case_normal_tchar@?$output_processor@_WV?$string_output_adapter@_W@__crt_stdio_output@@V?$positional_parameter_base@_WV?$string_output_adapter@_W@__crt_stdio_output@@@2@@__crt_stdio_output@@AEAA_N_W@Z 0000000180103060 f i libucrtd:output.obj
 0002:00086080       ?state_case_normal_tchar@?$output_processor@_WV?$string_output_adapter@_W@__crt_stdio_output@@V?$standard_base@_WV?$string_output_adapter@_W@__crt_stdio_output@@@2@@__crt_stdio_output@@AEAA_N_W@Z 0000000180103080 f i libucrtd:output.obj
 0002:000860a0       ?state_case_percent@?$output_processor@DV?$stream_output_adapter@D@__crt_stdio_output@@V?$format_validation_base@DV?$stream_output_adapter@D@__crt_stdio_output@@@2@@__crt_stdio_output@@AEAA_NXZ 00000001801030a0 f i libucrtd:output.obj
 0002:00086100       ?state_case_percent@?$output_processor@DV?$stream_output_adapter@D@__crt_stdio_output@@V?$positional_parameter_base@DV?$stream_output_adapter@D@__crt_stdio_output@@@2@@__crt_stdio_output@@AEAA_NXZ 0000000180103100 f i libucrtd:output.obj
 0002:00086160       ?state_case_percent@?$output_processor@DV?$stream_output_adapter@D@__crt_stdio_output@@V?$standard_base@DV?$stream_output_adapter@D@__crt_stdio_output@@@2@@__crt_stdio_output@@AEAA_NXZ 0000000180103160 f i libucrtd:output.obj
 0002:000861c0       ?state_case_percent@?$output_processor@DV?$string_output_adapter@D@__crt_stdio_output@@V?$format_validation_base@DV?$string_output_adapter@D@__crt_stdio_output@@@2@@__crt_stdio_output@@AEAA_NXZ 00000001801031c0 f i libucrtd:output.obj
 0002:00086220       ?state_case_percent@?$output_processor@DV?$string_output_adapter@D@__crt_stdio_output@@V?$positional_parameter_base@DV?$string_output_adapter@D@__crt_stdio_output@@@2@@__crt_stdio_output@@AEAA_NXZ 0000000180103220 f i libucrtd:output.obj
 0002:00086280       ?state_case_percent@?$output_processor@DV?$string_output_adapter@D@__crt_stdio_output@@V?$standard_base@DV?$string_output_adapter@D@__crt_stdio_output@@@2@@__crt_stdio_output@@AEAA_NXZ 0000000180103280 f i libucrtd:output.obj
 0002:000862e0       ?state_case_percent@?$output_processor@_WV?$stream_output_adapter@_W@__crt_stdio_output@@V?$format_validation_base@_WV?$stream_output_adapter@_W@__crt_stdio_output@@@2@@__crt_stdio_output@@AEAA_NXZ 00000001801032e0 f i libucrtd:output.obj
 0002:00086340       ?state_case_percent@?$output_processor@_WV?$stream_output_adapter@_W@__crt_stdio_output@@V?$positional_parameter_base@_WV?$stream_output_adapter@_W@__crt_stdio_output@@@2@@__crt_stdio_output@@AEAA_NXZ 0000000180103340 f i libucrtd:output.obj
 0002:000863a0       ?state_case_percent@?$output_processor@_WV?$stream_output_adapter@_W@__crt_stdio_output@@V?$standard_base@_WV?$stream_output_adapter@_W@__crt_stdio_output@@@2@@__crt_stdio_output@@AEAA_NXZ 00000001801033a0 f i libucrtd:output.obj
 0002:00086400       ?state_case_percent@?$output_processor@_WV?$string_output_adapter@_W@__crt_stdio_output@@V?$format_validation_base@_WV?$string_output_adapter@_W@__crt_stdio_output@@@2@@__crt_stdio_output@@AEAA_NXZ 0000000180103400 f i libucrtd:output.obj
 0002:00086460       ?state_case_percent@?$output_processor@_WV?$string_output_adapter@_W@__crt_stdio_output@@V?$positional_parameter_base@_WV?$string_output_adapter@_W@__crt_stdio_output@@@2@@__crt_stdio_output@@AEAA_NXZ 0000000180103460 f i libucrtd:output.obj
 0002:000864c0       ?state_case_percent@?$output_processor@_WV?$string_output_adapter@_W@__crt_stdio_output@@V?$standard_base@_WV?$string_output_adapter@_W@__crt_stdio_output@@@2@@__crt_stdio_output@@AEAA_NXZ 00000001801034c0 f i libucrtd:output.obj
 0002:00086520       ?state_case_precision@?$output_processor@DV?$stream_output_adapter@D@__crt_stdio_output@@V?$format_validation_base@DV?$stream_output_adapter@D@__crt_stdio_output@@@2@@__crt_stdio_output@@AEAA_NXZ 0000000180103520 f i libucrtd:output.obj
 0002:000865c0       ?state_case_precision@?$output_processor@DV?$stream_output_adapter@D@__crt_stdio_output@@V?$positional_parameter_base@DV?$stream_output_adapter@D@__crt_stdio_output@@@2@@__crt_stdio_output@@AEAA_NXZ 00000001801035c0 f i libucrtd:output.obj
 0002:00086660       ?state_case_precision@?$output_processor@DV?$stream_output_adapter@D@__crt_stdio_output@@V?$standard_base@DV?$stream_output_adapter@D@__crt_stdio_output@@@2@@__crt_stdio_output@@AEAA_NXZ 0000000180103660 f i libucrtd:output.obj
 0002:00086700       ?state_case_precision@?$output_processor@DV?$string_output_adapter@D@__crt_stdio_output@@V?$format_validation_base@DV?$string_output_adapter@D@__crt_stdio_output@@@2@@__crt_stdio_output@@AEAA_NXZ 0000000180103700 f i libucrtd:output.obj
 0002:000867a0       ?state_case_precision@?$output_processor@DV?$string_output_adapter@D@__crt_stdio_output@@V?$positional_parameter_base@DV?$string_output_adapter@D@__crt_stdio_output@@@2@@__crt_stdio_output@@AEAA_NXZ 00000001801037a0 f i libucrtd:output.obj
 0002:00086840       ?state_case_precision@?$output_processor@DV?$string_output_adapter@D@__crt_stdio_output@@V?$standard_base@DV?$string_output_adapter@D@__crt_stdio_output@@@2@@__crt_stdio_output@@AEAA_NXZ 0000000180103840 f i libucrtd:output.obj
 0002:000868e0       ?state_case_precision@?$output_processor@_WV?$stream_output_adapter@_W@__crt_stdio_output@@V?$format_validation_base@_WV?$stream_output_adapter@_W@__crt_stdio_output@@@2@@__crt_stdio_output@@AEAA_NXZ 00000001801038e0 f i libucrtd:output.obj
 0002:00086980       ?state_case_precision@?$output_processor@_WV?$stream_output_adapter@_W@__crt_stdio_output@@V?$positional_parameter_base@_WV?$stream_output_adapter@_W@__crt_stdio_output@@@2@@__crt_stdio_output@@AEAA_NXZ 0000000180103980 f i libucrtd:output.obj
 0002:00086a20       ?state_case_precision@?$output_processor@_WV?$stream_output_adapter@_W@__crt_stdio_output@@V?$standard_base@_WV?$stream_output_adapter@_W@__crt_stdio_output@@@2@@__crt_stdio_output@@AEAA_NXZ 0000000180103a20 f i libucrtd:output.obj
 0002:00086ac0       ?state_case_precision@?$output_processor@_WV?$string_output_adapter@_W@__crt_stdio_output@@V?$format_validation_base@_WV?$string_output_adapter@_W@__crt_stdio_output@@@2@@__crt_stdio_output@@AEAA_NXZ 0000000180103ac0 f i libucrtd:output.obj
 0002:00086b60       ?state_case_precision@?$output_processor@_WV?$string_output_adapter@_W@__crt_stdio_output@@V?$positional_parameter_base@_WV?$string_output_adapter@_W@__crt_stdio_output@@@2@@__crt_stdio_output@@AEAA_NXZ 0000000180103b60 f i libucrtd:output.obj
 0002:00086c00       ?state_case_precision@?$output_processor@_WV?$string_output_adapter@_W@__crt_stdio_output@@V?$standard_base@_WV?$string_output_adapter@_W@__crt_stdio_output@@@2@@__crt_stdio_output@@AEAA_NXZ 0000000180103c00 f i libucrtd:output.obj
 0002:00086ca0       ?state_case_size@?$output_processor@DV?$stream_output_adapter@D@__crt_stdio_output@@V?$format_validation_base@DV?$stream_output_adapter@D@__crt_stdio_output@@@2@@__crt_stdio_output@@AEAA_NXZ 0000000180103ca0 f i libucrtd:output.obj
 0002:00087290       ?state_case_size@?$output_processor@DV?$stream_output_adapter@D@__crt_stdio_output@@V?$positional_parameter_base@DV?$stream_output_adapter@D@__crt_stdio_output@@@2@@__crt_stdio_output@@AEAA_NXZ 0000000180104290 f i libucrtd:output.obj
 0002:00087880       ?state_case_size@?$output_processor@DV?$stream_output_adapter@D@__crt_stdio_output@@V?$standard_base@DV?$stream_output_adapter@D@__crt_stdio_output@@@2@@__crt_stdio_output@@AEAA_NXZ 0000000180104880 f i libucrtd:output.obj
 0002:00087e70       ?state_case_size@?$output_processor@DV?$string_output_adapter@D@__crt_stdio_output@@V?$format_validation_base@DV?$string_output_adapter@D@__crt_stdio_output@@@2@@__crt_stdio_output@@AEAA_NXZ 0000000180104e70 f i libucrtd:output.obj
 0002:00088460       ?state_case_size@?$output_processor@DV?$string_output_adapter@D@__crt_stdio_output@@V?$positional_parameter_base@DV?$string_output_adapter@D@__crt_stdio_output@@@2@@__crt_stdio_output@@AEAA_NXZ 0000000180105460 f i libucrtd:output.obj
 0002:00088a50       ?state_case_size@?$output_processor@DV?$string_output_adapter@D@__crt_stdio_output@@V?$standard_base@DV?$string_output_adapter@D@__crt_stdio_output@@@2@@__crt_stdio_output@@AEAA_NXZ 0000000180105a50 f i libucrtd:output.obj
 0002:00089040       ?state_case_size@?$output_processor@_WV?$stream_output_adapter@_W@__crt_stdio_output@@V?$format_validation_base@_WV?$stream_output_adapter@_W@__crt_stdio_output@@@2@@__crt_stdio_output@@AEAA_NXZ 0000000180106040 f i libucrtd:output.obj
 0002:00089630       ?state_case_size@?$output_processor@_WV?$stream_output_adapter@_W@__crt_stdio_output@@V?$positional_parameter_base@_WV?$stream_output_adapter@_W@__crt_stdio_output@@@2@@__crt_stdio_output@@AEAA_NXZ 0000000180106630 f i libucrtd:output.obj
 0002:00089c20       ?state_case_size@?$output_processor@_WV?$stream_output_adapter@_W@__crt_stdio_output@@V?$standard_base@_WV?$stream_output_adapter@_W@__crt_stdio_output@@@2@@__crt_stdio_output@@AEAA_NXZ 0000000180106c20 f i libucrtd:output.obj
 0002:0008a210       ?state_case_size@?$output_processor@_WV?$string_output_adapter@_W@__crt_stdio_output@@V?$format_validation_base@_WV?$string_output_adapter@_W@__crt_stdio_output@@@2@@__crt_stdio_output@@AEAA_NXZ 0000000180107210 f i libucrtd:output.obj
 0002:0008a800       ?state_case_size@?$output_processor@_WV?$string_output_adapter@_W@__crt_stdio_output@@V?$positional_parameter_base@_WV?$string_output_adapter@_W@__crt_stdio_output@@@2@@__crt_stdio_output@@AEAA_NXZ 0000000180107800 f i libucrtd:output.obj
 0002:0008adf0       ?state_case_size@?$output_processor@_WV?$string_output_adapter@_W@__crt_stdio_output@@V?$standard_base@_WV?$string_output_adapter@_W@__crt_stdio_output@@@2@@__crt_stdio_output@@AEAA_NXZ 0000000180107df0 f i libucrtd:output.obj
 0002:0008b3e0       ?state_case_type@?$output_processor@DV?$stream_output_adapter@D@__crt_stdio_output@@V?$format_validation_base@DV?$stream_output_adapter@D@__crt_stdio_output@@@2@@__crt_stdio_output@@AEAA_NXZ 00000001801083e0 f i libucrtd:output.obj
 0002:0008b9d0       ?state_case_type@?$output_processor@DV?$stream_output_adapter@D@__crt_stdio_output@@V?$positional_parameter_base@DV?$stream_output_adapter@D@__crt_stdio_output@@@2@@__crt_stdio_output@@AEAA_NXZ 00000001801089d0 f i libucrtd:output.obj
 0002:0008bfc0       ?state_case_type@?$output_processor@DV?$stream_output_adapter@D@__crt_stdio_output@@V?$standard_base@DV?$stream_output_adapter@D@__crt_stdio_output@@@2@@__crt_stdio_output@@AEAA_NXZ 0000000180108fc0 f i libucrtd:output.obj
 0002:0008c5b0       ?state_case_type@?$output_processor@DV?$string_output_adapter@D@__crt_stdio_output@@V?$format_validation_base@DV?$string_output_adapter@D@__crt_stdio_output@@@2@@__crt_stdio_output@@AEAA_NXZ 00000001801095b0 f i libucrtd:output.obj
 0002:0008cba0       ?state_case_type@?$output_processor@DV?$string_output_adapter@D@__crt_stdio_output@@V?$positional_parameter_base@DV?$string_output_adapter@D@__crt_stdio_output@@@2@@__crt_stdio_output@@AEAA_NXZ 0000000180109ba0 f i libucrtd:output.obj
 0002:0008d190       ?state_case_type@?$output_processor@DV?$string_output_adapter@D@__crt_stdio_output@@V?$standard_base@DV?$string_output_adapter@D@__crt_stdio_output@@@2@@__crt_stdio_output@@AEAA_NXZ 000000018010a190 f i libucrtd:output.obj
 0002:0008d780       ?state_case_type@?$output_processor@_WV?$stream_output_adapter@_W@__crt_stdio_output@@V?$format_validation_base@_WV?$stream_output_adapter@_W@__crt_stdio_output@@@2@@__crt_stdio_output@@AEAA_NXZ 000000018010a780 f i libucrtd:output.obj
 0002:0008de70       ?state_case_type@?$output_processor@_WV?$stream_output_adapter@_W@__crt_stdio_output@@V?$positional_parameter_base@_WV?$stream_output_adapter@_W@__crt_stdio_output@@@2@@__crt_stdio_output@@AEAA_NXZ 000000018010ae70 f i libucrtd:output.obj
 0002:0008e560       ?state_case_type@?$output_processor@_WV?$stream_output_adapter@_W@__crt_stdio_output@@V?$standard_base@_WV?$stream_output_adapter@_W@__crt_stdio_output@@@2@@__crt_stdio_output@@AEAA_NXZ 000000018010b560 f i libucrtd:output.obj
 0002:0008ec50       ?state_case_type@?$output_processor@_WV?$string_output_adapter@_W@__crt_stdio_output@@V?$format_validation_base@_WV?$string_output_adapter@_W@__crt_stdio_output@@@2@@__crt_stdio_output@@AEAA_NXZ 000000018010bc50 f i libucrtd:output.obj
 0002:0008f340       ?state_case_type@?$output_processor@_WV?$string_output_adapter@_W@__crt_stdio_output@@V?$positional_parameter_base@_WV?$string_output_adapter@_W@__crt_stdio_output@@@2@@__crt_stdio_output@@AEAA_NXZ 000000018010c340 f i libucrtd:output.obj
 0002:0008fa30       ?state_case_type@?$output_processor@_WV?$string_output_adapter@_W@__crt_stdio_output@@V?$standard_base@_WV?$string_output_adapter@_W@__crt_stdio_output@@@2@@__crt_stdio_output@@AEAA_NXZ 000000018010ca30 f i libucrtd:output.obj
 0002:00090120       ?state_case_width@?$output_processor@DV?$stream_output_adapter@D@__crt_stdio_output@@V?$format_validation_base@DV?$stream_output_adapter@D@__crt_stdio_output@@@2@@__crt_stdio_output@@AEAA_NXZ 000000018010d120 f i libucrtd:output.obj
 0002:000901d0       ?state_case_width@?$output_processor@DV?$stream_output_adapter@D@__crt_stdio_output@@V?$positional_parameter_base@DV?$stream_output_adapter@D@__crt_stdio_output@@@2@@__crt_stdio_output@@AEAA_NXZ 000000018010d1d0 f i libucrtd:output.obj
 0002:00090280       ?state_case_width@?$output_processor@DV?$stream_output_adapter@D@__crt_stdio_output@@V?$standard_base@DV?$stream_output_adapter@D@__crt_stdio_output@@@2@@__crt_stdio_output@@AEAA_NXZ 000000018010d280 f i libucrtd:output.obj
 0002:00090330       ?state_case_width@?$output_processor@DV?$string_output_adapter@D@__crt_stdio_output@@V?$format_validation_base@DV?$string_output_adapter@D@__crt_stdio_output@@@2@@__crt_stdio_output@@AEAA_NXZ 000000018010d330 f i libucrtd:output.obj
 0002:000903e0       ?state_case_width@?$output_processor@DV?$string_output_adapter@D@__crt_stdio_output@@V?$positional_parameter_base@DV?$string_output_adapter@D@__crt_stdio_output@@@2@@__crt_stdio_output@@AEAA_NXZ 000000018010d3e0 f i libucrtd:output.obj
 0002:00090490       ?state_case_width@?$output_processor@DV?$string_output_adapter@D@__crt_stdio_output@@V?$standard_base@DV?$string_output_adapter@D@__crt_stdio_output@@@2@@__crt_stdio_output@@AEAA_NXZ 000000018010d490 f i libucrtd:output.obj
 0002:00090540       ?state_case_width@?$output_processor@_WV?$stream_output_adapter@_W@__crt_stdio_output@@V?$format_validation_base@_WV?$stream_output_adapter@_W@__crt_stdio_output@@@2@@__crt_stdio_output@@AEAA_NXZ 000000018010d540 f i libucrtd:output.obj
 0002:000905f0       ?state_case_width@?$output_processor@_WV?$stream_output_adapter@_W@__crt_stdio_output@@V?$positional_parameter_base@_WV?$stream_output_adapter@_W@__crt_stdio_output@@@2@@__crt_stdio_output@@AEAA_NXZ 000000018010d5f0 f i libucrtd:output.obj
 0002:000906a0       ?state_case_width@?$output_processor@_WV?$stream_output_adapter@_W@__crt_stdio_output@@V?$standard_base@_WV?$stream_output_adapter@_W@__crt_stdio_output@@@2@@__crt_stdio_output@@AEAA_NXZ 000000018010d6a0 f i libucrtd:output.obj
 0002:00090750       ?state_case_width@?$output_processor@_WV?$string_output_adapter@_W@__crt_stdio_output@@V?$format_validation_base@_WV?$string_output_adapter@_W@__crt_stdio_output@@@2@@__crt_stdio_output@@AEAA_NXZ 000000018010d750 f i libucrtd:output.obj
 0002:00090800       ?state_case_width@?$output_processor@_WV?$string_output_adapter@_W@__crt_stdio_output@@V?$positional_parameter_base@_WV?$string_output_adapter@_W@__crt_stdio_output@@@2@@__crt_stdio_output@@AEAA_NXZ 000000018010d800 f i libucrtd:output.obj
 0002:000908b0       ?state_case_width@?$output_processor@_WV?$string_output_adapter@_W@__crt_stdio_output@@V?$standard_base@_WV?$string_output_adapter@_W@__crt_stdio_output@@@2@@__crt_stdio_output@@AEAA_NXZ 000000018010d8b0 f i libucrtd:output.obj
 0002:00090960       ?state_count@?$format_validation_base@DV?$stream_output_adapter@D@__crt_stdio_output@@@__crt_stdio_output@@KAIXZ 000000018010d960 f i libucrtd:output.obj
 0002:00090970       ?state_count@?$format_validation_base@DV?$string_output_adapter@D@__crt_stdio_output@@@__crt_stdio_output@@KAIXZ 000000018010d970 f i libucrtd:output.obj
 0002:00090980       ?state_count@?$format_validation_base@_WV?$stream_output_adapter@_W@__crt_stdio_output@@@__crt_stdio_output@@KAIXZ 000000018010d980 f i libucrtd:output.obj
 0002:00090990       ?state_count@?$format_validation_base@_WV?$string_output_adapter@_W@__crt_stdio_output@@@__crt_stdio_output@@KAIXZ 000000018010d990 f i libucrtd:output.obj
 0002:000909a0       ?state_count@?$standard_base@DV?$stream_output_adapter@D@__crt_stdio_output@@@__crt_stdio_output@@KAIXZ 000000018010d9a0 f i libucrtd:output.obj
 0002:000909b0       ?state_count@?$standard_base@DV?$string_output_adapter@D@__crt_stdio_output@@@__crt_stdio_output@@KAIXZ 000000018010d9b0 f i libucrtd:output.obj
 0002:000909c0       ?state_count@?$standard_base@_WV?$stream_output_adapter@_W@__crt_stdio_output@@@__crt_stdio_output@@KAIXZ 000000018010d9c0 f i libucrtd:output.obj
 0002:000909d0       ?state_count@?$standard_base@_WV?$string_output_adapter@_W@__crt_stdio_output@@@__crt_stdio_output@@KAIXZ 000000018010d9d0 f i libucrtd:output.obj
 0002:000909e0       ?state_transition_table@?$format_validation_base@DV?$stream_output_adapter@D@__crt_stdio_output@@@__crt_stdio_output@@KAAEBV?$spectre_mitigated_lookup_table@Ustate_transition_pair@__crt_stdio_output@@$0IA@@2@XZ 000000018010d9e0 f i libucrtd:output.obj
 0002:000909f0       ?state_transition_table@?$format_validation_base@DV?$string_output_adapter@D@__crt_stdio_output@@@__crt_stdio_output@@KAAEBV?$spectre_mitigated_lookup_table@Ustate_transition_pair@__crt_stdio_output@@$0IA@@2@XZ 000000018010d9f0 f i libucrtd:output.obj
 0002:00090a00       ?state_transition_table@?$format_validation_base@_WV?$stream_output_adapter@_W@__crt_stdio_output@@@__crt_stdio_output@@KAAEBV?$spectre_mitigated_lookup_table@Ustate_transition_pair@__crt_stdio_output@@$0IA@@2@XZ 000000018010da00 f i libucrtd:output.obj
 0002:00090a10       ?state_transition_table@?$format_validation_base@_WV?$string_output_adapter@_W@__crt_stdio_output@@@__crt_stdio_output@@KAAEBV?$spectre_mitigated_lookup_table@Ustate_transition_pair@__crt_stdio_output@@$0IA@@2@XZ 000000018010da10 f i libucrtd:output.obj
 0002:00090a20       ?state_transition_table@?$standard_base@DV?$stream_output_adapter@D@__crt_stdio_output@@@__crt_stdio_output@@KAAEBV?$spectre_mitigated_lookup_table@Ustate_transition_pair@__crt_stdio_output@@$0IA@@2@XZ 000000018010da20 f i libucrtd:output.obj
 0002:00090a30       ?state_transition_table@?$standard_base@DV?$string_output_adapter@D@__crt_stdio_output@@@__crt_stdio_output@@KAAEBV?$spectre_mitigated_lookup_table@Ustate_transition_pair@__crt_stdio_output@@$0IA@@2@XZ 000000018010da30 f i libucrtd:output.obj
 0002:00090a40       ?state_transition_table@?$standard_base@_WV?$stream_output_adapter@_W@__crt_stdio_output@@@__crt_stdio_output@@KAAEBV?$spectre_mitigated_lookup_table@Ustate_transition_pair@__crt_stdio_output@@$0IA@@2@XZ 000000018010da40 f i libucrtd:output.obj
 0002:00090a50       ?state_transition_table@?$standard_base@_WV?$string_output_adapter@_W@__crt_stdio_output@@@__crt_stdio_output@@KAAEBV?$spectre_mitigated_lookup_table@Ustate_transition_pair@__crt_stdio_output@@$0IA@@2@XZ 000000018010da50 f i libucrtd:output.obj
 0002:00090a60       ?tchar_string@?$common_data@D@__crt_stdio_output@@IEAAAEAPEADD@Z 000000018010da60 f i libucrtd:output.obj
 0002:00090a80       ?tchar_string@?$common_data@D@__crt_stdio_output@@IEAAAEAPEADXZ 000000018010da80 f i libucrtd:output.obj
 0002:00090aa0       ?tchar_string@?$common_data@_W@__crt_stdio_output@@IEAAAEAPEA_WXZ 000000018010daa0 f i libucrtd:output.obj
 0002:00090ac0       ?tchar_string@?$common_data@_W@__crt_stdio_output@@IEAAAEAPEA_W_W@Z 000000018010dac0 f i libucrtd:output.obj
 0002:00090ae0       ?to_integer_size@__crt_stdio_output@@YA_KW4length_modifier@1@@Z 000000018010dae0 f i libucrtd:output.obj
 0002:00090bc0       ?type_case_X@?$output_processor@DV?$stream_output_adapter@D@__crt_stdio_output@@V?$format_validation_base@DV?$stream_output_adapter@D@__crt_stdio_output@@@2@@__crt_stdio_output@@AEAA_NXZ 000000018010dbc0 f i libucrtd:output.obj
 0002:00090be0       ?type_case_X@?$output_processor@DV?$stream_output_adapter@D@__crt_stdio_output@@V?$positional_parameter_base@DV?$stream_output_adapter@D@__crt_stdio_output@@@2@@__crt_stdio_output@@AEAA_NXZ 000000018010dbe0 f i libucrtd:output.obj
 0002:00090c00       ?type_case_X@?$output_processor@DV?$stream_output_adapter@D@__crt_stdio_output@@V?$standard_base@DV?$stream_output_adapter@D@__crt_stdio_output@@@2@@__crt_stdio_output@@AEAA_NXZ 000000018010dc00 f i libucrtd:output.obj
 0002:00090c20       ?type_case_X@?$output_processor@DV?$string_output_adapter@D@__crt_stdio_output@@V?$format_validation_base@DV?$string_output_adapter@D@__crt_stdio_output@@@2@@__crt_stdio_output@@AEAA_NXZ 000000018010dc20 f i libucrtd:output.obj
 0002:00090c40       ?type_case_X@?$output_processor@DV?$string_output_adapter@D@__crt_stdio_output@@V?$positional_parameter_base@DV?$string_output_adapter@D@__crt_stdio_output@@@2@@__crt_stdio_output@@AEAA_NXZ 000000018010dc40 f i libucrtd:output.obj
 0002:00090c60       ?type_case_X@?$output_processor@DV?$string_output_adapter@D@__crt_stdio_output@@V?$standard_base@DV?$string_output_adapter@D@__crt_stdio_output@@@2@@__crt_stdio_output@@AEAA_NXZ 000000018010dc60 f i libucrtd:output.obj
 0002:00090c80       ?type_case_X@?$output_processor@_WV?$stream_output_adapter@_W@__crt_stdio_output@@V?$format_validation_base@_WV?$stream_output_adapter@_W@__crt_stdio_output@@@2@@__crt_stdio_output@@AEAA_NXZ 000000018010dc80 f i libucrtd:output.obj
 0002:00090ca0       ?type_case_X@?$output_processor@_WV?$stream_output_adapter@_W@__crt_stdio_output@@V?$positional_parameter_base@_WV?$stream_output_adapter@_W@__crt_stdio_output@@@2@@__crt_stdio_output@@AEAA_NXZ 000000018010dca0 f i libucrtd:output.obj
 0002:00090cc0       ?type_case_X@?$output_processor@_WV?$stream_output_adapter@_W@__crt_stdio_output@@V?$standard_base@_WV?$stream_output_adapter@_W@__crt_stdio_output@@@2@@__crt_stdio_output@@AEAA_NXZ 000000018010dcc0 f i libucrtd:output.obj
 0002:00090ce0       ?type_case_X@?$output_processor@_WV?$string_output_adapter@_W@__crt_stdio_output@@V?$format_validation_base@_WV?$string_output_adapter@_W@__crt_stdio_output@@@2@@__crt_stdio_output@@AEAA_NXZ 000000018010dce0 f i libucrtd:output.obj
 0002:00090d00       ?type_case_X@?$output_processor@_WV?$string_output_adapter@_W@__crt_stdio_output@@V?$positional_parameter_base@_WV?$string_output_adapter@_W@__crt_stdio_output@@@2@@__crt_stdio_output@@AEAA_NXZ 000000018010dd00 f i libucrtd:output.obj
 0002:00090d20       ?type_case_X@?$output_processor@_WV?$string_output_adapter@_W@__crt_stdio_output@@V?$standard_base@_WV?$string_output_adapter@_W@__crt_stdio_output@@@2@@__crt_stdio_output@@AEAA_NXZ 000000018010dd20 f i libucrtd:output.obj
 0002:00090d40       ?type_case_Z@?$output_processor@DV?$stream_output_adapter@D@__crt_stdio_output@@V?$format_validation_base@DV?$stream_output_adapter@D@__crt_stdio_output@@@2@@__crt_stdio_output@@AEAA_NXZ 000000018010dd40 f i libucrtd:output.obj
 0002:00090ea0       ?type_case_Z@?$output_processor@DV?$stream_output_adapter@D@__crt_stdio_output@@V?$positional_parameter_base@DV?$stream_output_adapter@D@__crt_stdio_output@@@2@@__crt_stdio_output@@AEAA_NXZ 000000018010dea0 f i libucrtd:output.obj
 0002:00091000       ?type_case_Z@?$output_processor@DV?$stream_output_adapter@D@__crt_stdio_output@@V?$standard_base@DV?$stream_output_adapter@D@__crt_stdio_output@@@2@@__crt_stdio_output@@AEAA_NXZ 000000018010e000 f i libucrtd:output.obj
 0002:00091160       ?type_case_Z@?$output_processor@DV?$string_output_adapter@D@__crt_stdio_output@@V?$format_validation_base@DV?$string_output_adapter@D@__crt_stdio_output@@@2@@__crt_stdio_output@@AEAA_NXZ 000000018010e160 f i libucrtd:output.obj
 0002:000912c0       ?type_case_Z@?$output_processor@DV?$string_output_adapter@D@__crt_stdio_output@@V?$positional_parameter_base@DV?$string_output_adapter@D@__crt_stdio_output@@@2@@__crt_stdio_output@@AEAA_NXZ 000000018010e2c0 f i libucrtd:output.obj
 0002:00091420       ?type_case_Z@?$output_processor@DV?$string_output_adapter@D@__crt_stdio_output@@V?$standard_base@DV?$string_output_adapter@D@__crt_stdio_output@@@2@@__crt_stdio_output@@AEAA_NXZ 000000018010e420 f i libucrtd:output.obj
 0002:00091580       ?type_case_Z@?$output_processor@_WV?$stream_output_adapter@_W@__crt_stdio_output@@V?$format_validation_base@_WV?$stream_output_adapter@_W@__crt_stdio_output@@@2@@__crt_stdio_output@@AEAA_NXZ 000000018010e580 f i libucrtd:output.obj
 0002:000916e0       ?type_case_Z@?$output_processor@_WV?$stream_output_adapter@_W@__crt_stdio_output@@V?$positional_parameter_base@_WV?$stream_output_adapter@_W@__crt_stdio_output@@@2@@__crt_stdio_output@@AEAA_NXZ 000000018010e6e0 f i libucrtd:output.obj
 0002:00091840       ?type_case_Z@?$output_processor@_WV?$stream_output_adapter@_W@__crt_stdio_output@@V?$standard_base@_WV?$stream_output_adapter@_W@__crt_stdio_output@@@2@@__crt_stdio_output@@AEAA_NXZ 000000018010e840 f i libucrtd:output.obj
 0002:000919a0       ?type_case_Z@?$output_processor@_WV?$string_output_adapter@_W@__crt_stdio_output@@V?$format_validation_base@_WV?$string_output_adapter@_W@__crt_stdio_output@@@2@@__crt_stdio_output@@AEAA_NXZ 000000018010e9a0 f i libucrtd:output.obj
 0002:00091b00       ?type_case_Z@?$output_processor@_WV?$string_output_adapter@_W@__crt_stdio_output@@V?$positional_parameter_base@_WV?$string_output_adapter@_W@__crt_stdio_output@@@2@@__crt_stdio_output@@AEAA_NXZ 000000018010eb00 f i libucrtd:output.obj
 0002:00091c60       ?type_case_Z@?$output_processor@_WV?$string_output_adapter@_W@__crt_stdio_output@@V?$standard_base@_WV?$string_output_adapter@_W@__crt_stdio_output@@@2@@__crt_stdio_output@@AEAA_NXZ 000000018010ec60 f i libucrtd:output.obj
 0002:00091dc0       ?type_case_a@?$output_processor@DV?$stream_output_adapter@D@__crt_stdio_output@@V?$format_validation_base@DV?$stream_output_adapter@D@__crt_stdio_output@@@2@@__crt_stdio_output@@AEAA_NXZ 000000018010edc0 f i libucrtd:output.obj
 0002:00092340       ?type_case_a@?$output_processor@DV?$stream_output_adapter@D@__crt_stdio_output@@V?$positional_parameter_base@DV?$stream_output_adapter@D@__crt_stdio_output@@@2@@__crt_stdio_output@@AEAA_NXZ 000000018010f340 f i libucrtd:output.obj
 0002:000928c0       ?type_case_a@?$output_processor@DV?$stream_output_adapter@D@__crt_stdio_output@@V?$standard_base@DV?$stream_output_adapter@D@__crt_stdio_output@@@2@@__crt_stdio_output@@AEAA_NXZ 000000018010f8c0 f i libucrtd:output.obj
 0002:00092e40       ?type_case_a@?$output_processor@DV?$string_output_adapter@D@__crt_stdio_output@@V?$format_validation_base@DV?$string_output_adapter@D@__crt_stdio_output@@@2@@__crt_stdio_output@@AEAA_NXZ 000000018010fe40 f i libucrtd:output.obj
 0002:000933c0       ?type_case_a@?$output_processor@DV?$string_output_adapter@D@__crt_stdio_output@@V?$positional_parameter_base@DV?$string_output_adapter@D@__crt_stdio_output@@@2@@__crt_stdio_output@@AEAA_NXZ 00000001801103c0 f i libucrtd:output.obj
 0002:00093940       ?type_case_a@?$output_processor@DV?$string_output_adapter@D@__crt_stdio_output@@V?$standard_base@DV?$string_output_adapter@D@__crt_stdio_output@@@2@@__crt_stdio_output@@AEAA_NXZ 0000000180110940 f i libucrtd:output.obj
 0002:00093ec0       ?type_case_a@?$output_processor@_WV?$stream_output_adapter@_W@__crt_stdio_output@@V?$format_validation_base@_WV?$stream_output_adapter@_W@__crt_stdio_output@@@2@@__crt_stdio_output@@AEAA_NXZ 0000000180110ec0 f i libucrtd:output.obj
 0002:00094440       ?type_case_a@?$output_processor@_WV?$stream_output_adapter@_W@__crt_stdio_output@@V?$positional_parameter_base@_WV?$stream_output_adapter@_W@__crt_stdio_output@@@2@@__crt_stdio_output@@AEAA_NXZ 0000000180111440 f i libucrtd:output.obj
 0002:000949c0       ?type_case_a@?$output_processor@_WV?$stream_output_adapter@_W@__crt_stdio_output@@V?$standard_base@_WV?$stream_output_adapter@_W@__crt_stdio_output@@@2@@__crt_stdio_output@@AEAA_NXZ 00000001801119c0 f i libucrtd:output.obj
 0002:00094f40       ?type_case_a@?$output_processor@_WV?$string_output_adapter@_W@__crt_stdio_output@@V?$format_validation_base@_WV?$string_output_adapter@_W@__crt_stdio_output@@@2@@__crt_stdio_output@@AEAA_NXZ 0000000180111f40 f i libucrtd:output.obj
 0002:000954c0       ?type_case_a@?$output_processor@_WV?$string_output_adapter@_W@__crt_stdio_output@@V?$positional_parameter_base@_WV?$string_output_adapter@_W@__crt_stdio_output@@@2@@__crt_stdio_output@@AEAA_NXZ 00000001801124c0 f i libucrtd:output.obj
 0002:00095a40       ?type_case_a@?$output_processor@_WV?$string_output_adapter@_W@__crt_stdio_output@@V?$standard_base@_WV?$string_output_adapter@_W@__crt_stdio_output@@@2@@__crt_stdio_output@@AEAA_NXZ 0000000180112a40 f i libucrtd:output.obj
 0002:00095fc0       ?type_case_c@?$output_processor@DV?$stream_output_adapter@D@__crt_stdio_output@@V?$format_validation_base@DV?$stream_output_adapter@D@__crt_stdio_output@@@2@@__crt_stdio_output@@AEAA_NXZ 0000000180112fc0 f i libucrtd:output.obj
 0002:00095fe0       ?type_case_c@?$output_processor@DV?$stream_output_adapter@D@__crt_stdio_output@@V?$positional_parameter_base@DV?$stream_output_adapter@D@__crt_stdio_output@@@2@@__crt_stdio_output@@AEAA_NXZ 0000000180112fe0 f i libucrtd:output.obj
 0002:00096000       ?type_case_c@?$output_processor@DV?$stream_output_adapter@D@__crt_stdio_output@@V?$standard_base@DV?$stream_output_adapter@D@__crt_stdio_output@@@2@@__crt_stdio_output@@AEAA_NXZ 0000000180113000 f i libucrtd:output.obj
 0002:00096020       ?type_case_c@?$output_processor@DV?$string_output_adapter@D@__crt_stdio_output@@V?$format_validation_base@DV?$string_output_adapter@D@__crt_stdio_output@@@2@@__crt_stdio_output@@AEAA_NXZ 0000000180113020 f i libucrtd:output.obj
 0002:00096040       ?type_case_c@?$output_processor@DV?$string_output_adapter@D@__crt_stdio_output@@V?$positional_parameter_base@DV?$string_output_adapter@D@__crt_stdio_output@@@2@@__crt_stdio_output@@AEAA_NXZ 0000000180113040 f i libucrtd:output.obj
 0002:00096060       ?type_case_c@?$output_processor@DV?$string_output_adapter@D@__crt_stdio_output@@V?$standard_base@DV?$string_output_adapter@D@__crt_stdio_output@@@2@@__crt_stdio_output@@AEAA_NXZ 0000000180113060 f i libucrtd:output.obj
 0002:00096080       ?type_case_c@?$output_processor@_WV?$stream_output_adapter@_W@__crt_stdio_output@@V?$format_validation_base@_WV?$stream_output_adapter@_W@__crt_stdio_output@@@2@@__crt_stdio_output@@AEAA_NXZ 0000000180113080 f i libucrtd:output.obj
 0002:000960a0       ?type_case_c@?$output_processor@_WV?$stream_output_adapter@_W@__crt_stdio_output@@V?$positional_parameter_base@_WV?$stream_output_adapter@_W@__crt_stdio_output@@@2@@__crt_stdio_output@@AEAA_NXZ 00000001801130a0 f i libucrtd:output.obj
 0002:000960c0       ?type_case_c@?$output_processor@_WV?$stream_output_adapter@_W@__crt_stdio_output@@V?$standard_base@_WV?$stream_output_adapter@_W@__crt_stdio_output@@@2@@__crt_stdio_output@@AEAA_NXZ 00000001801130c0 f i libucrtd:output.obj
 0002:000960e0       ?type_case_c@?$output_processor@_WV?$string_output_adapter@_W@__crt_stdio_output@@V?$format_validation_base@_WV?$string_output_adapter@_W@__crt_stdio_output@@@2@@__crt_stdio_output@@AEAA_NXZ 00000001801130e0 f i libucrtd:output.obj
 0002:00096100       ?type_case_c@?$output_processor@_WV?$string_output_adapter@_W@__crt_stdio_output@@V?$positional_parameter_base@_WV?$string_output_adapter@_W@__crt_stdio_output@@@2@@__crt_stdio_output@@AEAA_NXZ 0000000180113100 f i libucrtd:output.obj
 0002:00096120       ?type_case_c@?$output_processor@_WV?$string_output_adapter@_W@__crt_stdio_output@@V?$standard_base@_WV?$string_output_adapter@_W@__crt_stdio_output@@@2@@__crt_stdio_output@@AEAA_NXZ 0000000180113120 f i libucrtd:output.obj
 0002:00096140       ?type_case_c_tchar@?$output_processor@DV?$stream_output_adapter@D@__crt_stdio_output@@V?$format_validation_base@DV?$stream_output_adapter@D@__crt_stdio_output@@@2@@__crt_stdio_output@@AEAA_ND@Z 0000000180113140 f i libucrtd:output.obj
 0002:00096310       ?type_case_c_tchar@?$output_processor@DV?$stream_output_adapter@D@__crt_stdio_output@@V?$positional_parameter_base@DV?$stream_output_adapter@D@__crt_stdio_output@@@2@@__crt_stdio_output@@AEAA_ND@Z 0000000180113310 f i libucrtd:output.obj
 0002:000964e0       ?type_case_c_tchar@?$output_processor@DV?$stream_output_adapter@D@__crt_stdio_output@@V?$standard_base@DV?$stream_output_adapter@D@__crt_stdio_output@@@2@@__crt_stdio_output@@AEAA_ND@Z 00000001801134e0 f i libucrtd:output.obj
 0002:000966b0       ?type_case_c_tchar@?$output_processor@DV?$string_output_adapter@D@__crt_stdio_output@@V?$format_validation_base@DV?$string_output_adapter@D@__crt_stdio_output@@@2@@__crt_stdio_output@@AEAA_ND@Z 00000001801136b0 f i libucrtd:output.obj
 0002:00096880       ?type_case_c_tchar@?$output_processor@DV?$string_output_adapter@D@__crt_stdio_output@@V?$positional_parameter_base@DV?$string_output_adapter@D@__crt_stdio_output@@@2@@__crt_stdio_output@@AEAA_ND@Z 0000000180113880 f i libucrtd:output.obj
 0002:00096a50       ?type_case_c_tchar@?$output_processor@DV?$string_output_adapter@D@__crt_stdio_output@@V?$standard_base@DV?$string_output_adapter@D@__crt_stdio_output@@@2@@__crt_stdio_output@@AEAA_ND@Z 0000000180113a50 f i libucrtd:output.obj
 0002:00096c20       ?type_case_c_tchar@?$output_processor@_WV?$stream_output_adapter@_W@__crt_stdio_output@@V?$format_validation_base@_WV?$stream_output_adapter@_W@__crt_stdio_output@@@2@@__crt_stdio_output@@AEAA_N_W@Z 0000000180113c20 f i libucrtd:output.obj
 0002:00096dd0       ?type_case_c_tchar@?$output_processor@_WV?$stream_output_adapter@_W@__crt_stdio_output@@V?$positional_parameter_base@_WV?$stream_output_adapter@_W@__crt_stdio_output@@@2@@__crt_stdio_output@@AEAA_N_W@Z 0000000180113dd0 f i libucrtd:output.obj
 0002:00096f80       ?type_case_c_tchar@?$output_processor@_WV?$stream_output_adapter@_W@__crt_stdio_output@@V?$standard_base@_WV?$stream_output_adapter@_W@__crt_stdio_output@@@2@@__crt_stdio_output@@AEAA_N_W@Z 0000000180113f80 f i libucrtd:output.obj
 0002:00097130       ?type_case_c_tchar@?$output_processor@_WV?$string_output_adapter@_W@__crt_stdio_output@@V?$format_validation_base@_WV?$string_output_adapter@_W@__crt_stdio_output@@@2@@__crt_stdio_output@@AEAA_N_W@Z 0000000180114130 f i libucrtd:output.obj
 0002:000972e0       ?type_case_c_tchar@?$output_processor@_WV?$string_output_adapter@_W@__crt_stdio_output@@V?$positional_parameter_base@_WV?$string_output_adapter@_W@__crt_stdio_output@@@2@@__crt_stdio_output@@AEAA_N_W@Z 00000001801142e0 f i libucrtd:output.obj
 0002:00097490       ?type_case_c_tchar@?$output_processor@_WV?$string_output_adapter@_W@__crt_stdio_output@@V?$standard_base@_WV?$string_output_adapter@_W@__crt_stdio_output@@@2@@__crt_stdio_output@@AEAA_N_W@Z 0000000180114490 f i libucrtd:output.obj
 0002:00097640       ?type_case_d@?$output_processor@DV?$stream_output_adapter@D@__crt_stdio_output@@V?$format_validation_base@DV?$stream_output_adapter@D@__crt_stdio_output@@@2@@__crt_stdio_output@@AEAA_NXZ 0000000180114640 f i libucrtd:output.obj
 0002:00097680       ?type_case_d@?$output_processor@DV?$stream_output_adapter@D@__crt_stdio_output@@V?$positional_parameter_base@DV?$stream_output_adapter@D@__crt_stdio_output@@@2@@__crt_stdio_output@@AEAA_NXZ 0000000180114680 f i libucrtd:output.obj
 0002:000976c0       ?type_case_d@?$output_processor@DV?$stream_output_adapter@D@__crt_stdio_output@@V?$standard_base@DV?$stream_output_adapter@D@__crt_stdio_output@@@2@@__crt_stdio_output@@AEAA_NXZ 00000001801146c0 f i libucrtd:output.obj
 0002:00097700       ?type_case_d@?$output_processor@DV?$string_output_adapter@D@__crt_stdio_output@@V?$format_validation_base@DV?$string_output_adapter@D@__crt_stdio_output@@@2@@__crt_stdio_output@@AEAA_NXZ 0000000180114700 f i libucrtd:output.obj
 0002:00097740       ?type_case_d@?$output_processor@DV?$string_output_adapter@D@__crt_stdio_output@@V?$positional_parameter_base@DV?$string_output_adapter@D@__crt_stdio_output@@@2@@__crt_stdio_output@@AEAA_NXZ 0000000180114740 f i libucrtd:output.obj
 0002:00097780       ?type_case_d@?$output_processor@DV?$string_output_adapter@D@__crt_stdio_output@@V?$standard_base@DV?$string_output_adapter@D@__crt_stdio_output@@@2@@__crt_stdio_output@@AEAA_NXZ 0000000180114780 f i libucrtd:output.obj
 0002:000977c0       ?type_case_d@?$output_processor@_WV?$stream_output_adapter@_W@__crt_stdio_output@@V?$format_validation_base@_WV?$stream_output_adapter@_W@__crt_stdio_output@@@2@@__crt_stdio_output@@AEAA_NXZ 00000001801147c0 f i libucrtd:output.obj
 0002:00097800       ?type_case_d@?$output_processor@_WV?$stream_output_adapter@_W@__crt_stdio_output@@V?$positional_parameter_base@_WV?$stream_output_adapter@_W@__crt_stdio_output@@@2@@__crt_stdio_output@@AEAA_NXZ 0000000180114800 f i libucrtd:output.obj
 0002:00097840       ?type_case_d@?$output_processor@_WV?$stream_output_adapter@_W@__crt_stdio_output@@V?$standard_base@_WV?$stream_output_adapter@_W@__crt_stdio_output@@@2@@__crt_stdio_output@@AEAA_NXZ 0000000180114840 f i libucrtd:output.obj
 0002:00097880       ?type_case_d@?$output_processor@_WV?$string_output_adapter@_W@__crt_stdio_output@@V?$format_validation_base@_WV?$string_output_adapter@_W@__crt_stdio_output@@@2@@__crt_stdio_output@@AEAA_NXZ 0000000180114880 f i libucrtd:output.obj
 0002:000978c0       ?type_case_d@?$output_processor@_WV?$string_output_adapter@_W@__crt_stdio_output@@V?$positional_parameter_base@_WV?$string_output_adapter@_W@__crt_stdio_output@@@2@@__crt_stdio_output@@AEAA_NXZ 00000001801148c0 f i libucrtd:output.obj
 0002:00097900       ?type_case_d@?$output_processor@_WV?$string_output_adapter@_W@__crt_stdio_output@@V?$standard_base@_WV?$string_output_adapter@_W@__crt_stdio_output@@@2@@__crt_stdio_output@@AEAA_NXZ 0000000180114900 f i libucrtd:output.obj
 0002:00097940       ?type_case_n@?$output_processor@DV?$stream_output_adapter@D@__crt_stdio_output@@V?$format_validation_base@DV?$stream_output_adapter@D@__crt_stdio_output@@@2@@__crt_stdio_output@@AEAA_NXZ 0000000180114940 f i libucrtd:output.obj
 0002:00097c70       ?type_case_n@?$output_processor@DV?$stream_output_adapter@D@__crt_stdio_output@@V?$positional_parameter_base@DV?$stream_output_adapter@D@__crt_stdio_output@@@2@@__crt_stdio_output@@AEAA_NXZ 0000000180114c70 f i libucrtd:output.obj
 0002:00097fa0       ?type_case_n@?$output_processor@DV?$stream_output_adapter@D@__crt_stdio_output@@V?$standard_base@DV?$stream_output_adapter@D@__crt_stdio_output@@@2@@__crt_stdio_output@@AEAA_NXZ 0000000180114fa0 f i libucrtd:output.obj
 0002:000982d0       ?type_case_n@?$output_processor@DV?$string_output_adapter@D@__crt_stdio_output@@V?$format_validation_base@DV?$string_output_adapter@D@__crt_stdio_output@@@2@@__crt_stdio_output@@AEAA_NXZ 00000001801152d0 f i libucrtd:output.obj
 0002:00098600       ?type_case_n@?$output_processor@DV?$string_output_adapter@D@__crt_stdio_output@@V?$positional_parameter_base@DV?$string_output_adapter@D@__crt_stdio_output@@@2@@__crt_stdio_output@@AEAA_NXZ 0000000180115600 f i libucrtd:output.obj
 0002:00098930       ?type_case_n@?$output_processor@DV?$string_output_adapter@D@__crt_stdio_output@@V?$standard_base@DV?$string_output_adapter@D@__crt_stdio_output@@@2@@__crt_stdio_output@@AEAA_NXZ 0000000180115930 f i libucrtd:output.obj
 0002:00098c60       ?type_case_n@?$output_processor@_WV?$stream_output_adapter@_W@__crt_stdio_output@@V?$format_validation_base@_WV?$stream_output_adapter@_W@__crt_stdio_output@@@2@@__crt_stdio_output@@AEAA_NXZ 0000000180115c60 f i libucrtd:output.obj
 0002:00098f90       ?type_case_n@?$output_processor@_WV?$stream_output_adapter@_W@__crt_stdio_output@@V?$positional_parameter_base@_WV?$stream_output_adapter@_W@__crt_stdio_output@@@2@@__crt_stdio_output@@AEAA_NXZ 0000000180115f90 f i libucrtd:output.obj
 0002:000992c0       ?type_case_n@?$output_processor@_WV?$stream_output_adapter@_W@__crt_stdio_output@@V?$standard_base@_WV?$stream_output_adapter@_W@__crt_stdio_output@@@2@@__crt_stdio_output@@AEAA_NXZ 00000001801162c0 f i libucrtd:output.obj
 0002:000995f0       ?type_case_n@?$output_processor@_WV?$string_output_adapter@_W@__crt_stdio_output@@V?$format_validation_base@_WV?$string_output_adapter@_W@__crt_stdio_output@@@2@@__crt_stdio_output@@AEAA_NXZ 00000001801165f0 f i libucrtd:output.obj
 0002:00099920       ?type_case_n@?$output_processor@_WV?$string_output_adapter@_W@__crt_stdio_output@@V?$positional_parameter_base@_WV?$string_output_adapter@_W@__crt_stdio_output@@@2@@__crt_stdio_output@@AEAA_NXZ 0000000180116920 f i libucrtd:output.obj
 0002:00099c50       ?type_case_n@?$output_processor@_WV?$string_output_adapter@_W@__crt_stdio_output@@V?$standard_base@_WV?$string_output_adapter@_W@__crt_stdio_output@@@2@@__crt_stdio_output@@AEAA_NXZ 0000000180116c50 f i libucrtd:output.obj
 0002:00099f80       ?type_case_o@?$output_processor@DV?$stream_output_adapter@D@__crt_stdio_output@@V?$format_validation_base@DV?$stream_output_adapter@D@__crt_stdio_output@@@2@@__crt_stdio_output@@AEAA_NXZ 0000000180116f80 f i libucrtd:output.obj
 0002:00099fd0       ?type_case_o@?$output_processor@DV?$stream_output_adapter@D@__crt_stdio_output@@V?$positional_parameter_base@DV?$stream_output_adapter@D@__crt_stdio_output@@@2@@__crt_stdio_output@@AEAA_NXZ 0000000180116fd0 f i libucrtd:output.obj
 0002:0009a020       ?type_case_o@?$output_processor@DV?$stream_output_adapter@D@__crt_stdio_output@@V?$standard_base@DV?$stream_output_adapter@D@__crt_stdio_output@@@2@@__crt_stdio_output@@AEAA_NXZ 0000000180117020 f i libucrtd:output.obj
 0002:0009a070       ?type_case_o@?$output_processor@DV?$string_output_adapter@D@__crt_stdio_output@@V?$format_validation_base@DV?$string_output_adapter@D@__crt_stdio_output@@@2@@__crt_stdio_output@@AEAA_NXZ 0000000180117070 f i libucrtd:output.obj
 0002:0009a0c0       ?type_case_o@?$output_processor@DV?$string_output_adapter@D@__crt_stdio_output@@V?$positional_parameter_base@DV?$string_output_adapter@D@__crt_stdio_output@@@2@@__crt_stdio_output@@AEAA_NXZ 00000001801170c0 f i libucrtd:output.obj
 0002:0009a110       ?type_case_o@?$output_processor@DV?$string_output_adapter@D@__crt_stdio_output@@V?$standard_base@DV?$string_output_adapter@D@__crt_stdio_output@@@2@@__crt_stdio_output@@AEAA_NXZ 0000000180117110 f i libucrtd:output.obj
 0002:0009a160       ?type_case_o@?$output_processor@_WV?$stream_output_adapter@_W@__crt_stdio_output@@V?$format_validation_base@_WV?$stream_output_adapter@_W@__crt_stdio_output@@@2@@__crt_stdio_output@@AEAA_NXZ 0000000180117160 f i libucrtd:output.obj
 0002:0009a1b0       ?type_case_o@?$output_processor@_WV?$stream_output_adapter@_W@__crt_stdio_output@@V?$positional_parameter_base@_WV?$stream_output_adapter@_W@__crt_stdio_output@@@2@@__crt_stdio_output@@AEAA_NXZ 00000001801171b0 f i libucrtd:output.obj
 0002:0009a200       ?type_case_o@?$output_processor@_WV?$stream_output_adapter@_W@__crt_stdio_output@@V?$standard_base@_WV?$stream_output_adapter@_W@__crt_stdio_output@@@2@@__crt_stdio_output@@AEAA_NXZ 0000000180117200 f i libucrtd:output.obj
 0002:0009a250       ?type_case_o@?$output_processor@_WV?$string_output_adapter@_W@__crt_stdio_output@@V?$format_validation_base@_WV?$string_output_adapter@_W@__crt_stdio_output@@@2@@__crt_stdio_output@@AEAA_NXZ 0000000180117250 f i libucrtd:output.obj
 0002:0009a2a0       ?type_case_o@?$output_processor@_WV?$string_output_adapter@_W@__crt_stdio_output@@V?$positional_parameter_base@_WV?$string_output_adapter@_W@__crt_stdio_output@@@2@@__crt_stdio_output@@AEAA_NXZ 00000001801172a0 f i libucrtd:output.obj
 0002:0009a2f0       ?type_case_o@?$output_processor@_WV?$string_output_adapter@_W@__crt_stdio_output@@V?$standard_base@_WV?$string_output_adapter@_W@__crt_stdio_output@@@2@@__crt_stdio_output@@AEAA_NXZ 00000001801172f0 f i libucrtd:output.obj
 0002:0009a340       ?type_case_p@?$output_processor@DV?$stream_output_adapter@D@__crt_stdio_output@@V?$format_validation_base@DV?$stream_output_adapter@D@__crt_stdio_output@@@2@@__crt_stdio_output@@AEAA_NXZ 0000000180117340 f i libucrtd:output.obj
 0002:0009a380       ?type_case_p@?$output_processor@DV?$stream_output_adapter@D@__crt_stdio_output@@V?$positional_parameter_base@DV?$stream_output_adapter@D@__crt_stdio_output@@@2@@__crt_stdio_output@@AEAA_NXZ 0000000180117380 f i libucrtd:output.obj
 0002:0009a3c0       ?type_case_p@?$output_processor@DV?$stream_output_adapter@D@__crt_stdio_output@@V?$standard_base@DV?$stream_output_adapter@D@__crt_stdio_output@@@2@@__crt_stdio_output@@AEAA_NXZ 00000001801173c0 f i libucrtd:output.obj
 0002:0009a400       ?type_case_p@?$output_processor@DV?$string_output_adapter@D@__crt_stdio_output@@V?$format_validation_base@DV?$string_output_adapter@D@__crt_stdio_output@@@2@@__crt_stdio_output@@AEAA_NXZ 0000000180117400 f i libucrtd:output.obj
 0002:0009a440       ?type_case_p@?$output_processor@DV?$string_output_adapter@D@__crt_stdio_output@@V?$positional_parameter_base@DV?$string_output_adapter@D@__crt_stdio_output@@@2@@__crt_stdio_output@@AEAA_NXZ 0000000180117440 f i libucrtd:output.obj
 0002:0009a480       ?type_case_p@?$output_processor@DV?$string_output_adapter@D@__crt_stdio_output@@V?$standard_base@DV?$string_output_adapter@D@__crt_stdio_output@@@2@@__crt_stdio_output@@AEAA_NXZ 0000000180117480 f i libucrtd:output.obj
 0002:0009a4c0       ?type_case_p@?$output_processor@_WV?$stream_output_adapter@_W@__crt_stdio_output@@V?$format_validation_base@_WV?$stream_output_adapter@_W@__crt_stdio_output@@@2@@__crt_stdio_output@@AEAA_NXZ 00000001801174c0 f i libucrtd:output.obj
 0002:0009a500       ?type_case_p@?$output_processor@_WV?$stream_output_adapter@_W@__crt_stdio_output@@V?$positional_parameter_base@_WV?$stream_output_adapter@_W@__crt_stdio_output@@@2@@__crt_stdio_output@@AEAA_NXZ 0000000180117500 f i libucrtd:output.obj
 0002:0009a540       ?type_case_p@?$output_processor@_WV?$stream_output_adapter@_W@__crt_stdio_output@@V?$standard_base@_WV?$stream_output_adapter@_W@__crt_stdio_output@@@2@@__crt_stdio_output@@AEAA_NXZ 0000000180117540 f i libucrtd:output.obj
 0002:0009a580       ?type_case_p@?$output_processor@_WV?$string_output_adapter@_W@__crt_stdio_output@@V?$format_validation_base@_WV?$string_output_adapter@_W@__crt_stdio_output@@@2@@__crt_stdio_output@@AEAA_NXZ 0000000180117580 f i libucrtd:output.obj
 0002:0009a5c0       ?type_case_p@?$output_processor@_WV?$string_output_adapter@_W@__crt_stdio_output@@V?$positional_parameter_base@_WV?$string_output_adapter@_W@__crt_stdio_output@@@2@@__crt_stdio_output@@AEAA_NXZ 00000001801175c0 f i libucrtd:output.obj
 0002:0009a600       ?type_case_p@?$output_processor@_WV?$string_output_adapter@_W@__crt_stdio_output@@V?$standard_base@_WV?$string_output_adapter@_W@__crt_stdio_output@@@2@@__crt_stdio_output@@AEAA_NXZ 0000000180117600 f i libucrtd:output.obj
 0002:0009a640       ?type_case_s@?$output_processor@DV?$stream_output_adapter@D@__crt_stdio_output@@V?$format_validation_base@DV?$stream_output_adapter@D@__crt_stdio_output@@@2@@__crt_stdio_output@@AEAA_NXZ 0000000180117640 f i libucrtd:output.obj
 0002:0009a7a0       ?type_case_s@?$output_processor@DV?$stream_output_adapter@D@__crt_stdio_output@@V?$positional_parameter_base@DV?$stream_output_adapter@D@__crt_stdio_output@@@2@@__crt_stdio_output@@AEAA_NXZ 00000001801177a0 f i libucrtd:output.obj
 0002:0009a900       ?type_case_s@?$output_processor@DV?$stream_output_adapter@D@__crt_stdio_output@@V?$standard_base@DV?$stream_output_adapter@D@__crt_stdio_output@@@2@@__crt_stdio_output@@AEAA_NXZ 0000000180117900 f i libucrtd:output.obj
 0002:0009aa60       ?type_case_s@?$output_processor@DV?$string_output_adapter@D@__crt_stdio_output@@V?$format_validation_base@DV?$string_output_adapter@D@__crt_stdio_output@@@2@@__crt_stdio_output@@AEAA_NXZ 0000000180117a60 f i libucrtd:output.obj
 0002:0009abc0       ?type_case_s@?$output_processor@DV?$string_output_adapter@D@__crt_stdio_output@@V?$positional_parameter_base@DV?$string_output_adapter@D@__crt_stdio_output@@@2@@__crt_stdio_output@@AEAA_NXZ 0000000180117bc0 f i libucrtd:output.obj
 0002:0009ad20       ?type_case_s@?$output_processor@DV?$string_output_adapter@D@__crt_stdio_output@@V?$standard_base@DV?$string_output_adapter@D@__crt_stdio_output@@@2@@__crt_stdio_output@@AEAA_NXZ 0000000180117d20 f i libucrtd:output.obj
 0002:0009ae80       ?type_case_s@?$output_processor@_WV?$stream_output_adapter@_W@__crt_stdio_output@@V?$format_validation_base@_WV?$stream_output_adapter@_W@__crt_stdio_output@@@2@@__crt_stdio_output@@AEAA_NXZ 0000000180117e80 f i libucrtd:output.obj
 0002:0009afe0       ?type_case_s@?$output_processor@_WV?$stream_output_adapter@_W@__crt_stdio_output@@V?$positional_parameter_base@_WV?$stream_output_adapter@_W@__crt_stdio_output@@@2@@__crt_stdio_output@@AEAA_NXZ 0000000180117fe0 f i libucrtd:output.obj
 0002:0009b140       ?type_case_s@?$output_processor@_WV?$stream_output_adapter@_W@__crt_stdio_output@@V?$standard_base@_WV?$stream_output_adapter@_W@__crt_stdio_output@@@2@@__crt_stdio_output@@AEAA_NXZ 0000000180118140 f i libucrtd:output.obj
 0002:0009b2a0       ?type_case_s@?$output_processor@_WV?$string_output_adapter@_W@__crt_stdio_output@@V?$format_validation_base@_WV?$string_output_adapter@_W@__crt_stdio_output@@@2@@__crt_stdio_output@@AEAA_NXZ 00000001801182a0 f i libucrtd:output.obj
 0002:0009b400       ?type_case_s@?$output_processor@_WV?$string_output_adapter@_W@__crt_stdio_output@@V?$positional_parameter_base@_WV?$string_output_adapter@_W@__crt_stdio_output@@@2@@__crt_stdio_output@@AEAA_NXZ 0000000180118400 f i libucrtd:output.obj
 0002:0009b560       ?type_case_s@?$output_processor@_WV?$string_output_adapter@_W@__crt_stdio_output@@V?$standard_base@_WV?$string_output_adapter@_W@__crt_stdio_output@@@2@@__crt_stdio_output@@AEAA_NXZ 0000000180118560 f i libucrtd:output.obj
 0002:0009b6c0       ?type_case_s_compute_narrow_string_length@?$output_processor@DV?$stream_output_adapter@D@__crt_stdio_output@@V?$format_validation_base@DV?$stream_output_adapter@D@__crt_stdio_output@@@2@@__crt_stdio_output@@AEAAHHD@Z 00000001801186c0 f i libucrtd:output.obj
 0002:0009b700       ?type_case_s_compute_narrow_string_length@?$output_processor@DV?$stream_output_adapter@D@__crt_stdio_output@@V?$positional_parameter_base@DV?$stream_output_adapter@D@__crt_stdio_output@@@2@@__crt_stdio_output@@AEAAHHD@Z 0000000180118700 f i libucrtd:output.obj
 0002:0009b740       ?type_case_s_compute_narrow_string_length@?$output_processor@DV?$stream_output_adapter@D@__crt_stdio_output@@V?$standard_base@DV?$stream_output_adapter@D@__crt_stdio_output@@@2@@__crt_stdio_output@@AEAAHHD@Z 0000000180118740 f i libucrtd:output.obj
 0002:0009b780       ?type_case_s_compute_narrow_string_length@?$output_processor@DV?$string_output_adapter@D@__crt_stdio_output@@V?$format_validation_base@DV?$string_output_adapter@D@__crt_stdio_output@@@2@@__crt_stdio_output@@AEAAHHD@Z 0000000180118780 f i libucrtd:output.obj
 0002:0009b7c0       ?type_case_s_compute_narrow_string_length@?$output_processor@DV?$string_output_adapter@D@__crt_stdio_output@@V?$positional_parameter_base@DV?$string_output_adapter@D@__crt_stdio_output@@@2@@__crt_stdio_output@@AEAAHHD@Z 00000001801187c0 f i libucrtd:output.obj
 0002:0009b800       ?type_case_s_compute_narrow_string_length@?$output_processor@DV?$string_output_adapter@D@__crt_stdio_output@@V?$standard_base@DV?$string_output_adapter@D@__crt_stdio_output@@@2@@__crt_stdio_output@@AEAAHHD@Z 0000000180118800 f i libucrtd:output.obj
 0002:0009b840       ?type_case_s_compute_narrow_string_length@?$output_processor@_WV?$stream_output_adapter@_W@__crt_stdio_output@@V?$format_validation_base@_WV?$stream_output_adapter@_W@__crt_stdio_output@@@2@@__crt_stdio_output@@AEAAHH_W@Z 0000000180118840 f i libucrtd:output.obj
 0002:0009b910       ?type_case_s_compute_narrow_string_length@?$output_processor@_WV?$stream_output_adapter@_W@__crt_stdio_output@@V?$positional_parameter_base@_WV?$stream_output_adapter@_W@__crt_stdio_output@@@2@@__crt_stdio_output@@AEAAHH_W@Z 0000000180118910 f i libucrtd:output.obj
 0002:0009b9e0       ?type_case_s_compute_narrow_string_length@?$output_processor@_WV?$stream_output_adapter@_W@__crt_stdio_output@@V?$standard_base@_WV?$stream_output_adapter@_W@__crt_stdio_output@@@2@@__crt_stdio_output@@AEAAHH_W@Z 00000001801189e0 f i libucrtd:output.obj
 0002:0009bab0       ?type_case_s_compute_narrow_string_length@?$output_processor@_WV?$string_output_adapter@_W@__crt_stdio_output@@V?$format_validation_base@_WV?$string_output_adapter@_W@__crt_stdio_output@@@2@@__crt_stdio_output@@AEAAHH_W@Z 0000000180118ab0 f i libucrtd:output.obj
 0002:0009bb80       ?type_case_s_compute_narrow_string_length@?$output_processor@_WV?$string_output_adapter@_W@__crt_stdio_output@@V?$positional_parameter_base@_WV?$string_output_adapter@_W@__crt_stdio_output@@@2@@__crt_stdio_output@@AEAAHH_W@Z 0000000180118b80 f i libucrtd:output.obj
 0002:0009bc50       ?type_case_s_compute_narrow_string_length@?$output_processor@_WV?$string_output_adapter@_W@__crt_stdio_output@@V?$standard_base@_WV?$string_output_adapter@_W@__crt_stdio_output@@@2@@__crt_stdio_output@@AEAAHH_W@Z 0000000180118c50 f i libucrtd:output.obj
 0002:0009bd20       ?type_case_u@?$output_processor@DV?$stream_output_adapter@D@__crt_stdio_output@@V?$format_validation_base@DV?$stream_output_adapter@D@__crt_stdio_output@@@2@@__crt_stdio_output@@AEAA_NXZ 0000000180118d20 f i libucrtd:output.obj
 0002:0009bd40       ?type_case_u@?$output_processor@DV?$stream_output_adapter@D@__crt_stdio_output@@V?$positional_parameter_base@DV?$stream_output_adapter@D@__crt_stdio_output@@@2@@__crt_stdio_output@@AEAA_NXZ 0000000180118d40 f i libucrtd:output.obj
 0002:0009bd60       ?type_case_u@?$output_processor@DV?$stream_output_adapter@D@__crt_stdio_output@@V?$standard_base@DV?$stream_output_adapter@D@__crt_stdio_output@@@2@@__crt_stdio_output@@AEAA_NXZ 0000000180118d60 f i libucrtd:output.obj
 0002:0009bd80       ?type_case_u@?$output_processor@DV?$string_output_adapter@D@__crt_stdio_output@@V?$format_validation_base@DV?$string_output_adapter@D@__crt_stdio_output@@@2@@__crt_stdio_output@@AEAA_NXZ 0000000180118d80 f i libucrtd:output.obj
 0002:0009bda0       ?type_case_u@?$output_processor@DV?$string_output_adapter@D@__crt_stdio_output@@V?$positional_parameter_base@DV?$string_output_adapter@D@__crt_stdio_output@@@2@@__crt_stdio_output@@AEAA_NXZ 0000000180118da0 f i libucrtd:output.obj
 0002:0009bdc0       ?type_case_u@?$output_processor@DV?$string_output_adapter@D@__crt_stdio_output@@V?$standard_base@DV?$string_output_adapter@D@__crt_stdio_output@@@2@@__crt_stdio_output@@AEAA_NXZ 0000000180118dc0 f i libucrtd:output.obj
 0002:0009bde0       ?type_case_u@?$output_processor@_WV?$stream_output_adapter@_W@__crt_stdio_output@@V?$format_validation_base@_WV?$stream_output_adapter@_W@__crt_stdio_output@@@2@@__crt_stdio_output@@AEAA_NXZ 0000000180118de0 f i libucrtd:output.obj
 0002:0009be00       ?type_case_u@?$output_processor@_WV?$stream_output_adapter@_W@__crt_stdio_output@@V?$positional_parameter_base@_WV?$stream_output_adapter@_W@__crt_stdio_output@@@2@@__crt_stdio_output@@AEAA_NXZ 0000000180118e00 f i libucrtd:output.obj
 0002:0009be20       ?type_case_u@?$output_processor@_WV?$stream_output_adapter@_W@__crt_stdio_output@@V?$standard_base@_WV?$stream_output_adapter@_W@__crt_stdio_output@@@2@@__crt_stdio_output@@AEAA_NXZ 0000000180118e20 f i libucrtd:output.obj
 0002:0009be40       ?type_case_u@?$output_processor@_WV?$string_output_adapter@_W@__crt_stdio_output@@V?$format_validation_base@_WV?$string_output_adapter@_W@__crt_stdio_output@@@2@@__crt_stdio_output@@AEAA_NXZ 0000000180118e40 f i libucrtd:output.obj
 0002:0009be60       ?type_case_u@?$output_processor@_WV?$string_output_adapter@_W@__crt_stdio_output@@V?$positional_parameter_base@_WV?$string_output_adapter@_W@__crt_stdio_output@@@2@@__crt_stdio_output@@AEAA_NXZ 0000000180118e60 f i libucrtd:output.obj
 0002:0009be80       ?type_case_u@?$output_processor@_WV?$string_output_adapter@_W@__crt_stdio_output@@V?$standard_base@_WV?$string_output_adapter@_W@__crt_stdio_output@@@2@@__crt_stdio_output@@AEAA_NXZ 0000000180118e80 f i libucrtd:output.obj
 0002:0009bea0       ?type_case_x@?$output_processor@DV?$stream_output_adapter@D@__crt_stdio_output@@V?$format_validation_base@DV?$stream_output_adapter@D@__crt_stdio_output@@@2@@__crt_stdio_output@@AEAA_NXZ 0000000180118ea0 f i libucrtd:output.obj
 0002:0009bec0       ?type_case_x@?$output_processor@DV?$stream_output_adapter@D@__crt_stdio_output@@V?$positional_parameter_base@DV?$stream_output_adapter@D@__crt_stdio_output@@@2@@__crt_stdio_output@@AEAA_NXZ 0000000180118ec0 f i libucrtd:output.obj
 0002:0009bee0       ?type_case_x@?$output_processor@DV?$stream_output_adapter@D@__crt_stdio_output@@V?$standard_base@DV?$stream_output_adapter@D@__crt_stdio_output@@@2@@__crt_stdio_output@@AEAA_NXZ 0000000180118ee0 f i libucrtd:output.obj
 0002:0009bf00       ?type_case_x@?$output_processor@DV?$string_output_adapter@D@__crt_stdio_output@@V?$format_validation_base@DV?$string_output_adapter@D@__crt_stdio_output@@@2@@__crt_stdio_output@@AEAA_NXZ 0000000180118f00 f i libucrtd:output.obj
 0002:0009bf20       ?type_case_x@?$output_processor@DV?$string_output_adapter@D@__crt_stdio_output@@V?$positional_parameter_base@DV?$string_output_adapter@D@__crt_stdio_output@@@2@@__crt_stdio_output@@AEAA_NXZ 0000000180118f20 f i libucrtd:output.obj
 0002:0009bf40       ?type_case_x@?$output_processor@DV?$string_output_adapter@D@__crt_stdio_output@@V?$standard_base@DV?$string_output_adapter@D@__crt_stdio_output@@@2@@__crt_stdio_output@@AEAA_NXZ 0000000180118f40 f i libucrtd:output.obj
 0002:0009bf60       ?type_case_x@?$output_processor@_WV?$stream_output_adapter@_W@__crt_stdio_output@@V?$format_validation_base@_WV?$stream_output_adapter@_W@__crt_stdio_output@@@2@@__crt_stdio_output@@AEAA_NXZ 0000000180118f60 f i libucrtd:output.obj
 0002:0009bf80       ?type_case_x@?$output_processor@_WV?$stream_output_adapter@_W@__crt_stdio_output@@V?$positional_parameter_base@_WV?$stream_output_adapter@_W@__crt_stdio_output@@@2@@__crt_stdio_output@@AEAA_NXZ 0000000180118f80 f i libucrtd:output.obj
 0002:0009bfa0       ?type_case_x@?$output_processor@_WV?$stream_output_adapter@_W@__crt_stdio_output@@V?$standard_base@_WV?$stream_output_adapter@_W@__crt_stdio_output@@@2@@__crt_stdio_output@@AEAA_NXZ 0000000180118fa0 f i libucrtd:output.obj
 0002:0009bfc0       ?type_case_x@?$output_processor@_WV?$string_output_adapter@_W@__crt_stdio_output@@V?$format_validation_base@_WV?$string_output_adapter@_W@__crt_stdio_output@@@2@@__crt_stdio_output@@AEAA_NXZ 0000000180118fc0 f i libucrtd:output.obj
 0002:0009bfe0       ?type_case_x@?$output_processor@_WV?$string_output_adapter@_W@__crt_stdio_output@@V?$positional_parameter_base@_WV?$string_output_adapter@_W@__crt_stdio_output@@@2@@__crt_stdio_output@@AEAA_NXZ 0000000180118fe0 f i libucrtd:output.obj
 0002:0009c000       ?type_case_x@?$output_processor@_WV?$string_output_adapter@_W@__crt_stdio_output@@V?$standard_base@_WV?$string_output_adapter@_W@__crt_stdio_output@@@2@@__crt_stdio_output@@AEAA_NXZ 0000000180119000 f i libucrtd:output.obj
 0002:0009c020       ?unget@?$c_string_character_source@D@__crt_strtox@@QEAAXD@Z 0000000180119020 f i libucrtd:output.obj
 0002:0009c130       ?unget@?$c_string_character_source@_W@__crt_strtox@@QEAAX_W@Z 0000000180119130 f i libucrtd:output.obj
 0002:0009c240       ?unset_flag@?$output_processor@DV?$stream_output_adapter@D@__crt_stdio_output@@V?$format_validation_base@DV?$stream_output_adapter@D@__crt_stdio_output@@@2@@__crt_stdio_output@@AEAAXI@Z 0000000180119240 f i libucrtd:output.obj
 0002:0009c270       ?unset_flag@?$output_processor@DV?$stream_output_adapter@D@__crt_stdio_output@@V?$positional_parameter_base@DV?$stream_output_adapter@D@__crt_stdio_output@@@2@@__crt_stdio_output@@AEAAXI@Z 0000000180119270 f i libucrtd:output.obj
 0002:0009c2a0       ?unset_flag@?$output_processor@DV?$stream_output_adapter@D@__crt_stdio_output@@V?$standard_base@DV?$stream_output_adapter@D@__crt_stdio_output@@@2@@__crt_stdio_output@@AEAAXI@Z 00000001801192a0 f i libucrtd:output.obj
 0002:0009c2d0       ?unset_flag@?$output_processor@DV?$string_output_adapter@D@__crt_stdio_output@@V?$format_validation_base@DV?$string_output_adapter@D@__crt_stdio_output@@@2@@__crt_stdio_output@@AEAAXI@Z 00000001801192d0 f i libucrtd:output.obj
 0002:0009c300       ?unset_flag@?$output_processor@DV?$string_output_adapter@D@__crt_stdio_output@@V?$positional_parameter_base@DV?$string_output_adapter@D@__crt_stdio_output@@@2@@__crt_stdio_output@@AEAAXI@Z 0000000180119300 f i libucrtd:output.obj
 0002:0009c330       ?unset_flag@?$output_processor@DV?$string_output_adapter@D@__crt_stdio_output@@V?$standard_base@DV?$string_output_adapter@D@__crt_stdio_output@@@2@@__crt_stdio_output@@AEAAXI@Z 0000000180119330 f i libucrtd:output.obj
 0002:0009c360       ?unset_flag@?$output_processor@_WV?$stream_output_adapter@_W@__crt_stdio_output@@V?$format_validation_base@_WV?$stream_output_adapter@_W@__crt_stdio_output@@@2@@__crt_stdio_output@@AEAAXI@Z 0000000180119360 f i libucrtd:output.obj
 0002:0009c390       ?unset_flag@?$output_processor@_WV?$stream_output_adapter@_W@__crt_stdio_output@@V?$positional_parameter_base@_WV?$stream_output_adapter@_W@__crt_stdio_output@@@2@@__crt_stdio_output@@AEAAXI@Z 0000000180119390 f i libucrtd:output.obj
 0002:0009c3c0       ?unset_flag@?$output_processor@_WV?$stream_output_adapter@_W@__crt_stdio_output@@V?$standard_base@_WV?$stream_output_adapter@_W@__crt_stdio_output@@@2@@__crt_stdio_output@@AEAAXI@Z 00000001801193c0 f i libucrtd:output.obj
 0002:0009c3f0       ?unset_flag@?$output_processor@_WV?$string_output_adapter@_W@__crt_stdio_output@@V?$format_validation_base@_WV?$string_output_adapter@_W@__crt_stdio_output@@@2@@__crt_stdio_output@@AEAAXI@Z 00000001801193f0 f i libucrtd:output.obj
 0002:0009c420       ?unset_flag@?$output_processor@_WV?$string_output_adapter@_W@__crt_stdio_output@@V?$positional_parameter_base@_WV?$string_output_adapter@_W@__crt_stdio_output@@@2@@__crt_stdio_output@@AEAAXI@Z 0000000180119420 f i libucrtd:output.obj
 0002:0009c450       ?unset_flag@?$output_processor@_WV?$string_output_adapter@_W@__crt_stdio_output@@V?$standard_base@_WV?$string_output_adapter@_W@__crt_stdio_output@@@2@@__crt_stdio_output@@AEAAXI@Z 0000000180119450 f i libucrtd:output.obj
 0002:0009c480       ?update_field_width@?$positional_parameter_base@DV?$stream_output_adapter@D@__crt_stdio_output@@@__crt_stdio_output@@IEAA_NXZ 0000000180119480 f i libucrtd:output.obj
 0002:0009c700       ?update_field_width@?$positional_parameter_base@DV?$string_output_adapter@D@__crt_stdio_output@@@__crt_stdio_output@@IEAA_NXZ 0000000180119700 f i libucrtd:output.obj
 0002:0009c980       ?update_field_width@?$positional_parameter_base@_WV?$stream_output_adapter@_W@__crt_stdio_output@@@__crt_stdio_output@@IEAA_NXZ 0000000180119980 f i libucrtd:output.obj
 0002:0009cc00       ?update_field_width@?$positional_parameter_base@_WV?$string_output_adapter@_W@__crt_stdio_output@@@__crt_stdio_output@@IEAA_NXZ 0000000180119c00 f i libucrtd:output.obj
 0002:0009ce80       ?update_field_width@?$standard_base@DV?$stream_output_adapter@D@__crt_stdio_output@@@__crt_stdio_output@@IEAA_NXZ 0000000180119e80 f i libucrtd:output.obj
 0002:0009cec0       ?update_field_width@?$standard_base@DV?$string_output_adapter@D@__crt_stdio_output@@@__crt_stdio_output@@IEAA_NXZ 0000000180119ec0 f i libucrtd:output.obj
 0002:0009cf00       ?update_field_width@?$standard_base@_WV?$stream_output_adapter@_W@__crt_stdio_output@@@__crt_stdio_output@@IEAA_NXZ 0000000180119f00 f i libucrtd:output.obj
 0002:0009cf40       ?update_field_width@?$standard_base@_WV?$string_output_adapter@_W@__crt_stdio_output@@@__crt_stdio_output@@IEAA_NXZ 0000000180119f40 f i libucrtd:output.obj
 0002:0009cf80       ?update_locale@__crt_cached_ptd_host@@AEAAXXZ 0000000180119f80 f i libucrtd:output.obj
 0002:0009cfb0       ?update_locale_slow@__crt_cached_ptd_host@@AEAAXXZ 0000000180119fb0 f i libucrtd:output.obj
 0002:0009d090       ?update_precision@?$positional_parameter_base@DV?$stream_output_adapter@D@__crt_stdio_output@@@__crt_stdio_output@@IEAA_NXZ 000000018011a090 f i libucrtd:output.obj
 0002:0009d310       ?update_precision@?$positional_parameter_base@DV?$string_output_adapter@D@__crt_stdio_output@@@__crt_stdio_output@@IEAA_NXZ 000000018011a310 f i libucrtd:output.obj
 0002:0009d590       ?update_precision@?$positional_parameter_base@_WV?$stream_output_adapter@_W@__crt_stdio_output@@@__crt_stdio_output@@IEAA_NXZ 000000018011a590 f i libucrtd:output.obj
 0002:0009d810       ?update_precision@?$positional_parameter_base@_WV?$string_output_adapter@_W@__crt_stdio_output@@@__crt_stdio_output@@IEAA_NXZ 000000018011a810 f i libucrtd:output.obj
 0002:0009da90       ?update_precision@?$standard_base@DV?$stream_output_adapter@D@__crt_stdio_output@@@__crt_stdio_output@@IEAA_NXZ 000000018011aa90 f i libucrtd:output.obj
 0002:0009dad0       ?update_precision@?$standard_base@DV?$string_output_adapter@D@__crt_stdio_output@@@__crt_stdio_output@@IEAA_NXZ 000000018011aad0 f i libucrtd:output.obj
 0002:0009db10       ?update_precision@?$standard_base@_WV?$stream_output_adapter@_W@__crt_stdio_output@@@__crt_stdio_output@@IEAA_NXZ 000000018011ab10 f i libucrtd:output.obj
 0002:0009db50       ?update_precision@?$standard_base@_WV?$string_output_adapter@_W@__crt_stdio_output@@@__crt_stdio_output@@IEAA_NXZ 000000018011ab50 f i libucrtd:output.obj
 0002:0009db90       ?validate@?$c_string_character_source@D@__crt_strtox@@QEBA_NXZ 000000018011ab90 f i libucrtd:output.obj
 0002:0009dc80       ?validate@?$c_string_character_source@_W@__crt_strtox@@QEBA_NXZ 000000018011ac80 f i libucrtd:output.obj
 0002:0009dd70       ?validate@?$stream_output_adapter@D@__crt_stdio_output@@QEBA_NAEAV__crt_cached_ptd_host@@@Z 000000018011ad70 f i libucrtd:output.obj
 0002:0009dea0       ?validate@?$stream_output_adapter@_W@__crt_stdio_output@@QEBA_NAEAV__crt_cached_ptd_host@@@Z 000000018011aea0 f i libucrtd:output.obj
 0002:0009dfd0       ?validate@?$string_output_adapter@D@__crt_stdio_output@@QEBA_NAEAV__crt_cached_ptd_host@@@Z 000000018011afd0 f i libucrtd:output.obj
 0002:0009e0e0       ?validate@?$string_output_adapter@_W@__crt_stdio_output@@QEBA_NAEAV__crt_cached_ptd_host@@@Z 000000018011b0e0 f i libucrtd:output.obj
 0002:0009e1f0       ?validate_and_store_parameter_data@?$positional_parameter_base@DV?$stream_output_adapter@D@__crt_stdio_output@@@__crt_stdio_output@@AEAA_NAEAUparameter_data@12@W4parameter_type@12@DW4length_modifier@2@@Z 000000018011b1f0 f i libucrtd:output.obj
 0002:0009e380       ?validate_and_store_parameter_data@?$positional_parameter_base@DV?$string_output_adapter@D@__crt_stdio_output@@@__crt_stdio_output@@AEAA_NAEAUparameter_data@12@W4parameter_type@12@DW4length_modifier@2@@Z 000000018011b380 f i libucrtd:output.obj
 0002:0009e510       ?validate_and_store_parameter_data@?$positional_parameter_base@_WV?$stream_output_adapter@_W@__crt_stdio_output@@@__crt_stdio_output@@AEAA_NAEAUparameter_data@12@W4parameter_type@12@_WW4length_modifier@2@@Z 000000018011b510 f i libucrtd:output.obj
 0002:0009e6a0       ?validate_and_store_parameter_data@?$positional_parameter_base@_WV?$string_output_adapter@_W@__crt_stdio_output@@@__crt_stdio_output@@AEAA_NAEAUparameter_data@12@W4parameter_type@12@_WW4length_modifier@2@@Z 000000018011b6a0 f i libucrtd:output.obj
 0002:0009e830       ?validate_and_update_state_at_beginning_of_format_character@?$positional_parameter_base@DV?$stream_output_adapter@D@__crt_stdio_output@@@__crt_stdio_output@@IEAA_NXZ 000000018011b830 f i libucrtd:output.obj
 0002:0009eb80       ?validate_and_update_state_at_beginning_of_format_character@?$positional_parameter_base@DV?$string_output_adapter@D@__crt_stdio_output@@@__crt_stdio_output@@IEAA_NXZ 000000018011bb80 f i libucrtd:output.obj
 0002:0009eed0       ?validate_and_update_state_at_beginning_of_format_character@?$positional_parameter_base@_WV?$stream_output_adapter@_W@__crt_stdio_output@@@__crt_stdio_output@@IEAA_NXZ 000000018011bed0 f i libucrtd:output.obj
 0002:0009f220       ?validate_and_update_state_at_beginning_of_format_character@?$positional_parameter_base@_WV?$string_output_adapter@_W@__crt_stdio_output@@@__crt_stdio_output@@IEAA_NXZ 000000018011c220 f i libucrtd:output.obj
 0002:0009f570       ?validate_and_update_state_at_beginning_of_format_character@?$standard_base@DV?$stream_output_adapter@D@__crt_stdio_output@@@__crt_stdio_output@@IEAA_NXZ 000000018011c570 f i libucrtd:output.obj
 0002:0009f580       ?validate_and_update_state_at_beginning_of_format_character@?$standard_base@DV?$string_output_adapter@D@__crt_stdio_output@@@__crt_stdio_output@@IEAA_NXZ 000000018011c580 f i libucrtd:output.obj
 0002:0009f590       ?validate_and_update_state_at_beginning_of_format_character@?$standard_base@_WV?$stream_output_adapter@_W@__crt_stdio_output@@@__crt_stdio_output@@IEAA_NXZ 000000018011c590 f i libucrtd:output.obj
 0002:0009f5a0       ?validate_and_update_state_at_beginning_of_format_character@?$standard_base@_WV?$string_output_adapter@_W@__crt_stdio_output@@@__crt_stdio_output@@IEAA_NXZ 000000018011c5a0 f i libucrtd:output.obj
 0002:0009f5b0       ?validate_and_update_state_at_end_of_format_string@?$format_validation_base@DV?$stream_output_adapter@D@__crt_stdio_output@@@__crt_stdio_output@@IEAA_NXZ 000000018011c5b0 f i libucrtd:output.obj
 0002:0009f6d0       ?validate_and_update_state_at_end_of_format_string@?$format_validation_base@DV?$string_output_adapter@D@__crt_stdio_output@@@__crt_stdio_output@@IEAA_NXZ 000000018011c6d0 f i libucrtd:output.obj
 0002:0009f7f0       ?validate_and_update_state_at_end_of_format_string@?$format_validation_base@_WV?$stream_output_adapter@_W@__crt_stdio_output@@@__crt_stdio_output@@IEAA_NXZ 000000018011c7f0 f i libucrtd:output.obj
 0002:0009f910       ?validate_and_update_state_at_end_of_format_string@?$format_validation_base@_WV?$string_output_adapter@_W@__crt_stdio_output@@@__crt_stdio_output@@IEAA_NXZ 000000018011c910 f i libucrtd:output.obj
 0002:0009fa30       ?validate_and_update_state_at_end_of_format_string@?$positional_parameter_base@DV?$stream_output_adapter@D@__crt_stdio_output@@@__crt_stdio_output@@IEAA_NXZ 000000018011ca30 f i libucrtd:output.obj
 0002:0009fcf0       ?validate_and_update_state_at_end_of_format_string@?$positional_parameter_base@DV?$string_output_adapter@D@__crt_stdio_output@@@__crt_stdio_output@@IEAA_NXZ 000000018011ccf0 f i libucrtd:output.obj
 0002:0009ffb0       ?validate_and_update_state_at_end_of_format_string@?$positional_parameter_base@_WV?$stream_output_adapter@_W@__crt_stdio_output@@@__crt_stdio_output@@IEAA_NXZ 000000018011cfb0 f i libucrtd:output.obj
 0002:000a0270       ?validate_and_update_state_at_end_of_format_string@?$positional_parameter_base@_WV?$string_output_adapter@_W@__crt_stdio_output@@@__crt_stdio_output@@IEAA_NXZ 000000018011d270 f i libucrtd:output.obj
 0002:000a0530       ?validate_and_update_state_at_end_of_format_string@?$standard_base@DV?$stream_output_adapter@D@__crt_stdio_output@@@__crt_stdio_output@@IEBA_NXZ 000000018011d530 f i libucrtd:output.obj
 0002:000a0540       ?validate_and_update_state_at_end_of_format_string@?$standard_base@DV?$string_output_adapter@D@__crt_stdio_output@@@__crt_stdio_output@@IEBA_NXZ 000000018011d540 f i libucrtd:output.obj
 0002:000a0550       ?validate_and_update_state_at_end_of_format_string@?$standard_base@_WV?$stream_output_adapter@_W@__crt_stdio_output@@@__crt_stdio_output@@IEBA_NXZ 000000018011d550 f i libucrtd:output.obj
 0002:000a0560       ?validate_and_update_state_at_end_of_format_string@?$standard_base@_WV?$string_output_adapter@_W@__crt_stdio_output@@@__crt_stdio_output@@IEBA_NXZ 000000018011d560 f i libucrtd:output.obj
 0002:000a0570       ?validate_state_for_type_case_a@?$positional_parameter_base@DV?$stream_output_adapter@D@__crt_stdio_output@@@__crt_stdio_output@@IEAA_NXZ 000000018011d570 f i libucrtd:output.obj
 0002:000a0720       ?validate_state_for_type_case_a@?$positional_parameter_base@DV?$string_output_adapter@D@__crt_stdio_output@@@__crt_stdio_output@@IEAA_NXZ 000000018011d720 f i libucrtd:output.obj
 0002:000a08d0       ?validate_state_for_type_case_a@?$positional_parameter_base@_WV?$stream_output_adapter@_W@__crt_stdio_output@@@__crt_stdio_output@@IEAA_NXZ 000000018011d8d0 f i libucrtd:output.obj
 0002:000a0a80       ?validate_state_for_type_case_a@?$positional_parameter_base@_WV?$string_output_adapter@_W@__crt_stdio_output@@@__crt_stdio_output@@IEAA_NXZ 000000018011da80 f i libucrtd:output.obj
 0002:000a0c30       ?validate_state_for_type_case_a@?$standard_base@DV?$stream_output_adapter@D@__crt_stdio_output@@@__crt_stdio_output@@IEBA_NXZ 000000018011dc30 f i libucrtd:output.obj
 0002:000a0c40       ?validate_state_for_type_case_a@?$standard_base@DV?$string_output_adapter@D@__crt_stdio_output@@@__crt_stdio_output@@IEBA_NXZ 000000018011dc40 f i libucrtd:output.obj
 0002:000a0c50       ?validate_state_for_type_case_a@?$standard_base@_WV?$stream_output_adapter@_W@__crt_stdio_output@@@__crt_stdio_output@@IEBA_NXZ 000000018011dc50 f i libucrtd:output.obj
 0002:000a0c60       ?validate_state_for_type_case_a@?$standard_base@_WV?$string_output_adapter@_W@__crt_stdio_output@@@__crt_stdio_output@@IEBA_NXZ 000000018011dc60 f i libucrtd:output.obj
 0002:000a0c70       ?validate_stream_is_ansi_if_required@?$__acrt_stdio_char_traits@D@@SA_NQEAU_iobuf@@@Z 000000018011dc70 f i libucrtd:output.obj
 0002:000a0e60       ?validate_stream_is_ansi_if_required@?$__acrt_stdio_char_traits@_W@@SA_NQEAU_iobuf@@@Z 000000018011de60 f i libucrtd:output.obj
 0002:000a0e70       ?wide_character_to_digit@__crt_strtox@@YAH_W@Z 000000018011de70 f i libucrtd:output.obj
 0002:000a12b0       ?wide_null_string@?$output_processor@DV?$stream_output_adapter@D@__crt_stdio_output@@V?$format_validation_base@DV?$stream_output_adapter@D@__crt_stdio_output@@@2@@__crt_stdio_output@@CAPEA_WXZ 000000018011e2b0 f i libucrtd:output.obj
 0002:000a12c0       ?wide_null_string@?$output_processor@DV?$stream_output_adapter@D@__crt_stdio_output@@V?$positional_parameter_base@DV?$stream_output_adapter@D@__crt_stdio_output@@@2@@__crt_stdio_output@@CAPEA_WXZ 000000018011e2c0 f i libucrtd:output.obj
 0002:000a12d0       ?wide_null_string@?$output_processor@DV?$stream_output_adapter@D@__crt_stdio_output@@V?$standard_base@DV?$stream_output_adapter@D@__crt_stdio_output@@@2@@__crt_stdio_output@@CAPEA_WXZ 000000018011e2d0 f i libucrtd:output.obj
 0002:000a12e0       ?wide_null_string@?$output_processor@DV?$string_output_adapter@D@__crt_stdio_output@@V?$format_validation_base@DV?$string_output_adapter@D@__crt_stdio_output@@@2@@__crt_stdio_output@@CAPEA_WXZ 000000018011e2e0 f i libucrtd:output.obj
 0002:000a12f0       ?wide_null_string@?$output_processor@DV?$string_output_adapter@D@__crt_stdio_output@@V?$positional_parameter_base@DV?$string_output_adapter@D@__crt_stdio_output@@@2@@__crt_stdio_output@@CAPEA_WXZ 000000018011e2f0 f i libucrtd:output.obj
 0002:000a1300       ?wide_null_string@?$output_processor@DV?$string_output_adapter@D@__crt_stdio_output@@V?$standard_base@DV?$string_output_adapter@D@__crt_stdio_output@@@2@@__crt_stdio_output@@CAPEA_WXZ 000000018011e300 f i libucrtd:output.obj
 0002:000a1310       ?wide_null_string@?$output_processor@_WV?$stream_output_adapter@_W@__crt_stdio_output@@V?$format_validation_base@_WV?$stream_output_adapter@_W@__crt_stdio_output@@@2@@__crt_stdio_output@@CAPEA_WXZ 000000018011e310 f i libucrtd:output.obj
 0002:000a1320       ?wide_null_string@?$output_processor@_WV?$stream_output_adapter@_W@__crt_stdio_output@@V?$positional_parameter_base@_WV?$stream_output_adapter@_W@__crt_stdio_output@@@2@@__crt_stdio_output@@CAPEA_WXZ 000000018011e320 f i libucrtd:output.obj
 0002:000a1330       ?wide_null_string@?$output_processor@_WV?$stream_output_adapter@_W@__crt_stdio_output@@V?$standard_base@_WV?$stream_output_adapter@_W@__crt_stdio_output@@@2@@__crt_stdio_output@@CAPEA_WXZ 000000018011e330 f i libucrtd:output.obj
 0002:000a1340       ?wide_null_string@?$output_processor@_WV?$string_output_adapter@_W@__crt_stdio_output@@V?$format_validation_base@_WV?$string_output_adapter@_W@__crt_stdio_output@@@2@@__crt_stdio_output@@CAPEA_WXZ 000000018011e340 f i libucrtd:output.obj
 0002:000a1350       ?wide_null_string@?$output_processor@_WV?$string_output_adapter@_W@__crt_stdio_output@@V?$positional_parameter_base@_WV?$string_output_adapter@_W@__crt_stdio_output@@@2@@__crt_stdio_output@@CAPEA_WXZ 000000018011e350 f i libucrtd:output.obj
 0002:000a1360       ?wide_null_string@?$output_processor@_WV?$string_output_adapter@_W@__crt_stdio_output@@V?$standard_base@_WV?$string_output_adapter@_W@__crt_stdio_output@@@2@@__crt_stdio_output@@CAPEA_WXZ 000000018011e360 f i libucrtd:output.obj
 0002:000a1370       ?write_character@?$output_adapter_common@DV?$stream_output_adapter@D@__crt_stdio_output@@@__crt_stdio_output@@QEBAXDQEAHAEAV__crt_cached_ptd_host@@@Z 000000018011e370 f i libucrtd:output.obj
 0002:000a13e0       ?write_character@?$output_adapter_common@_WV?$stream_output_adapter@_W@__crt_stdio_output@@@__crt_stdio_output@@QEBAX_WQEAHAEAV__crt_cached_ptd_host@@@Z 000000018011e3e0 f i libucrtd:output.obj
 0002:000a1450       ?write_character@?$string_output_adapter@D@__crt_stdio_output@@QEBA_NDQEAHAEAV__crt_cached_ptd_host@@@Z 000000018011e450 f i libucrtd:output.obj
 0002:000a1550       ?write_character@?$string_output_adapter@_W@__crt_stdio_output@@QEBA_N_WQEAHAEAV__crt_cached_ptd_host@@@Z 000000018011e550 f i libucrtd:output.obj
 0002:000a1650       ?write_character_without_count_update@?$stream_output_adapter@D@__crt_stdio_output@@QEBA_NDAEAV__crt_cached_ptd_host@@@Z 000000018011e650 f i libucrtd:output.obj
 0002:000a1700       ?write_character_without_count_update@?$stream_output_adapter@_W@__crt_stdio_output@@QEBA_N_WAEAV__crt_cached_ptd_host@@@Z 000000018011e700 f i libucrtd:output.obj
 0002:000a17b0       ?write_stored_string_tchar@?$output_processor@DV?$stream_output_adapter@D@__crt_stdio_output@@V?$format_validation_base@DV?$stream_output_adapter@D@__crt_stdio_output@@@2@@__crt_stdio_output@@AEAA_ND@Z 000000018011e7b0 f i libucrtd:output.obj
 0002:000a19c0       ?write_stored_string_tchar@?$output_processor@DV?$stream_output_adapter@D@__crt_stdio_output@@V?$positional_parameter_base@DV?$stream_output_adapter@D@__crt_stdio_output@@@2@@__crt_stdio_output@@AEAA_ND@Z 000000018011e9c0 f i libucrtd:output.obj
 0002:000a1bd0       ?write_stored_string_tchar@?$output_processor@DV?$stream_output_adapter@D@__crt_stdio_output@@V?$standard_base@DV?$stream_output_adapter@D@__crt_stdio_output@@@2@@__crt_stdio_output@@AEAA_ND@Z 000000018011ebd0 f i libucrtd:output.obj
 0002:000a1de0       ?write_stored_string_tchar@?$output_processor@DV?$string_output_adapter@D@__crt_stdio_output@@V?$format_validation_base@DV?$string_output_adapter@D@__crt_stdio_output@@@2@@__crt_stdio_output@@AEAA_ND@Z 000000018011ede0 f i libucrtd:output.obj
 0002:000a1ff0       ?write_stored_string_tchar@?$output_processor@DV?$string_output_adapter@D@__crt_stdio_output@@V?$positional_parameter_base@DV?$string_output_adapter@D@__crt_stdio_output@@@2@@__crt_stdio_output@@AEAA_ND@Z 000000018011eff0 f i libucrtd:output.obj
 0002:000a2200       ?write_stored_string_tchar@?$output_processor@DV?$string_output_adapter@D@__crt_stdio_output@@V?$standard_base@DV?$string_output_adapter@D@__crt_stdio_output@@@2@@__crt_stdio_output@@AEAA_ND@Z 000000018011f200 f i libucrtd:output.obj
 0002:000a2410       ?write_stored_string_tchar@?$output_processor@_WV?$stream_output_adapter@_W@__crt_stdio_output@@V?$format_validation_base@_WV?$stream_output_adapter@_W@__crt_stdio_output@@@2@@__crt_stdio_output@@AEAA_N_W@Z 000000018011f410 f i libucrtd:output.obj
 0002:000a25c0       ?write_stored_string_tchar@?$output_processor@_WV?$stream_output_adapter@_W@__crt_stdio_output@@V?$positional_parameter_base@_WV?$stream_output_adapter@_W@__crt_stdio_output@@@2@@__crt_stdio_output@@AEAA_N_W@Z 000000018011f5c0 f i libucrtd:output.obj
 0002:000a2770       ?write_stored_string_tchar@?$output_processor@_WV?$stream_output_adapter@_W@__crt_stdio_output@@V?$standard_base@_WV?$stream_output_adapter@_W@__crt_stdio_output@@@2@@__crt_stdio_output@@AEAA_N_W@Z 000000018011f770 f i libucrtd:output.obj
 0002:000a2920       ?write_stored_string_tchar@?$output_processor@_WV?$string_output_adapter@_W@__crt_stdio_output@@V?$format_validation_base@_WV?$string_output_adapter@_W@__crt_stdio_output@@@2@@__crt_stdio_output@@AEAA_N_W@Z 000000018011f920 f i libucrtd:output.obj
 0002:000a2ad0       ?write_stored_string_tchar@?$output_processor@_WV?$string_output_adapter@_W@__crt_stdio_output@@V?$positional_parameter_base@_WV?$string_output_adapter@_W@__crt_stdio_output@@@2@@__crt_stdio_output@@AEAA_N_W@Z 000000018011fad0 f i libucrtd:output.obj
 0002:000a2c80       ?write_stored_string_tchar@?$output_processor@_WV?$string_output_adapter@_W@__crt_stdio_output@@V?$standard_base@_WV?$string_output_adapter@_W@__crt_stdio_output@@@2@@__crt_stdio_output@@AEAA_N_W@Z 000000018011fc80 f i libucrtd:output.obj
 0002:000a2e30       ?write_string@?$stream_output_adapter@D@__crt_stdio_output@@QEBAXQEBDHQEAHAEAV__crt_cached_ptd_host@@@Z 000000018011fe30 f i libucrtd:output.obj
 0002:000a2ed0       ?write_string@?$stream_output_adapter@_W@__crt_stdio_output@@QEBAXQEB_WHQEAHAEAV__crt_cached_ptd_host@@@Z 000000018011fed0 f i libucrtd:output.obj
 0002:000a2f70       ?write_string@?$string_output_adapter@D@__crt_stdio_output@@QEBAXQEBDHQEAHAEAV__crt_cached_ptd_host@@@Z 000000018011ff70 f i libucrtd:output.obj
 0002:000a3130       ?write_string@?$string_output_adapter@_W@__crt_stdio_output@@QEBAXQEB_WHQEAHAEAV__crt_cached_ptd_host@@@Z 0000000180120130 f i libucrtd:output.obj
 0002:000a3300       ?write_string_impl@?$output_adapter_common@DV?$stream_output_adapter@D@__crt_stdio_output@@@__crt_stdio_output@@IEBAXQEBDHQEAHAEAV__crt_cached_ptd_host@@@Z 0000000180120300 f i libucrtd:output.obj
 0002:000a3470       ?write_string_impl@?$output_adapter_common@_WV?$stream_output_adapter@_W@__crt_stdio_output@@@__crt_stdio_output@@IEBAXQEB_WHQEAHAEAV__crt_cached_ptd_host@@@Z 0000000180120470 f i libucrtd:output.obj
 0002:000a35e0       __acrt_isleadbyte_l_noupdate 00000001801205e0 f i libucrtd:output.obj
 0002:000a3620       __acrt_locale_get_ctype_array_value 0000000180120620 f i libucrtd:output.obj
 0002:000a3670       __ascii_iswalpha           0000000180120670 f i libucrtd:output.obj
 0002:000a36c0       __ascii_toupper            00000001801206c0 f i libucrtd:output.obj
 0002:000a36f0       __ascii_towupper           00000001801206f0 f i libucrtd:output.obj
 0002:000a3710       __stdio_common_vfprintf    0000000180120710 f   libucrtd:output.obj
 0002:000a37b0       __stdio_common_vfprintf_p  00000001801207b0 f   libucrtd:output.obj
 0002:000a3850       __stdio_common_vfprintf_s  0000000180120850 f   libucrtd:output.obj
 0002:000a38f0       __stdio_common_vfwprintf   00000001801208f0 f   libucrtd:output.obj
 0002:000a3990       __stdio_common_vfwprintf_p 0000000180120990 f   libucrtd:output.obj
 0002:000a3a30       __stdio_common_vfwprintf_s 0000000180120a30 f   libucrtd:output.obj
 0002:000a3ad0       __stdio_common_vsnprintf_s 0000000180120ad0 f   libucrtd:output.obj
 0002:000a3b90       __stdio_common_vsnwprintf_s 0000000180120b90 f   libucrtd:output.obj
 0002:000a3c50       __stdio_common_vsprintf    0000000180120c50 f   libucrtd:output.obj
 0002:000a3d00       __stdio_common_vsprintf_p  0000000180120d00 f   libucrtd:output.obj
 0002:000a3db0       __stdio_common_vsprintf_s  0000000180120db0 f   libucrtd:output.obj
 0002:000a3e60       __stdio_common_vswprintf   0000000180120e60 f   libucrtd:output.obj
 0002:000a3f10       __stdio_common_vswprintf_p 0000000180120f10 f   libucrtd:output.obj
 0002:000a3fc0       __stdio_common_vswprintf_s 0000000180120fc0 f   libucrtd:output.obj
 0002:000a4070       _ctype_fast_check_internal 0000000180121070 f i libucrtd:output.obj
 0002:000a40a0       _isdigit_fast_internal     00000001801210a0 f i libucrtd:output.obj
 0002:000a40d0       _tolower_fast_internal     00000001801210d0 f i libucrtd:output.obj
 0002:000a5260       _makepath                  0000000180122260 f   libucrtd:makepath.obj
 0002:000a52c0       _makepath_s                00000001801222c0 f   libucrtd:makepath.obj
 0002:000a5320       _wmakepath                 0000000180122320 f   libucrtd:makepath.obj
 0002:000a5380       _wmakepath_s               0000000180122380 f   libucrtd:makepath.obj
 0002:000a8380       ??$tcsncpy_s@AEAPEAD_KAEAPEBDAEB_K@?$__crt_char_traits@D@@SAHAEAPEAD$$QEA_KAEAPEBDAEB_K@Z 0000000180125380 f i libucrtd:splitpath.obj
 0002:000a83e0       ??$tcsncpy_s@AEAPEAD_KAEAPEBDH@?$__crt_char_traits@D@@SAHAEAPEAD$$QEA_KAEAPEBD$$QEAH@Z 00000001801253e0 f i libucrtd:splitpath.obj
 0002:000a8440       ??$tcsncpy_s@AEAPEA_W_KAEAPEB_WAEB_K@?$__crt_char_traits@_W@@SAHAEAPEA_W$$QEA_KAEAPEB_WAEB_K@Z 0000000180125440 f i libucrtd:splitpath.obj
 0002:000a84a0       ??$tcsncpy_s@AEAPEA_W_KAEAPEB_WH@?$__crt_char_traits@_W@@SAHAEAPEA_W$$QEA_KAEAPEB_W$$QEAH@Z 00000001801254a0 f i libucrtd:splitpath.obj
 0002:000a87f0       _splitpath                 00000001801257f0 f   libucrtd:splitpath.obj
 0002:000a8840       _splitpath_s               0000000180125840 f   libucrtd:splitpath.obj
 0002:000a8900       _wsplitpath                0000000180125900 f   libucrtd:splitpath.obj
 0002:000a8950       _wsplitpath_s              0000000180125950 f   libucrtd:splitpath.obj
 0002:000a9040       wcscpy_s                   0000000180126040 f   libucrtd:wcscpy_s.obj
 0002:000a9080       __acrt_initialize_locks    0000000180126080 f   libucrtd:locks.obj
 0002:000a9110       __acrt_lock                0000000180126110 f   libucrtd:locks.obj
 0002:000a9150       __acrt_uninitialize_locks  0000000180126150 f   libucrtd:locks.obj
 0002:000a91d0       __acrt_unlock              00000001801261d0 f   libucrtd:locks.obj
 0002:000a9210       _lock_locales              0000000180126210 f   libucrtd:locks.obj
 0002:000a9230       _unlock_locales            0000000180126230 f   libucrtd:locks.obj
 0002:000a9250       ??$?RPEAU__crt_stdio_stream_data@@@__crt_internal_free_policy@@QEBAXQEBQEAU__crt_stdio_stream_data@@@Z 0000000180126250 f i libucrtd:_file.obj
 0002:000a9280       ??0?$__crt_unique_heap_ptr@PEAU__crt_stdio_stream_data@@U__crt_internal_free_policy@@@@QEAA@QEAPEAU__crt_stdio_stream_data@@@Z 0000000180126280 f i libucrtd:_file.obj
 0002:000a92b0       ??1?$__crt_unique_heap_ptr@PEAU__crt_stdio_stream_data@@U__crt_internal_free_policy@@@@QEAA@XZ 00000001801262b0 f i libucrtd:_file.obj
 0002:000a92d0       ?detach@?$__crt_unique_heap_ptr@PEAU__crt_stdio_stream_data@@U__crt_internal_free_policy@@@@QEAAPEAPEAU__crt_stdio_stream_data@@XZ 00000001801262d0 f i libucrtd:_file.obj
 0002:000a9310       ?release@?$__crt_unique_heap_ptr@PEAU__crt_stdio_stream_data@@U__crt_internal_free_policy@@@@QEAAXXZ 0000000180126310 f i libucrtd:_file.obj
 0002:000a9350       __acrt_initialize_stdio    0000000180126350 f   libucrtd:_file.obj
 0002:000a95b0       __acrt_iob_func            00000001801265b0 f   libucrtd:_file.obj
 0002:000a95d0       __acrt_uninitialize_stdio  00000001801265d0 f   libucrtd:_file.obj
 0002:000a9680       _get_stream_buffer_pointers 0000000180126680 f   libucrtd:_file.obj
 0002:000a9800       _lock_file                 0000000180126800 f   libucrtd:_file.obj
 0002:000a9840       _unlock_file               0000000180126840 f   libucrtd:_file.obj
 0002:000a9c40       _fputc_nolock              0000000180126c40 f   libucrtd:fputc.obj
 0002:000a9ca0       _fputc_nolock_internal     0000000180126ca0 f   libucrtd:fputc.obj
 0002:000a9d90       _fputchar                  0000000180126d90 f   libucrtd:fputc.obj
 0002:000a9dc0       _putc_nolock               0000000180126dc0 f   libucrtd:fputc.obj
 0002:000a9df0       fputc                      0000000180126df0 f   libucrtd:fputc.obj
 0002:000a9e50       putc                       0000000180126e50 f   libucrtd:fputc.obj
 0002:000a9e80       putchar                    0000000180126e80 f   libucrtd:fputc.obj
 0002:000aa670       fputs                      0000000180127670 f   libucrtd:fputs.obj
 0002:000aa6d0       _set_abort_behavior        00000001801276d0 f   libucrtd:abort.obj
 0002:000aa720       abort                      0000000180127720 f   libucrtd:abort.obj
 0002:000aa7c0       free                       00000001801277c0 f   libucrtd:free.obj
 0002:000aa810       strlen                     0000000180127810 f   libucrtd:strlen.obj
 0002:000aa900       strcmp                     0000000180127900 f   libucrtd:strcmp.obj
 0002:000aa990       ??$is_overflow_condition@_K@__crt_strtox@@YA_NI_K@Z 0000000180127990 f i libucrtd:atox.obj
 0002:000aaa20       ??$make_c_string_character_source@D$$T@__crt_strtox@@YA?AV?$c_string_character_source@D@0@QEBD$$T@Z 0000000180127a20 f i libucrtd:atox.obj
 0002:000aaa60       ??$make_c_string_character_source@_W$$T@__crt_strtox@@YA?AV?$c_string_character_source@_W@0@QEB_W$$T@Z 0000000180127a60 f i libucrtd:atox.obj
 0002:000aaaa0       ??$parse_integer@KV?$c_string_character_source@D@__crt_strtox@@$00@__crt_strtox@@YAKAEAV__crt_cached_ptd_host@@V?$c_string_character_source@D@0@H_N@Z 0000000180127aa0 f i libucrtd:atox.obj
 0002:000ab090       ??$parse_integer@KV?$c_string_character_source@_W@__crt_strtox@@$00@__crt_strtox@@YAKAEAV__crt_cached_ptd_host@@V?$c_string_character_source@_W@0@H_N@Z 0000000180128090 f i libucrtd:atox.obj
 0002:000ab690       ??$parse_integer@_KV?$c_string_character_source@D@__crt_strtox@@$00@__crt_strtox@@YA_KAEAV__crt_cached_ptd_host@@V?$c_string_character_source@D@0@H_N@Z 0000000180128690 f i libucrtd:atox.obj
 0002:000abcf0       ??$parse_integer@_KV?$c_string_character_source@_W@__crt_strtox@@$00@__crt_strtox@@YA_KAEAV__crt_cached_ptd_host@@V?$c_string_character_source@_W@0@H_N@Z 0000000180128cf0 f i libucrtd:atox.obj
 0002:000ac360       ??$parse_integer_from_string@JD$$T@__crt_strtox@@YAJQEBD$$THQEAU__crt_locale_pointers@@@Z 0000000180129360 f i libucrtd:atox.obj
 0002:000ac410       ??$parse_integer_from_string@J_W$$T@__crt_strtox@@YAJQEB_W$$THQEAU__crt_locale_pointers@@@Z 0000000180129410 f i libucrtd:atox.obj
 0002:000ac4c0       ??$parse_integer_from_string@_JD$$T@__crt_strtox@@YA_JQEBD$$THQEAU__crt_locale_pointers@@@Z 00000001801294c0 f i libucrtd:atox.obj
 0002:000ac570       ??$parse_integer_from_string@_J_W$$T@__crt_strtox@@YA_JQEB_W$$THQEAU__crt_locale_pointers@@@Z 0000000180129570 f i libucrtd:atox.obj
 0002:000ac620       ?is_space@__crt_strtox@@YA_NDQEAU__crt_locale_pointers@@@Z 0000000180129620 f i libucrtd:atox.obj
 0002:000ac680       ?is_space@__crt_strtox@@YA_N_WPEAU__crt_locale_pointers@@@Z 0000000180129680 f i libucrtd:atox.obj
 0002:000ac6d0       ?maximum_signed_value@__crt_strtox@@YA_J_K@Z 00000001801296d0 f i libucrtd:atox.obj
 0002:000ac6f0       ?minimum_signed_value@__crt_strtox@@YA_J_K@Z 00000001801296f0 f i libucrtd:atox.obj
 0002:000ac710       _atoi64                    0000000180129710 f   libucrtd:atox.obj
 0002:000ac740       _atoi64_l                  0000000180129740 f   libucrtd:atox.obj
 0002:000ac780       _atoi_l                    0000000180129780 f   libucrtd:atox.obj
 0002:000ac7c0       _atol_l                    00000001801297c0 f   libucrtd:atox.obj
 0002:000ac800       _atoll_l                   0000000180129800 f   libucrtd:atox.obj
 0002:000ac840       _wtoi                      0000000180129840 f   libucrtd:atox.obj
 0002:000ac870       _wtoi64                    0000000180129870 f   libucrtd:atox.obj
 0002:000ac8a0       _wtoi64_l                  00000001801298a0 f   libucrtd:atox.obj
 0002:000ac8e0       _wtoi_l                    00000001801298e0 f   libucrtd:atox.obj
 0002:000ac920       _wtol                      0000000180129920 f   libucrtd:atox.obj
 0002:000ac950       _wtol_l                    0000000180129950 f   libucrtd:atox.obj
 0002:000ac990       _wtoll                     0000000180129990 f   libucrtd:atox.obj
 0002:000ac9c0       _wtoll_l                   00000001801299c0 f   libucrtd:atox.obj
 0002:000aca00       atoi                       0000000180129a00 f   libucrtd:atox.obj
 0002:000aca30       atol                       0000000180129a30 f   libucrtd:atox.obj
 0002:000aca60       atoll                      0000000180129a60 f   libucrtd:atox.obj
 0002:000acaa0       strncmp                    0000000180129aa0 f   libucrtd:strncmp.obj
 0002:000acb40       wcsncmp                    0000000180129b40 f   libucrtd:wcsncmp.obj
 0002:000acbf0       ??$?RU__acrt_ptd@@@__crt_internal_free_policy@@QEBAXQEBU__acrt_ptd@@@Z 0000000180129bf0 f i libucrtd:per_thread_data.obj
 0002:000ad1b0       ??0?$__crt_unique_heap_ptr@U__acrt_ptd@@U__crt_internal_free_policy@@@@QEAA@QEAU__acrt_ptd@@@Z 000000018012a1b0 f i libucrtd:per_thread_data.obj
 0002:000ad1e0       ??1?$__crt_unique_heap_ptr@U__acrt_ptd@@U__crt_internal_free_policy@@@@QEAA@XZ 000000018012a1e0 f i libucrtd:per_thread_data.obj
 0002:000ad200       ??B?$__crt_unique_heap_ptr@U__acrt_ptd@@U__crt_internal_free_policy@@@@QEBA_NXZ 000000018012a200 f i libucrtd:per_thread_data.obj
 0002:000ad5e0       ?dangerous_get_state_array@?$dual_state_global@PEAU__crt_locale_data@@@__crt_state_management@@QEAAPEAPEAU__crt_locale_data@@XZ 000000018012a5e0 f i libucrtd:per_thread_data.obj
 0002:000ad800       ?detach@?$__crt_unique_heap_ptr@U__acrt_ptd@@U__crt_internal_free_policy@@@@QEAAPEAU__acrt_ptd@@XZ 000000018012a800 f i libucrtd:per_thread_data.obj
 0002:000ad840       ?get@?$__crt_unique_heap_ptr@U__acrt_ptd@@U__crt_internal_free_policy@@@@QEBAPEAU__acrt_ptd@@XZ 000000018012a840 f i libucrtd:per_thread_data.obj
 0002:000adaa0       ?is_valid@?$__crt_unique_heap_ptr@U__acrt_ptd@@U__crt_internal_free_policy@@@@QEBA_NXZ 000000018012aaa0 f i libucrtd:per_thread_data.obj
 0002:000adae0       ?release@?$__crt_unique_heap_ptr@U__acrt_ptd@@U__crt_internal_free_policy@@@@QEAAXXZ 000000018012aae0 f i libucrtd:per_thread_data.obj
 0002:000adc60       ?value@?$dual_state_global@PEAU__crt_locale_data@@@__crt_state_management@@QEAAAEAPEAU__crt_locale_data@@XZ 000000018012ac60 f i libucrtd:per_thread_data.obj
 0002:000adc90       __acrt_freeptd             000000018012ac90 f   libucrtd:per_thread_data.obj
 0002:000adce0       __acrt_getptd              000000018012ace0 f   libucrtd:per_thread_data.obj
 0002:000add10       __acrt_getptd_head         000000018012ad10 f   libucrtd:per_thread_data.obj
 0002:000add40       __acrt_getptd_noexit       000000018012ad40 f   libucrtd:per_thread_data.obj
 0002:000add60       __acrt_getptd_noexit_explicit 000000018012ad60 f   libucrtd:per_thread_data.obj
 0002:000add90       __acrt_initialize_ptd      000000018012ad90 f   libucrtd:per_thread_data.obj
 0002:000adde0       __acrt_uninitialize_ptd    000000018012ade0 f   libucrtd:per_thread_data.obj
 0002:000ade20       __threadhandle             000000018012ae20 f   libucrtd:per_thread_data.obj
 0002:000ade40       __threadid                 000000018012ae40 f   libucrtd:per_thread_data.obj
 0002:000ade70       ??$?RU__crt_locale_data@@@__crt_internal_free_policy@@QEBAXQEBU__crt_locale_data@@@Z 000000018012ae70 f i libucrtd:wsetlocale.obj
 0002:000adea0       ??$?RU__crt_locale_pointers@@@__crt_internal_free_policy@@QEBAXQEBU__crt_locale_pointers@@@Z 000000018012aea0 f i libucrtd:wsetlocale.obj
 0002:000aded0       ??$?RU__crt_multibyte_data@@@__crt_internal_free_policy@@QEBAXQEBU__crt_multibyte_data@@@Z 000000018012aed0 f i libucrtd:wsetlocale.obj
 0002:000ae660       ??0?$__crt_unique_heap_ptr@U__crt_locale_data@@U__crt_internal_free_policy@@@@QEAA@QEAU__crt_locale_data@@@Z 000000018012b660 f i libucrtd:wsetlocale.obj
 0002:000ae690       ??0?$__crt_unique_heap_ptr@U__crt_locale_pointers@@U__crt_internal_free_policy@@@@QEAA@QEAU__crt_locale_pointers@@@Z 000000018012b690 f i libucrtd:wsetlocale.obj
 0002:000ae6c0       ??0?$__crt_unique_heap_ptr@U__crt_multibyte_data@@U__crt_internal_free_policy@@@@QEAA@QEAU__crt_multibyte_data@@@Z 000000018012b6c0 f i libucrtd:wsetlocale.obj
 0002:000ae6f0       ??0_expandlocale_locale_name_cache@@QEAA@QEA_W_KQEAU__crt_qualified_locale_data@@@Z 000000018012b6f0 f i libucrtd:wsetlocale.obj
 0002:000ae7c0       ??1?$__crt_unique_heap_ptr@U__crt_locale_data@@U__crt_internal_free_policy@@@@QEAA@XZ 000000018012b7c0 f i libucrtd:wsetlocale.obj
 0002:000ae7e0       ??1?$__crt_unique_heap_ptr@U__crt_locale_pointers@@U__crt_internal_free_policy@@@@QEAA@XZ 000000018012b7e0 f i libucrtd:wsetlocale.obj
 0002:000ae800       ??1?$__crt_unique_heap_ptr@U__crt_multibyte_data@@U__crt_internal_free_policy@@@@QEAA@XZ 000000018012b800 f i libucrtd:wsetlocale.obj
 0002:000ae820       ??1_expandlocale_locale_name_cache@@QEAA@XZ 000000018012b820 f i libucrtd:wsetlocale.obj
 0002:000ae8c0       ??B?$__crt_unique_heap_ptr@U__crt_locale_data@@U__crt_internal_free_policy@@@@QEBA_NXZ 000000018012b8c0 f i libucrtd:wsetlocale.obj
 0002:000ae8e0       ??B?$__crt_unique_heap_ptr@U__crt_locale_pointers@@U__crt_internal_free_policy@@@@QEBA_NXZ 000000018012b8e0 f i libucrtd:wsetlocale.obj
 0002:000ae900       ??B?$__crt_unique_heap_ptr@U__crt_multibyte_data@@U__crt_internal_free_policy@@@@QEBA_NXZ 000000018012b900 f i libucrtd:wsetlocale.obj
 0002:000aee60       ?commit_locale_name@_expandlocale_locale_name_cache@@QEAAXQEB_W_K@Z 000000018012be60 f i libucrtd:wsetlocale.obj
 0002:000aef00       ?commit_locale_name_cache_already_updated@_expandlocale_locale_name_cache@@QEAAXQEB_W_K@Z 000000018012bf00 f i libucrtd:wsetlocale.obj
 0002:000aef90       ?detach@?$__crt_unique_heap_ptr@U__crt_locale_data@@U__crt_internal_free_policy@@@@QEAAPEAU__crt_locale_data@@XZ 000000018012bf90 f i libucrtd:wsetlocale.obj
 0002:000aefd0       ?detach@?$__crt_unique_heap_ptr@U__crt_locale_pointers@@U__crt_internal_free_policy@@@@QEAAPEAU__crt_locale_pointers@@XZ 000000018012bfd0 f i libucrtd:wsetlocale.obj
 0002:000af010       ?detach@?$__crt_unique_heap_ptr@U__crt_multibyte_data@@U__crt_internal_free_policy@@@@QEAAPEAU__crt_multibyte_data@@XZ 000000018012c010 f i libucrtd:wsetlocale.obj
 0002:000af050       ?get@?$__crt_unique_heap_ptr@U__crt_locale_data@@U__crt_internal_free_policy@@@@QEBAPEAU__crt_locale_data@@XZ 000000018012c050 f i libucrtd:wsetlocale.obj
 0002:000af070       ?get@?$__crt_unique_heap_ptr@U__crt_locale_pointers@@U__crt_internal_free_policy@@@@QEBAPEAU__crt_locale_pointers@@XZ 000000018012c070 f i libucrtd:wsetlocale.obj
 0002:000af090       ?get@?$__crt_unique_heap_ptr@U__crt_multibyte_data@@U__crt_internal_free_policy@@@@QEBAPEAU__crt_multibyte_data@@XZ 000000018012c090 f i libucrtd:wsetlocale.obj
 0002:000af0b0       ?is_valid@?$__crt_unique_heap_ptr@U__crt_locale_data@@U__crt_internal_free_policy@@@@QEBA_NXZ 000000018012c0b0 f i libucrtd:wsetlocale.obj
 0002:000af0f0       ?is_valid@?$__crt_unique_heap_ptr@U__crt_locale_pointers@@U__crt_internal_free_policy@@@@QEBA_NXZ 000000018012c0f0 f i libucrtd:wsetlocale.obj
 0002:000af130       ?is_valid@?$__crt_unique_heap_ptr@U__crt_multibyte_data@@U__crt_internal_free_policy@@@@QEBA_NXZ 000000018012c130 f i libucrtd:wsetlocale.obj
 0002:000af170       ?release@?$__crt_unique_heap_ptr@U__crt_locale_data@@U__crt_internal_free_policy@@@@QEAAXXZ 000000018012c170 f i libucrtd:wsetlocale.obj
 0002:000af1b0       ?release@?$__crt_unique_heap_ptr@U__crt_locale_pointers@@U__crt_internal_free_policy@@@@QEAAXXZ 000000018012c1b0 f i libucrtd:wsetlocale.obj
 0002:000af1f0       ?release@?$__crt_unique_heap_ptr@U__crt_multibyte_data@@U__crt_internal_free_policy@@@@QEAAXXZ 000000018012c1f0 f i libucrtd:wsetlocale.obj
 0002:000af230       __acrt_copy_locale_name    000000018012c230 f   libucrtd:wsetlocale.obj
 0002:000af330       __acrt_set_locale_changed  000000018012c330 f   libucrtd:wsetlocale.obj
 0002:000af350       __acrt_uninitialize_locale 000000018012c350 f   libucrtd:wsetlocale.obj
 0002:000af390       __ascii_tolower            000000018012c390 f i libucrtd:wsetlocale.obj
 0002:000af3c0       __ascii_towlower           000000018012c3c0 f i libucrtd:wsetlocale.obj
 0002:000af3e0       __lc_lctowcs               000000018012c3e0 f   libucrtd:wsetlocale.obj
 0002:000af510       __lc_wcstolc               000000018012c510 f   libucrtd:wsetlocale.obj
 0002:000af880       _configthreadlocale        000000018012c880 f   libucrtd:wsetlocale.obj
 0002:000afab0       _create_locale             000000018012cab0 f   libucrtd:wsetlocale.obj
 0002:000b0370       _free_locale               000000018012d370 f   libucrtd:wsetlocale.obj
 0002:000b04a0       _get_current_locale        000000018012d4a0 f   libucrtd:wsetlocale.obj
 0002:000b0600       _wcreate_locale            000000018012d600 f   libucrtd:wsetlocale.obj
 0002:000b09b0       _wcscats                   000000018012d9b0 f   libucrtd:wsetlocale.obj
 0002:000b0ad0       _wsetlocale                000000018012dad0 f   libucrtd:wsetlocale.obj
 0002:000b2e10       __p___mb_cur_max           000000018012fe10 f   libucrtd:nlsdata.obj
 0002:000b2e60       _fileno                    000000018012fe60 f   libucrtd:fileno.obj
 0002:000b3350       ?get_doserrno@__crt_cached_ptd_host@@QEAA@XZ 0000000180130350 f i libucrtd:close.obj
 0002:000b3370       ?set@?$cached@K@__crt_cached_ptd_host@@QEAAKK@Z 0000000180130370 f i libucrtd:close.obj
 0002:000b33a0       _close                     00000001801303a0 f   libucrtd:close.obj
 0002:000b33f0       _close_internal            00000001801303f0 f   libucrtd:close.obj
 0002:000b3760       _close_nolock              0000000180130760 f   libucrtd:close.obj
 0002:000b37b0       _close_nolock_internal     00000001801307b0 f   libucrtd:close.obj
 0002:000b3840       ??$?RU__crt_stdio_stream_data@@@__crt_internal_free_policy@@QEBAXQEBU__crt_stdio_stream_data@@@Z 0000000180130840 f i libucrtd:stream.obj
 0002:000b3870       ??0?$__crt_unique_heap_ptr@U__crt_stdio_stream_data@@U__crt_internal_free_policy@@@@QEAA@QEAU__crt_stdio_stream_data@@@Z 0000000180130870 f i libucrtd:stream.obj
 0002:000b38a0       ??0__crt_stdio_stream@@QEAA@QEAU__crt_stdio_stream_data@@@Z 00000001801308a0 f i libucrtd:stream.obj
 0002:000b38d0       ??0__crt_stdio_stream@@QEAA@XZ 00000001801308d0 f i libucrtd:stream.obj
 0002:000b38f0       ??1?$__crt_unique_heap_ptr@U__crt_stdio_stream_data@@U__crt_internal_free_policy@@@@QEAA@XZ 00000001801308f0 f i libucrtd:stream.obj
 0002:000b3910       ?__acrt_stdio_allocate_stream@@YA?AV__crt_stdio_stream@@XZ 0000000180130910 f   libucrtd:stream.obj
 0002:000b3a00       ?__acrt_stdio_free_stream@@YAXV__crt_stdio_stream@@@Z 0000000180130a00 f   libucrtd:stream.obj
 0002:000b3ac0       ?deallocate@__crt_stdio_stream@@QEAAXXZ 0000000180130ac0 f i libucrtd:stream.obj
 0002:000b3ae0       ?detach@?$__crt_unique_heap_ptr@U__crt_stdio_stream_data@@U__crt_internal_free_policy@@@@QEAAPEAU__crt_stdio_stream_data@@XZ 0000000180130ae0 f i libucrtd:stream.obj
 0002:000b3d30       ?lock@__crt_stdio_stream@@QEBAXXZ 0000000180130d30 f i libucrtd:stream.obj
 0002:000b3d60       ?release@?$__crt_unique_heap_ptr@U__crt_stdio_stream_data@@U__crt_internal_free_policy@@@@QEAAXXZ 0000000180130d60 f i libucrtd:stream.obj
 0002:000b3da0       ?try_allocate@__crt_stdio_stream@@QEAA_NXZ 0000000180130da0 f i libucrtd:stream.obj
 0002:000b3e20       __acrt_stdio_free_buffer_nolock 0000000180130e20 f   libucrtd:_freebuf.obj
 0002:000b49d0       __acrt_stdio_flush_nolock  00000001801319d0 f   libucrtd:fflush.obj
 0002:000b4b30       _fflush_nolock             0000000180131b30 f   libucrtd:fflush.obj
 0002:000b4b80       _flushall                  0000000180131b80 f   libucrtd:fflush.obj
 0002:000b4ba0       fflush                     0000000180131ba0 f   libucrtd:fflush.obj
 0002:000b4c50       __acrt_errno_from_os_error 0000000180131c50 f   libucrtd:errno.obj
 0002:000b4d00       __acrt_errno_map_os_error  0000000180131d00 f   libucrtd:errno.obj
 0002:000b4d40       __acrt_errno_map_os_error_ptd 0000000180131d40 f   libucrtd:errno.obj
 0002:000b4db0       __doserrno                 0000000180131db0 f   libucrtd:errno.obj
 0002:000b4df0       _errno                     0000000180131df0 f   libucrtd:errno.obj
 0002:000b4e30       _get_doserrno              0000000180131e30 f   libucrtd:errno.obj
 0002:000b4f20       _get_errno                 0000000180131f20 f   libucrtd:errno.obj
 0002:000b5010       _set_doserrno              0000000180132010 f   libucrtd:errno.obj
 0002:000b5050       _set_errno                 0000000180132050 f   libucrtd:errno.obj
 0002:000b5090       ??$__acrt_stdio_parse_mode@D@@YA?AU__acrt_stdio_stream_mode@@QEBD@Z 0000000180132090 f i libucrtd:openfile.obj
 0002:000b5e60       ??$__acrt_stdio_parse_mode@_W@@YA?AU__acrt_stdio_stream_mode@@QEB_W@Z 0000000180132e60 f i libucrtd:openfile.obj
 0002:000b71c0       ??$tcsncmp@AEAPEBDAEAY02$$CBD_K@?$__crt_char_traits@D@@SAHAEAPEBDAEAY02$$CBD$$QEA_K@Z 00000001801341c0 f i libucrtd:openfile.obj
 0002:000b7200       ??$tcsncmp@AEAPEB_WAEAY02$$CB_W_K@?$__crt_char_traits@_W@@SAHAEAPEB_WAEAY02$$CB_W$$QEA_K@Z 0000000180134200 f i libucrtd:openfile.obj
 0002:000b7240       ??$tcsnicmp@AEAPEBDAEAY04$$CBD_K@?$__crt_char_traits@D@@SAHAEAPEBDAEAY04$$CBD$$QEA_K@Z 0000000180134240 f i libucrtd:openfile.obj
 0002:000b7280       ??$tcsnicmp@AEAPEBDAEAY06$$CBD_K@?$__crt_char_traits@D@@SAHAEAPEBDAEAY06$$CBD$$QEA_K@Z 0000000180134280 f i libucrtd:openfile.obj
 0002:000b72c0       ??$tcsnicmp@AEAPEBDAEAY07$$CBD_K@?$__crt_char_traits@D@@SAHAEAPEBDAEAY07$$CBD$$QEA_K@Z 00000001801342c0 f i libucrtd:openfile.obj
 0002:000b7300       ??$tcsnicmp@AEAPEB_WAEAY04$$CB_W_K@?$__crt_char_traits@_W@@SAHAEAPEB_WAEAY04$$CB_W$$QEA_K@Z 0000000180134300 f i libucrtd:openfile.obj
 0002:000b7340       ??$tcsnicmp@AEAPEB_WAEAY06$$CB_W_K@?$__crt_char_traits@_W@@SAHAEAPEB_WAEAY06$$CB_W$$QEA_K@Z 0000000180134340 f i libucrtd:openfile.obj
 0002:000b7380       ??$tcsnicmp@AEAPEB_WAEAY07$$CB_W_K@?$__crt_char_traits@_W@@SAHAEAPEB_WAEAY07$$CB_W$$QEA_K@Z 0000000180134380 f i libucrtd:openfile.obj
 0002:000b73c0       ??$tsopen_s@PEAHAEBQEBDAEBHAEBHH@?$__crt_char_traits@D@@SAH$$QEAPEAHAEBQEBDAEBH2$$QEAH@Z 00000001801343c0 f i libucrtd:openfile.obj
 0002:000b7420       ??$tsopen_s@PEAHAEBQEB_WAEBHAEBHH@?$__crt_char_traits@_W@@SAH$$QEAPEAHAEBQEB_WAEBH2$$QEAH@Z 0000000180134420 f i libucrtd:openfile.obj
 0002:000b7480       ?__acrt_stdio_parse_mode_D@@YA_NAEAU__acrt_stdio_stream_mode@@@Z 0000000180134480 f i libucrtd:openfile.obj
 0002:000b74c0       ?__acrt_stdio_parse_mode_N@@YA_NAEAU__acrt_stdio_stream_mode@@@Z 00000001801344c0 f i libucrtd:openfile.obj
 0002:000b74e0       ?__acrt_stdio_parse_mode_R@@YA_NAEAU__acrt_stdio_stream_mode@@AEA_N@Z 00000001801344e0 f i libucrtd:openfile.obj
 0002:000b7530       ?__acrt_stdio_parse_mode_S@@YA_NAEAU__acrt_stdio_stream_mode@@AEA_N@Z 0000000180134530 f i libucrtd:openfile.obj
 0002:000b7580       ?__acrt_stdio_parse_mode_T@@YA_NAEAU__acrt_stdio_stream_mode@@@Z 0000000180134580 f i libucrtd:openfile.obj
 0002:000b75c0       ?__acrt_stdio_parse_mode_b@@YA_NAEAU__acrt_stdio_stream_mode@@@Z 00000001801345c0 f i libucrtd:openfile.obj
 0002:000b7600       ?__acrt_stdio_parse_mode_c@@YA_NAEAU__acrt_stdio_stream_mode@@AEA_N@Z 0000000180134600 f i libucrtd:openfile.obj
 0002:000b7650       ?__acrt_stdio_parse_mode_n@@YA_NAEAU__acrt_stdio_stream_mode@@AEA_N@Z 0000000180134650 f i libucrtd:openfile.obj
 0002:000b76a0       ?__acrt_stdio_parse_mode_plus@@YA_NAEAU__acrt_stdio_stream_mode@@AEA_N@Z 00000001801346a0 f i libucrtd:openfile.obj
 0002:000b7740       ?__acrt_stdio_parse_mode_t@@YA_NAEAU__acrt_stdio_stream_mode@@@Z 0000000180134740 f i libucrtd:openfile.obj
 0002:000b7780       ?__acrt_stdio_parse_mode_x@@YA_NAEAU__acrt_stdio_stream_mode@@@Z 0000000180134780 f i libucrtd:openfile.obj
 0002:000b77c0       _openfile                  00000001801347c0 f   libucrtd:openfile.obj
 0002:000b7820       _wopenfile                 0000000180134820 f   libucrtd:openfile.obj
 0002:000b8b00       _read                      0000000180135b00 f   libucrtd:read.obj
 0002:000b8f20       _read_nolock               0000000180135f20 f   libucrtd:read.obj
 0002:000bad00       __acrt_stdio_refill_and_read_narrow_nolock 0000000180137d00 f   libucrtd:_filbuf.obj
 0002:000bad30       __acrt_stdio_refill_and_read_wide_nolock 0000000180137d30 f   libucrtd:_filbuf.obj
 0002:000bbb50       _lseek                     0000000180138b50 f   libucrtd:lseek.obj
 0002:000bbbc0       _lseek_internal            0000000180138bc0 f   libucrtd:lseek.obj
 0002:000bbc00       _lseek_nolock              0000000180138c00 f   libucrtd:lseek.obj
 0002:000bbc70       _lseek_nolock_internal     0000000180138c70 f   libucrtd:lseek.obj
 0002:000bbcb0       _lseeki64                  0000000180138cb0 f   libucrtd:lseek.obj
 0002:000bbd20       _lseeki64_internal         0000000180138d20 f   libucrtd:lseek.obj
 0002:000bbd70       _lseeki64_nolock           0000000180138d70 f   libucrtd:lseek.obj
 0002:000bbde0       _lseeki64_nolock_internal  0000000180138de0 f   libucrtd:lseek.obj
 0002:000bc2a0       __acrt_initialize_lowio    00000001801392a0 f   libucrtd:ioinit.obj
 0002:000bc300       __acrt_uninitialize_lowio  0000000180139300 f   libucrtd:ioinit.obj
 0002:000bc390       _CrtGetReportHook          0000000180139390 f   libucrtd:dbgrptt.obj
 0002:000bc3a0       _CrtSetReportFile          00000001801393a0 f   libucrtd:dbgrptt.obj
 0002:000bc550       _CrtSetReportHook          0000000180139550 f   libucrtd:dbgrptt.obj
 0002:000bc590       _CrtSetReportMode          0000000180139590 f   libucrtd:dbgrptt.obj
 0002:000bc7b0       _VCrtDbgReportA            00000001801397b0 f   libucrtd:dbgrptt.obj
 0002:000bd480       _VCrtDbgReportW            000000018013a480 f   libucrtd:dbgrptt.obj
 0002:000be390       _snprintf_s                000000018013b390 f i libucrtd:dbgrptt.obj
 0002:000be410       _vsnprintf_s               000000018013b410 f i libucrtd:dbgrptt.obj
 0002:000be470       _vsnprintf_s_l             000000018013b470 f i libucrtd:dbgrptt.obj
 0002:000bfc90       ??1?$__crt_simd_cleanup_guard@$00@@QEAA@XZ 000000018013cc90 f i libucrtd:strnlen.obj
 0002:000bfca0       ??1?$__crt_simd_cleanup_guard@$0A@@@QEAA@XZ 000000018013cca0 f i libucrtd:strnlen.obj
 0002:000bfcb0       ?compare_equals@?$__crt_simd_traits@$00E@@SA?AT__m256i@@T2@0@Z 000000018013ccb0 f i libucrtd:strnlen.obj
 0002:000bfd00       ?compare_equals@?$__crt_simd_traits@$00G@@SA?AT__m256i@@T2@0@Z 000000018013cd00 f i libucrtd:strnlen.obj
 0002:000bfd50       ?compare_equals@?$__crt_simd_traits@$0A@E@@SA?AT__m128i@@T2@0@Z 000000018013cd50 f i libucrtd:strnlen.obj
 0002:000bfd90       ?compare_equals@?$__crt_simd_traits@$0A@G@@SA?AT__m128i@@T2@0@Z 000000018013cd90 f i libucrtd:strnlen.obj
 0002:000bfdd0       ?compute_byte_mask@?$__crt_simd_pack_traits@$00@@SAHT__m256i@@@Z 000000018013cdd0 f i libucrtd:strnlen.obj
 0002:000bfdf0       ?compute_byte_mask@?$__crt_simd_pack_traits@$0A@@@SAHT__m128i@@@Z 000000018013cdf0 f i libucrtd:strnlen.obj
 0002:000bfe10       ?get_zero_pack@?$__crt_simd_pack_traits@$00@@SA?AT__m256i@@XZ 000000018013ce10 f i libucrtd:strnlen.obj
 0002:000bfe40       ?get_zero_pack@?$__crt_simd_pack_traits@$0A@@@SA?AT__m128i@@XZ 000000018013ce40 f i libucrtd:strnlen.obj
 0002:000bfe60       strnlen                    000000018013ce60 f   libucrtd:strnlen.obj
 0002:000bfe90       wcslen                     000000018013ce90 f   libucrtd:strnlen.obj
 0002:000bfec0       wcsnlen                    000000018013cec0 f   libucrtd:strnlen.obj
 0002:000bfef0       ??$__acrt_convert_wcs_mbs_cp@_WDV<lambda_f788ae46380686e8b737efdd8c720d07>@@U__crt_win32_buffer_no_resizing@@@@YAHQEB_WAEAV?$__crt_win32_buffer@DU__crt_win32_buffer_no_resizing@@@@AEBV<lambda_f788ae46380686e8b737efdd8c720d07>@@I@Z 000000018013cef0 f i libucrtd:getmodulefilenamea.obj
 0002:000c0110       ??$__acrt_wcs_to_mbs_cp@U__crt_win32_buffer_no_resizing@@@@YAHQEB_WAEAV?$__crt_win32_buffer@DU__crt_win32_buffer_no_resizing@@@@I@Z 000000018013d110 f i libucrtd:getmodulefilenamea.obj
 0002:000c0170       ??0?$__crt_win32_buffer@DU__crt_win32_buffer_no_resizing@@@@QEAA@QEAD_K@Z 000000018013d170 f i libucrtd:getmodulefilenamea.obj
 0002:000c01f0       ??1?$__crt_win32_buffer@DU__crt_win32_buffer_no_resizing@@@@QEAA@XZ 000000018013d1f0 f i libucrtd:getmodulefilenamea.obj
 0002:000c0220       ??R<lambda_f788ae46380686e8b737efdd8c720d07>@@QEBA@IQEB_WQEAD_K@Z 000000018013d220 f i libucrtd:getmodulefilenamea.obj
 0002:000c0290       ?__acrt_get_utf8_acp_compatibility_codepage@@YAIXZ 000000018013d290 f i libucrtd:getmodulefilenamea.obj
 0002:000c0360       ?_deallocate@?$__crt_win32_buffer@DU__crt_win32_buffer_no_resizing@@@@AEAAXXZ 000000018013d360 f i libucrtd:getmodulefilenamea.obj
 0002:000c03d0       ?allocate@?$__crt_win32_buffer@DU__crt_win32_buffer_no_resizing@@@@QEAAH_K@Z 000000018013d3d0 f i libucrtd:getmodulefilenamea.obj
 0002:000c0470       ?allocate@__crt_win32_buffer_no_resizing@@SAHQEAPEAX_KAEBV__crt_win32_buffer_empty_debug_info@@@Z 000000018013d470 f i libucrtd:getmodulefilenamea.obj
 0002:000c04b0       ?capacity@?$__crt_win32_buffer@DU__crt_win32_buffer_no_resizing@@@@QEBA_KXZ 000000018013d4b0 f i libucrtd:getmodulefilenamea.obj
 0002:000c04d0       ?data@?$__crt_win32_buffer@DU__crt_win32_buffer_no_resizing@@@@QEAAPEADXZ 000000018013d4d0 f i libucrtd:getmodulefilenamea.obj
 0002:000c04f0       ?deallocate@__crt_win32_buffer_no_resizing@@SAXQEAXAEBV__crt_win32_buffer_empty_debug_info@@@Z 000000018013d4f0 f i libucrtd:getmodulefilenamea.obj
 0002:000c0500       ?debug_info@?$__crt_win32_buffer@DU__crt_win32_buffer_no_resizing@@@@QEBAAEBV__crt_win32_buffer_empty_debug_info@@XZ 000000018013d500 f i libucrtd:getmodulefilenamea.obj
 0002:000c0510       ?set_to_nullptr@?$__crt_win32_buffer@DU__crt_win32_buffer_no_resizing@@@@QEAAXXZ 000000018013d510 f i libucrtd:getmodulefilenamea.obj
 0002:000c0560       ?size@?$__crt_win32_buffer@DU__crt_win32_buffer_no_resizing@@@@QEAAX_K@Z 000000018013d560 f i libucrtd:getmodulefilenamea.obj
 0002:000c0580       ?size@?$__crt_win32_buffer@DU__crt_win32_buffer_no_resizing@@@@QEBA_KXZ 000000018013d580 f i libucrtd:getmodulefilenamea.obj
 0002:000c05a0       __acrt_GetModuleFileNameA  000000018013d5a0 f   libucrtd:getmodulefilenamea.obj
 0002:000c09d0       ??$message_box@$$TAEBQEBDAEBQEBDK@?$__crt_char_traits@D@@SAH$$QEA$$TAEBQEBD1$$QEAK@Z 000000018013d9d0 f i libucrtd:crtmbox.obj
 0002:000c0a30       ??$message_box@$$TAEBQEB_WAEBQEB_WK@?$__crt_char_traits@_W@@SAH$$QEA$$TAEBQEB_W1$$QEAK@Z 000000018013da30 f i libucrtd:crtmbox.obj
 0002:000c0a90       ??$message_box@PEAUHWND__@@AEBQEBDAEBQEBDAEBI@?$__crt_char_traits@D@@SAH$$QEAPEAUHWND__@@AEBQEBD1AEBI@Z 000000018013da90 f i libucrtd:crtmbox.obj
 0002:000c0af0       ??$message_box@PEAUHWND__@@AEBQEB_WAEBQEB_WAEBI@?$__crt_char_traits@_W@@SAH$$QEAPEAUHWND__@@AEBQEB_W1AEBI@Z 000000018013daf0 f i libucrtd:crtmbox.obj
 0002:000c0b50       ??$output_debug_string@AEBQEBD@?$__crt_char_traits@D@@SAXAEBQEBD@Z 000000018013db50 f i libucrtd:crtmbox.obj
 0002:000c0b80       ??$output_debug_string@AEBQEB_W@?$__crt_char_traits@_W@@SAXAEBQEB_W@Z 000000018013db80 f i libucrtd:crtmbox.obj
 0002:000c0bb0       __acrt_show_narrow_message_box 000000018013dbb0 f   libucrtd:crtmbox.obj
 0002:000c0bf0       __acrt_show_wide_message_box 000000018013dbf0 f   libucrtd:crtmbox.obj
 0002:000c0c30       ??$?B$$A6AXH@Z@__crt_fast_encoded_nullptr_t@@QEBAP6AXH@ZXZ 000000018013dc30 f i libucrtd:signal.obj
 0002:000c0d40       ??$__crt_fast_decode_pointer@P6AXH@Z@@YAP6AXH@ZQ6AXH@Z@Z 000000018013dd40 f i libucrtd:signal.obj
 0002:000c0d90       ??$__crt_fast_encode_pointer@P6AXH@Z@@YAP6AXH@ZQ6AXH@Z@Z 000000018013dd90 f i libucrtd:signal.obj
 0002:000c10b0       ?initialize@?$dual_state_global@P6AXH@Z@__crt_state_management@@QEAAXQ6AXH@Z@Z 000000018013e0b0 f i libucrtd:signal.obj
 0002:000c1280       ?value@?$dual_state_global@P6AXH@Z@__crt_state_management@@QEAAAEAP6AXH@ZXZ 000000018013e280 f i libucrtd:signal.obj
 0002:000c12b0       __acrt_get_sigabrt_handler 000000018013e2b0 f   libucrtd:signal.obj
 0002:000c12f0       __acrt_initialize_signal_handlers 000000018013e2f0 f   libucrtd:signal.obj
 0002:000c1360       __fpecode                  000000018013e360 f   libucrtd:signal.obj
 0002:000c1380       __pxcptinfoptrs            000000018013e380 f   libucrtd:signal.obj
 0002:000c13a0       raise                      000000018013e3a0 f   libucrtd:signal.obj
 0002:000c1a00       signal                     000000018013ea00 f   libucrtd:signal.obj
 0002:000c1d80       __acrt_app_verifier_enabled 000000018013ed80 f   libucrtd:peb_access.obj
 0002:000c1dd0       __acrt_is_secure_process   000000018013edd0 f   libucrtd:peb_access.obj
 0002:000c2280       __acrt_get_begin_thread_init_policy 000000018013f280 f   libucrtd:win_policies.obj
 0002:000c22a0       __acrt_get_developer_information_policy 000000018013f2a0 f   libucrtd:win_policies.obj
 0002:000c22c0       __acrt_get_process_end_policy 000000018013f2c0 f   libucrtd:win_policies.obj
 0002:000c22e0       __acrt_get_windowing_model_policy 000000018013f2e0 f   libucrtd:win_policies.obj
 0002:000c2360       ??$__acrt_convert_wcs_mbs_cp@D_WV<lambda_7c9dea7b4ca7285d2cdb541a38da6275>@@U__crt_win32_buffer_internal_dynamic_resizing@@@@YAHQEBDAEAV?$__crt_win32_buffer@_WU__crt_win32_buffer_internal_dynamic_resizing@@@@AEBV<lambda_7c9dea7b4ca7285d2cdb541a38da6275>@@I@Z 000000018013f360 f i libucrtd:argv_wildcards.obj
 0002:000c2580       ??$__acrt_convert_wcs_mbs_cp@_WDV<lambda_d8593a27d1aa8c02be35c86a17d324c4>@@U__crt_win32_buffer_internal_dynamic_resizing@@@@YAHQEB_WAEAV?$__crt_win32_buffer@DU__crt_win32_buffer_internal_dynamic_resizing@@@@AEBV<lambda_d8593a27d1aa8c02be35c86a17d324c4>@@I@Z 000000018013f580 f i libucrtd:argv_wildcards.obj
 0002:000c27a0       ??$__acrt_mbs_to_wcs_cp@U__crt_win32_buffer_internal_dynamic_resizing@@@@YAHQEBDAEAV?$__crt_win32_buffer@_WU__crt_win32_buffer_internal_dynamic_resizing@@@@I@Z 000000018013f7a0 f i libucrtd:argv_wildcards.obj
 0002:000c2800       ??$__acrt_wcs_to_mbs_cp@U__crt_win32_buffer_internal_dynamic_resizing@@@@YAHQEB_WAEAV?$__crt_win32_buffer@DU__crt_win32_buffer_internal_dynamic_resizing@@@@I@Z 000000018013f800 f i libucrtd:argv_wildcards.obj
 0002:000c4190       ??$tcsncpy_s@AEAPEAD_KAEAPEADAEB_K@?$__crt_char_traits@D@@SAHAEAPEAD$$QEA_K0AEB_K@Z 0000000180141190 f i libucrtd:argv_wildcards.obj
 0002:000c41f0       ??$tcsncpy_s@AEAPEA_W_KAEAPEA_WAEB_K@?$__crt_char_traits@_W@@SAHAEAPEA_W$$QEA_K0AEB_K@Z 00000001801411f0 f i libucrtd:argv_wildcards.obj
 0002:000c4250       ??$tcsncpy_s@PEADAEB_KAEBQEBDAEB_K@?$__crt_char_traits@D@@SAH$$QEAPEADAEB_KAEBQEBD1@Z 0000000180141250 f i libucrtd:argv_wildcards.obj
 0002:000c42b0       ??$tcsncpy_s@PEAD_KAEBQEBDAEB_K@?$__crt_char_traits@D@@SAH$$QEAPEAD$$QEA_KAEBQEBDAEB_K@Z 00000001801412b0 f i libucrtd:argv_wildcards.obj
 0002:000c4310       ??$tcsncpy_s@PEA_WAEB_KAEBQEB_WAEB_K@?$__crt_char_traits@_W@@SAH$$QEAPEA_WAEB_KAEBQEB_W1@Z 0000000180141310 f i libucrtd:argv_wildcards.obj
 0002:000c4370       ??$tcsncpy_s@PEA_W_KAEBQEB_WAEB_K@?$__crt_char_traits@_W@@SAH$$QEAPEA_W$$QEA_KAEBQEB_WAEB_K@Z 0000000180141370 f i libucrtd:argv_wildcards.obj
 0002:000c43d0       ??$tcspbrk@AEAPEADAEAY02$$CBD@?$__crt_char_traits@D@@SAPEADAEAPEADAEAY02$$CBD@Z 00000001801413d0 f i libucrtd:argv_wildcards.obj
 0002:000c4410       ??$tcspbrk@AEAPEA_WAEAY02$$CB_W@?$__crt_char_traits@_W@@SAPEA_WAEAPEA_WAEAY02$$CB_W@Z 0000000180141410 f i libucrtd:argv_wildcards.obj
 0002:000c4450       ??0?$__crt_unique_handle_t@U__crt_findfile_traits@@@@QEAA@QEAX@Z 0000000180141450 f i libucrtd:argv_wildcards.obj
 0002:000c4480       ??0?$__crt_win32_buffer@DU__crt_win32_buffer_internal_dynamic_resizing@@@@QEAA@XZ 0000000180141480 f i libucrtd:argv_wildcards.obj
 0002:000c44f0       ??0?$__crt_win32_buffer@_WU__crt_win32_buffer_internal_dynamic_resizing@@@@QEAA@XZ 00000001801414f0 f i libucrtd:argv_wildcards.obj
 0002:000c45e0       ??1?$__crt_unique_handle_t@U__crt_findfile_traits@@@@QEAA@XZ 00000001801415e0 f i libucrtd:argv_wildcards.obj
 0002:000c4600       ??1?$__crt_win32_buffer@DU__crt_win32_buffer_internal_dynamic_resizing@@@@QEAA@XZ 0000000180141600 f i libucrtd:argv_wildcards.obj
 0002:000c4630       ??1?$__crt_win32_buffer@_WU__crt_win32_buffer_internal_dynamic_resizing@@@@QEAA@XZ 0000000180141630 f i libucrtd:argv_wildcards.obj
 0002:000c4780       ??R<lambda_7c9dea7b4ca7285d2cdb541a38da6275>@@QEBA@IQEBDQEA_W_K@Z 0000000180141780 f i libucrtd:argv_wildcards.obj
 0002:000c4940       ??R<lambda_d8593a27d1aa8c02be35c86a17d324c4>@@QEBA@IQEB_WQEAD_K@Z 0000000180141940 f i libucrtd:argv_wildcards.obj
 0002:000c49b0       ?_deallocate@?$__crt_win32_buffer@DU__crt_win32_buffer_internal_dynamic_resizing@@@@AEAAXXZ 00000001801419b0 f i libucrtd:argv_wildcards.obj
 0002:000c4a20       ?_deallocate@?$__crt_win32_buffer@_WU__crt_win32_buffer_internal_dynamic_resizing@@@@AEAAXXZ 0000000180141a20 f i libucrtd:argv_wildcards.obj
 0002:000c4a90       ?allocate@?$__crt_win32_buffer@DU__crt_win32_buffer_internal_dynamic_resizing@@@@QEAAH_K@Z 0000000180141a90 f i libucrtd:argv_wildcards.obj
 0002:000c4b30       ?allocate@?$__crt_win32_buffer@_WU__crt_win32_buffer_internal_dynamic_resizing@@@@QEAAH_K@Z 0000000180141b30 f i libucrtd:argv_wildcards.obj
 0002:000c4bf0       ?allocate@__crt_win32_buffer_internal_dynamic_resizing@@SAHQEAPEAX_KAEBV__crt_win32_buffer_empty_debug_info@@@Z 0000000180141bf0 f i libucrtd:argv_wildcards.obj
 0002:000c4da0       ?capacity@?$__crt_win32_buffer@DU__crt_win32_buffer_internal_dynamic_resizing@@@@QEBA_KXZ 0000000180141da0 f i libucrtd:argv_wildcards.obj
 0002:000c4dc0       ?capacity@?$__crt_win32_buffer@_WU__crt_win32_buffer_internal_dynamic_resizing@@@@QEBA_KXZ 0000000180141dc0 f i libucrtd:argv_wildcards.obj
 0002:000c4de0       ?close@?$__crt_unique_handle_t@U__crt_findfile_traits@@@@QEAAXXZ 0000000180141de0 f i libucrtd:argv_wildcards.obj
 0002:000c4e30       ?close@__crt_findfile_traits@@SA_NPEAX@Z 0000000180141e30 f i libucrtd:argv_wildcards.obj
 0002:000c4e80       ?data@?$__crt_win32_buffer@DU__crt_win32_buffer_internal_dynamic_resizing@@@@QEAAPEADXZ 0000000180141e80 f i libucrtd:argv_wildcards.obj
 0002:000c4ea0       ?data@?$__crt_win32_buffer@_WU__crt_win32_buffer_internal_dynamic_resizing@@@@QEAAPEA_WXZ 0000000180141ea0 f i libucrtd:argv_wildcards.obj
 0002:000c4ec0       ?deallocate@__crt_win32_buffer_internal_dynamic_resizing@@SAXQEAXAEBV__crt_win32_buffer_empty_debug_info@@@Z 0000000180141ec0 f i libucrtd:argv_wildcards.obj
 0002:000c4ef0       ?debug_info@?$__crt_win32_buffer@DU__crt_win32_buffer_internal_dynamic_resizing@@@@QEBAAEBV__crt_win32_buffer_empty_debug_info@@XZ 0000000180141ef0 f i libucrtd:argv_wildcards.obj
 0002:000c4f00       ?debug_info@?$__crt_win32_buffer@_WU__crt_win32_buffer_internal_dynamic_resizing@@@@QEBAAEBV__crt_win32_buffer_empty_debug_info@@XZ 0000000180141f00 f i libucrtd:argv_wildcards.obj
 0002:000c5410       ?get@?$__crt_unique_handle_t@U__crt_findfile_traits@@@@QEBAPEAXXZ 0000000180142410 f i libucrtd:argv_wildcards.obj
 0002:000c54b0       ?get_invalid_value@__crt_findfile_traits@@SAPEAXXZ 00000001801424b0 f i libucrtd:argv_wildcards.obj
 0002:000c5590       ?set_to_nullptr@?$__crt_win32_buffer@DU__crt_win32_buffer_internal_dynamic_resizing@@@@QEAAXXZ 0000000180142590 f i libucrtd:argv_wildcards.obj
 0002:000c55e0       ?set_to_nullptr@?$__crt_win32_buffer@_WU__crt_win32_buffer_internal_dynamic_resizing@@@@QEAAXXZ 00000001801425e0 f i libucrtd:argv_wildcards.obj
 0002:000c5630       ?size@?$__crt_win32_buffer@DU__crt_win32_buffer_internal_dynamic_resizing@@@@QEAAX_K@Z 0000000180142630 f i libucrtd:argv_wildcards.obj
 0002:000c5650       ?size@?$__crt_win32_buffer@_WU__crt_win32_buffer_internal_dynamic_resizing@@@@QEAAX_K@Z 0000000180142650 f i libucrtd:argv_wildcards.obj
 0002:000c56d0       ?strpbrk@@YAPEADQEADQEBD@Z 00000001801426d0 f i libucrtd:argv_wildcards.obj
 0002:000c5700       ?wcspbrk@@YAPEA_WPEA_WPEB_W@Z 0000000180142700 f i libucrtd:argv_wildcards.obj
 0002:000c5730       __acrt_expand_narrow_argv_wildcards 0000000180142730 f   libucrtd:argv_wildcards.obj
 0002:000c5760       __acrt_expand_wide_argv_wildcards 0000000180142760 f   libucrtd:argv_wildcards.obj
 0002:000c5860       ??$initialize_from_array@$$BY10BAA@E@?$dual_state_global@PEAE@__crt_state_management@@QEAAXAEAY10BAA@E@Z 0000000180142860 f i libucrtd:mbctype.obj
 0002:000c58e0       ??$initialize_from_array@$$BY10BAB@E@?$dual_state_global@PEAE@__crt_state_management@@QEAAXAEAY10BAB@E@Z 00000001801428e0 f i libucrtd:mbctype.obj
 0002:000c5c80       ?dangerous_get_state_array@?$dual_state_global@PEAE@__crt_state_management@@QEAAPEAPEAEXZ 0000000180142c80 f i libucrtd:mbctype.obj
 0002:000c5c90       ?dangerous_get_state_array@?$dual_state_global@PEAU__crt_multibyte_data@@@__crt_state_management@@QEAAPEAPEAU__crt_multibyte_data@@XZ 0000000180142c90 f i libucrtd:mbctype.obj
 0002:000c5db0       ?initialize@?$dual_state_global@PEAU__crt_multibyte_data@@@__crt_state_management@@QEAAXQEAU__crt_multibyte_data@@@Z 0000000180142db0 f i libucrtd:mbctype.obj
 0002:000c68b0       ?value@?$dual_state_global@PEAE@__crt_state_management@@QEAAAEAPEAEXZ 00000001801438b0 f i libucrtd:mbctype.obj
 0002:000c68e0       ?value@?$dual_state_global@PEAU__crt_multibyte_data@@@__crt_state_management@@QEAAAEAPEAU__crt_multibyte_data@@XZ 00000001801438e0 f i libucrtd:mbctype.obj
 0002:000c6910       __acrt_initialize_multibyte 0000000180143910 f   libucrtd:mbctype.obj
 0002:000c6a10       __acrt_should_sync_with_global_locale 0000000180143a10 f i libucrtd:mbctype.obj
 0002:000c6a60       __acrt_update_thread_multibyte_data 0000000180143a60 f   libucrtd:mbctype.obj
 0002:000c6aa0       __p__mbcasemap             0000000180143aa0 f   libucrtd:mbctype.obj
 0002:000c6ac0       __p__mbctype               0000000180143ac0 f   libucrtd:mbctype.obj
 0002:000c6ae0       _getmbcp                   0000000180143ae0 f   libucrtd:mbctype.obj
 0002:000c6b80       _setmbcp                   0000000180143b80 f   libucrtd:mbctype.obj
 0002:000c6bd0       _setmbcp_nolock            0000000180143bd0 f   libucrtd:mbctype.obj
 0002:000c7470       _ismbbalnum                0000000180144470 f   libucrtd:ismbbyte.obj
 0002:000c74a0       _ismbbalnum_l              00000001801444a0 f   libucrtd:ismbbyte.obj
 0002:000c74e0       _ismbbalpha                00000001801444e0 f   libucrtd:ismbbyte.obj
 0002:000c7510       _ismbbalpha_l              0000000180144510 f   libucrtd:ismbbyte.obj
 0002:000c7550       _ismbbblank                0000000180144550 f   libucrtd:ismbbyte.obj
 0002:000c75a0       _ismbbblank_l              00000001801445a0 f   libucrtd:ismbbyte.obj
 0002:000c7600       _ismbbgraph                0000000180144600 f   libucrtd:ismbbyte.obj
 0002:000c7630       _ismbbgraph_l              0000000180144630 f   libucrtd:ismbbyte.obj
 0002:000c7670       _ismbbkalnum               0000000180144670 f   libucrtd:ismbbyte.obj
 0002:000c76a0       _ismbbkalnum_l             00000001801446a0 f   libucrtd:ismbbyte.obj
 0002:000c76e0       _ismbbkana                 00000001801446e0 f   libucrtd:ismbbyte.obj
 0002:000c7700       _ismbbkana_l               0000000180144700 f   libucrtd:ismbbyte.obj
 0002:000c77b0       _ismbbkprint               00000001801447b0 f   libucrtd:ismbbyte.obj
 0002:000c77e0       _ismbbkprint_l             00000001801447e0 f   libucrtd:ismbbyte.obj
 0002:000c7820       _ismbbkpunct               0000000180144820 f   libucrtd:ismbbyte.obj
 0002:000c7850       _ismbbkpunct_l             0000000180144850 f   libucrtd:ismbbyte.obj
 0002:000c7890       _ismbblead                 0000000180144890 f   libucrtd:ismbbyte.obj
 0002:000c78c0       _ismbblead_l               00000001801448c0 f   libucrtd:ismbbyte.obj
 0002:000c7900       _ismbbprint                0000000180144900 f   libucrtd:ismbbyte.obj
 0002:000c7930       _ismbbprint_l              0000000180144930 f   libucrtd:ismbbyte.obj
 0002:000c7970       _ismbbpunct                0000000180144970 f   libucrtd:ismbbyte.obj
 0002:000c79a0       _ismbbpunct_l              00000001801449a0 f   libucrtd:ismbbyte.obj
 0002:000c79e0       _ismbbtrail                00000001801449e0 f   libucrtd:ismbbyte.obj
 0002:000c7a10       _ismbbtrail_l              0000000180144a10 f   libucrtd:ismbbyte.obj
 0002:000c7a50       __acrt_initialize_command_line 0000000180144a50 f   libucrtd:argv_data.obj
 0002:000c7a80       __acrt_uninitialize_command_line 0000000180144a80 f   libucrtd:argv_data.obj
 0002:000c7a90       __p___argc                 0000000180144a90 f   libucrtd:argv_data.obj
 0002:000c7aa0       __p___argv                 0000000180144aa0 f   libucrtd:argv_data.obj
 0002:000c7ab0       __p___wargv                0000000180144ab0 f   libucrtd:argv_data.obj
 0002:000c7ac0       __p__acmdln                0000000180144ac0 f   libucrtd:argv_data.obj
 0002:000c7ad0       __p__pgmptr                0000000180144ad0 f   libucrtd:argv_data.obj
 0002:000c7ae0       __p__wcmdln                0000000180144ae0 f   libucrtd:argv_data.obj
 0002:000c7af0       __p__wpgmptr               0000000180144af0 f   libucrtd:argv_data.obj
 0002:000c7b00       _get_pgmptr                0000000180144b00 f   libucrtd:argv_data.obj
 0002:000c7cd0       _get_wpgmptr               0000000180144cd0 f   libucrtd:argv_data.obj
 0002:000c8000       __acrt_MultiByteToWideChar 0000000180145000 f   libucrtd:multibytetowidechar.obj
 0002:000c81e0       __acrt_WideCharToMultiByte 00000001801451e0 f   libucrtd:widechartomultibyte.obj
 0002:000c8530       __dcrt_get_narrow_environment_from_os 0000000180145530 f   libucrtd:get_environment_from_os.obj
 0002:000c87e0       __dcrt_get_wide_environment_from_os 00000001801457e0 f   libucrtd:get_environment_from_os.obj
 0002:000ca610       ??$get_or_create_environment_nolock@$$V@?$__crt_char_traits@D@@SAPEAPEADXZ 0000000180147610 f i libucrtd:setenv.obj
 0002:000ca630       ??$get_or_create_environment_nolock@$$V@?$__crt_char_traits@_W@@SAPEAPEA_WXZ 0000000180147630 f i libucrtd:setenv.obj
 0002:000ca650       ??$set_environment_variable@AEBQEADQEAD@?$__crt_char_traits@D@@SAHAEBQEAD$$QEBQEAD@Z 0000000180147650 f i libucrtd:setenv.obj
 0002:000ca690       ??$set_environment_variable@AEBQEA_WQEA_W@?$__crt_char_traits@_W@@SAHAEBQEA_W$$QEBQEA_W@Z 0000000180147690 f i libucrtd:setenv.obj
 0002:000ca6d0       ??$tcschr@AEBQEADD@?$__crt_char_traits@D@@SAPEADAEBQEAD$$QEAD@Z 00000001801476d0 f i libucrtd:setenv.obj
 0002:000ca720       ??$tcschr@AEBQEA_WD@?$__crt_char_traits@_W@@SAPEA_WAEBQEA_W$$QEAD@Z 0000000180147720 f i libucrtd:setenv.obj
 0002:000ca770       ??$tcscpy_s@AEAPEADAEB_KAEAPEAD@?$__crt_char_traits@D@@SAHAEAPEADAEB_K0@Z 0000000180147770 f i libucrtd:setenv.obj
 0002:000ca7c0       ??$tcscpy_s@AEAPEA_WAEB_KAEAPEA_W@?$__crt_char_traits@_W@@SAHAEAPEA_WAEB_K0@Z 00000001801477c0 f i libucrtd:setenv.obj
 0002:000ca810       ??$tcscpy_s@AEBQEADAEB_KAEBQEAD@?$__crt_char_traits@D@@SAHAEBQEADAEB_K0@Z 0000000180147810 f i libucrtd:setenv.obj
 0002:000ca860       ??$tcscpy_s@AEBQEA_WAEB_KAEBQEA_W@?$__crt_char_traits@_W@@SAHAEBQEA_WAEB_K0@Z 0000000180147860 f i libucrtd:setenv.obj
 0002:000ca8b0       ??$tcslen@AEBQEAD@?$__crt_char_traits@D@@SA_KAEBQEAD@Z 00000001801478b0 f i libucrtd:setenv.obj
 0002:000ca8e0       ??$tcslen@AEBQEA_W@?$__crt_char_traits@_W@@SA_KAEBQEA_W@Z 00000001801478e0 f i libucrtd:setenv.obj
 0002:000ca910       ??$tcsnicoll@AEBQEBDAEAPEADAEB_K@?$__crt_char_traits@D@@SAHAEBQEBDAEAPEADAEB_K@Z 0000000180147910 f i libucrtd:setenv.obj
 0002:000ca960       ??$tcsnicoll@AEBQEB_WAEAPEA_WAEB_K@?$__crt_char_traits@_W@@SAHAEBQEB_WAEAPEA_WAEB_K@Z 0000000180147960 f i libucrtd:setenv.obj
 0002:000ca9b0       ??$tcsnlen@PEADH@?$__crt_char_traits@D@@SA_K$$QEAPEAD$$QEAH@Z 00000001801479b0 f i libucrtd:setenv.obj
 0002:000ca9f0       ??$tcsnlen@PEA_WH@?$__crt_char_traits@_W@@SA_K$$QEAPEA_W$$QEAH@Z 00000001801479f0 f i libucrtd:setenv.obj
 0002:000caad0       ?strchr@@YAPEADQEADH@Z     0000000180147ad0 f i libucrtd:setenv.obj
 0002:000cab00       ?wcschr@@YAPEA_WPEA_W_W@Z  0000000180147b00 f i libucrtd:setenv.obj
 0002:000cab30       __dcrt_set_variable_in_narrow_environment_nolock 0000000180147b30 f   libucrtd:setenv.obj
 0002:000cab60       __dcrt_set_variable_in_wide_environment_nolock 0000000180147b60 f   libucrtd:setenv.obj
 0002:000cabb0       ??$?B$$A6AHPEA_WK_J@Z@__crt_fast_encoded_nullptr_t@@QEBAP6AHPEA_WK_J@ZXZ 0000000180147bb0 f i libucrtd:winapi_thunks.obj
 0002:000cacb0       ??$__crt_fast_decode_pointer@P6AHPEA_WK_J@Z@@YAP6AHPEA_WK_J@ZQ6AH0K1@Z@Z 0000000180147cb0 f i libucrtd:winapi_thunks.obj
 0002:000cad00       ??$__crt_fast_decode_pointer@PEAX@@YAPEAXQEAX@Z 0000000180147d00 f i libucrtd:winapi_thunks.obj
 0002:000cad50       ??$__crt_fast_encode_pointer@P6AHPEA_WK_J@Z@@YAP6AHPEA_WK_J@ZQ6AH0K1@Z@Z 0000000180147d50 f i libucrtd:winapi_thunks.obj
 0002:000cbcc0       GetCurrentThreadEffectiveToken 0000000180148cc0 f i libucrtd:winapi_thunks.obj
 0002:000cbcd0       __acrt_AppPolicyGetProcessTerminationMethodInternal 0000000180148cd0 f   libucrtd:winapi_thunks.obj
 0002:000cbd50       __acrt_AppPolicyGetShowDeveloperDiagnosticInternal 0000000180148d50 f   libucrtd:winapi_thunks.obj
 0002:000cbdd0       __acrt_AppPolicyGetThreadInitializationTypeInternal 0000000180148dd0 f   libucrtd:winapi_thunks.obj
 0002:000cbe50       __acrt_AppPolicyGetWindowingModelInternal 0000000180148e50 f   libucrtd:winapi_thunks.obj
 0002:000cbed0       __acrt_AreFileApisANSI     0000000180148ed0 f   libucrtd:winapi_thunks.obj
 0002:000cbf30       __acrt_CompareStringEx     0000000180148f30 f   libucrtd:winapi_thunks.obj
 0002:000cc090       __acrt_EnumSystemLocalesEx 0000000180149090 f   libucrtd:winapi_thunks.obj
 0002:000cc140       __acrt_FlsAlloc            0000000180149140 f   libucrtd:winapi_thunks.obj
 0002:000cc160       __acrt_FlsFree             0000000180149160 f   libucrtd:winapi_thunks.obj
 0002:000cc180       __acrt_FlsGetValue         0000000180149180 f   libucrtd:winapi_thunks.obj
 0002:000cc1a0       __acrt_FlsSetValue         00000001801491a0 f   libucrtd:winapi_thunks.obj
 0002:000cc1d0       __acrt_GetDateFormatEx     00000001801491d0 f   libucrtd:winapi_thunks.obj
 0002:000cc2e0       __acrt_GetEnabledXStateFeatures 00000001801492e0 f   libucrtd:winapi_thunks.obj
 0002:000cc340       __acrt_GetLocaleInfoEx     0000000180149340 f   libucrtd:winapi_thunks.obj
 0002:000cc400       __acrt_GetSystemTimePreciseAsFileTime 0000000180149400 f   libucrtd:winapi_thunks.obj
 0002:000cc480       __acrt_GetTempPath2W       0000000180149480 f   libucrtd:winapi_thunks.obj
 0002:000cc500       __acrt_GetTimeFormatEx     0000000180149500 f   libucrtd:winapi_thunks.obj
 0002:000cc600       __acrt_GetUserDefaultLocaleName 0000000180149600 f   libucrtd:winapi_thunks.obj
 0002:000cc690       __acrt_GetXStateFeaturesMask 0000000180149690 f   libucrtd:winapi_thunks.obj
 0002:000cc710       __acrt_InitializeCriticalSectionEx 0000000180149710 f   libucrtd:winapi_thunks.obj
 0002:000cc7a0       __acrt_IsValidLocaleName   00000001801497a0 f   libucrtd:winapi_thunks.obj
 0002:000cc830       __acrt_LCIDToLocaleName    0000000180149830 f   libucrtd:winapi_thunks.obj
 0002:000cc8d0       __acrt_LCMapStringEx       00000001801498d0 f   libucrtd:winapi_thunks.obj
 0002:000cca20       __acrt_LocaleNameToLCID    0000000180149a20 f   libucrtd:winapi_thunks.obj
 0002:000ccaa0       __acrt_LocateXStateFeature 0000000180149aa0 f   libucrtd:winapi_thunks.obj
 0002:000ccb20       __acrt_MessageBoxA         0000000180149b20 f   libucrtd:winapi_thunks.obj
 0002:000ccbb0       __acrt_MessageBoxW         0000000180149bb0 f   libucrtd:winapi_thunks.obj
 0002:000ccc40       __acrt_RoInitialize        0000000180149c40 f   libucrtd:winapi_thunks.obj
 0002:000cccb0       __acrt_RoUninitialize      0000000180149cb0 f   libucrtd:winapi_thunks.obj
 0002:000ccd00       __acrt_RtlGenRandom        0000000180149d00 f   libucrtd:winapi_thunks.obj
 0002:000ccd80       __acrt_SetThreadStackGuarantee 0000000180149d80 f   libucrtd:winapi_thunks.obj
 0002:000ccdf0       __acrt_can_show_message_box 0000000180149df0 f   libucrtd:winapi_thunks.obj
 0002:000cce40       __acrt_can_use_vista_locale_apis 0000000180149e40 f   libucrtd:winapi_thunks.obj
 0002:000cce80       __acrt_can_use_xstate_apis 0000000180149e80 f   libucrtd:winapi_thunks.obj
 0002:000ccec0       __acrt_eagerly_load_locale_apis 0000000180149ec0 f   libucrtd:winapi_thunks.obj
 0002:000ccf10       __acrt_get_parent_window   0000000180149f10 f   libucrtd:winapi_thunks.obj
 0002:000ccfd0       __acrt_initialize_winapi_thunks 0000000180149fd0 f   libucrtd:winapi_thunks.obj
 0002:000cd070       __acrt_is_interactive      000000018014a070 f   libucrtd:winapi_thunks.obj
 0002:000cd1c0       __acrt_uninitialize_winapi_thunks 000000018014a1c0 f   libucrtd:winapi_thunks.obj
 0002:000cd290       __acrt_getheap             000000018014a290 f   libucrtd:heap_handle.obj
 0002:000cd300       __acrt_initialize_heap     000000018014a300 f   libucrtd:heap_handle.obj
 0002:000cd330       __acrt_uninitialize_heap   000000018014a330 f   libucrtd:heap_handle.obj
 0002:000cd350       _get_heap_handle           000000018014a350 f   libucrtd:heap_handle.obj
 0002:000cd3c0       __acrt_execute_initializers 000000018014a3c0 f   libucrtd:shared_initialization.obj
 0002:000cd500       __acrt_execute_uninitializers 000000018014a500 f   libucrtd:shared_initialization.obj
 0002:000cd5b0       ??$__crt_fast_decode_pointer@P6AHPEAU_exception@@@Z@@YAP6AHPEAU_exception@@@ZQ6AH0@Z@Z 000000018014a5b0 f i libucrtd:matherr.obj
 0002:000cd600       ??$__crt_fast_encode_pointer@P6AHPEAU_exception@@@Z@@YAP6AHPEAU_exception@@@ZQ6AH0@Z@Z 000000018014a600 f i libucrtd:matherr.obj
 0002:000cd650       ?initialize@?$dual_state_global@P6AHPEAU_exception@@@Z@__crt_state_management@@QEAAXQ6AHPEAU_exception@@@Z@Z 000000018014a650 f i libucrtd:matherr.obj
 0002:000cd6b0       ?value@?$dual_state_global@P6AHPEAU_exception@@@Z@__crt_state_management@@QEAAAEAP6AHPEAU_exception@@@ZXZ 000000018014a6b0 f i libucrtd:matherr.obj
 0002:000cd6e0       __acrt_has_user_matherr    000000018014a6e0 f   libucrtd:matherr.obj
 0002:000cd730       __acrt_initialize_user_matherr 000000018014a730 f   libucrtd:matherr.obj
 0002:000cd760       __acrt_invoke_user_matherr 000000018014a760 f   libucrtd:matherr.obj
 0002:000cd7e0       __setusermatherr           000000018014a7e0 f   libucrtd:matherr.obj
 0002:000cd820       ?has_temporary_buffer@__crt_stdio_stream@@QEBA_NXZ 000000018014a820 f i libucrtd:_sftbuf.obj
 0002:000cd850       __acrt_should_use_temporary_buffer 000000018014a850 f   libucrtd:_sftbuf.obj
 0002:000cd8c0       __acrt_stdio_begin_temporary_buffering_nolock 000000018014a8c0 f   libucrtd:_sftbuf.obj
 0002:000cdbb0       __acrt_stdio_end_temporary_buffering_nolock 000000018014abb0 f   libucrtd:_sftbuf.obj
 0002:000cdc80       _chvalidator               000000018014ac80 f   libucrtd:isctype.obj
 0002:000cdd10       _chvalidator_l             000000018014ad10 f   libucrtd:isctype.obj
 0002:000cdde0       _isctype                   000000018014ade0 f   libucrtd:isctype.obj
 0002:000cde40       _isctype_l                 000000018014ae40 f   libucrtd:isctype.obj
 0002:000ce100       _isleadbyte_fast_internal  000000018014b100 f i libucrtd:isctype.obj
 0002:000ce140       _free_base                 000000018014b140 f   libucrtd:free_base.obj
 0002:000ce1b0       _realloc_base              000000018014b1b0 f   libucrtd:realloc_base.obj
 0002:000ce320       _expand                    000000018014b320 f   libucrtd:expand.obj
 0002:000ce360       _expand_base               000000018014b360 f   libucrtd:expand.obj
 0002:000ce550       ?value_explicit@?$dual_state_global@PEAU__crt_locale_data@@@__crt_state_management@@QEAAAEAPEAU__crt_locale_data@@_K@Z 000000018014b550 f i libucrtd:locale_update.obj
 0002:000ce570       ?value_explicit@?$dual_state_global@PEAU__crt_multibyte_data@@@__crt_state_management@@QEAAAEAPEAU__crt_multibyte_data@@_K@Z 000000018014b570 f i libucrtd:locale_update.obj
 0002:000ce590       __acrt_update_locale_info  000000018014b590 f   libucrtd:locale_update.obj
 0002:000ce5f0       __acrt_update_locale_info_explicit 000000018014b5f0 f   libucrtd:locale_update.obj
 0002:000ce660       __acrt_update_multibyte_info 000000018014b660 f   libucrtd:locale_update.obj
 0002:000ce6c0       __acrt_update_multibyte_info_explicit 000000018014b6c0 f   libucrtd:locale_update.obj
 0002:000ce730       ?value@?$dual_state_global@J@__crt_state_management@@QEAAAEAJXZ 000000018014b730 f i libucrtd:new_mode.obj
 0002:000ce760       _query_new_mode            000000018014b760 f   libucrtd:new_mode.obj
 0002:000ce790       _set_new_mode              000000018014b790 f   libucrtd:new_mode.obj
 0002:000ce890       _CrtDefaultAllocHook       000000018014b890 f   libucrtd:debug_heap_hook.obj
 0002:000ce8b0       _CrtGetDebugFillThreshold  000000018014b8b0 f   libucrtd:debug_fill_threshold.obj
 0002:000ce8c0       _CrtSetDebugFillThreshold  000000018014b8c0 f   libucrtd:debug_fill_threshold.obj
 0002:000ce900       ?__acrt_fp_classify@@YA?AW4__acrt_fp_class@@AEBN@Z 000000018014b900 f i libucrtd:cvt.obj
 0002:000cea40       ?__acrt_fp_is_negative@@YA_NAEBN@Z 000000018014ba40 f i libucrtd:cvt.obj
 0002:000d09a0       ?strrchr@@YAPEADQEADH@Z    000000018014d9a0 f i libucrtd:cvt.obj
 0002:000d09d0       __acrt_fp_format           000000018014d9d0 f   libucrtd:cvt.obj
 0002:000d1250       ?value_or@?$cached@H@__crt_cached_ptd_host@@QEBAHH@Z 000000018014e250 f i libucrtd:wctomb.obj
 0002:000d1280       _wctomb_internal           000000018014e280 f   libucrtd:wctomb.obj
 0002:000d1930       _wctomb_l                  000000018014e930 f   libucrtd:wctomb.obj
 0002:000d1a10       _wctomb_s_l                000000018014ea10 f   libucrtd:wctomb.obj
 0002:000d1ab0       wctomb                     000000018014eab0 f   libucrtd:wctomb.obj
 0002:000d1b70       wctomb_s                   000000018014eb70 f   libucrtd:wctomb.obj
 0002:000d1c00       _mbtowc_internal           000000018014ec00 f   libucrtd:mbtowc.obj
 0002:000d2070       _mbtowc_l                  000000018014f070 f   libucrtd:mbtowc.obj
 0002:000d20f0       mbtowc                     000000018014f0f0 f   libucrtd:mbtowc.obj
 0002:000d2160       _get_printf_count_output   000000018014f160 f   libucrtd:printf_count_output.obj
 0002:000d21a0       _set_printf_count_output   000000018014f1a0 f   libucrtd:printf_count_output.obj
 0002:000d2460       _fputwc_nolock             000000018014f460 f   libucrtd:fputwc.obj
 0002:000d24c0       _fputwc_nolock_internal    000000018014f4c0 f   libucrtd:fputwc.obj
 0002:000d2830       _fputwchar                 000000018014f830 f   libucrtd:fputwc.obj
 0002:000d2860       _putwc_nolock              000000018014f860 f   libucrtd:fputwc.obj
 0002:000d2890       fputwc                     000000018014f890 f   libucrtd:fputwc.obj
 0002:000d28f0       putwc                      000000018014f8f0 f   libucrtd:fputwc.obj
 0002:000d2920       putwchar                   000000018014f920 f   libucrtd:fputwc.obj
 0002:000d2940       _mbsdec                    000000018014f940 f   libucrtd:mbsdec.obj
 0002:000d2970       _mbsdec_l                  000000018014f970 f   libucrtd:mbsdec.obj
 0002:000d3500       wcsncpy_s                  0000000180150500 f   libucrtd:wcsncpy_s.obj
 0002:000d3d80       strncpy_s                  0000000180150d80 f   libucrtd:strncpy_s.obj
 0002:000d3dd0       _fcloseall                 0000000180150dd0 f   libucrtd:closeall.obj
 0002:000d4cf0       __acrt_stdio_flush_and_write_narrow_nolock 0000000180151cf0 f   libucrtd:_flsbuf.obj
 0002:000d4d40       __acrt_stdio_flush_and_write_wide_nolock 0000000180151d40 f   libucrtd:_flsbuf.obj
 0002:000d5070       _fwrite_internal           0000000180152070 f   libucrtd:fwrite.obj
 0002:000d5230       _fwrite_nolock             0000000180152230 f   libucrtd:fwrite.obj
 0002:000d52c0       _fwrite_nolock_internal    00000001801522c0 f   libucrtd:fwrite.obj
 0002:000d5cf0       fwrite                     0000000180152cf0 f   libucrtd:fwrite.obj
 0002:000d5fc0       __acrt_report_runtime_error 0000000180152fc0 f   libucrtd:report_runtime_error.obj
 0002:000d62d0       _query_app_type            00000001801532d0 f   libucrtd:report_runtime_error.obj
 0002:000d62e0       _set_app_type              00000001801532e0 f   libucrtd:report_runtime_error.obj
 0002:000d6300       _iswctype_l                0000000180153300 f   libucrtd:iswctype.obj
 0002:000d6330       iswctype                   0000000180153330 f   libucrtd:iswctype.obj
 0002:000d63e0       __acrt_add_locale_ref      00000001801533e0 f   libucrtd:locale_refcounting.obj
 0002:000d6590       __acrt_free_locale         0000000180153590 f   libucrtd:locale_refcounting.obj
 0002:000d69f0       __acrt_locale_add_lc_time_reference 00000001801539f0 f   libucrtd:locale_refcounting.obj
 0002:000d6a40       __acrt_locale_free_lc_time_if_unreferenced 0000000180153a40 f   libucrtd:locale_refcounting.obj
 0002:000d6ab0       __acrt_locale_release_lc_time_reference 0000000180153ab0 f   libucrtd:locale_refcounting.obj
 0002:000d6b00       __acrt_release_locale_ref  0000000180153b00 f   libucrtd:locale_refcounting.obj
 0002:000d6cc0       __acrt_update_thread_locale_data 0000000180153cc0 f   libucrtd:locale_refcounting.obj
 0002:000d6d90       _updatetlocinfoEx_nolock   0000000180153d90 f   libucrtd:locale_refcounting.obj
 0002:000d6e60       ??$?RG@__crt_internal_free_policy@@QEBAXQEBG@Z 0000000180153e60 f i libucrtd:initctype.obj
 0002:000d6e90       ??$?RJ@__crt_internal_free_policy@@QEBAXQEBJ@Z 0000000180153e90 f i libucrtd:initctype.obj
 0002:000d6ec0       ??0?$__crt_unique_heap_ptr@GU__crt_internal_free_policy@@@@QEAA@QEAG@Z 0000000180153ec0 f i libucrtd:initctype.obj
 0002:000d6ef0       ??0?$__crt_unique_heap_ptr@JU__crt_internal_free_policy@@@@QEAA@QEAJ@Z 0000000180153ef0 f i libucrtd:initctype.obj
 0002:000d6f20       ??1?$__crt_unique_heap_ptr@GU__crt_internal_free_policy@@@@QEAA@XZ 0000000180153f20 f i libucrtd:initctype.obj
 0002:000d6f40       ??1?$__crt_unique_heap_ptr@JU__crt_internal_free_policy@@@@QEAA@XZ 0000000180153f40 f i libucrtd:initctype.obj
 0002:000d6f60       ?detach@?$__crt_unique_heap_ptr@GU__crt_internal_free_policy@@@@QEAAPEAGXZ 0000000180153f60 f i libucrtd:initctype.obj
 0002:000d6fa0       ?detach@?$__crt_unique_heap_ptr@JU__crt_internal_free_policy@@@@QEAAPEAJXZ 0000000180153fa0 f i libucrtd:initctype.obj
 0002:000d6fe0       ?release@?$__crt_unique_heap_ptr@GU__crt_internal_free_policy@@@@QEAAXXZ 0000000180153fe0 f i libucrtd:initctype.obj
 0002:000d7020       ?release@?$__crt_unique_heap_ptr@JU__crt_internal_free_policy@@@@QEAAXXZ 0000000180154020 f i libucrtd:initctype.obj
 0002:000d7060       ___lc_codepage_func        0000000180154060 f   libucrtd:initctype.obj
 0002:000d70b0       ___lc_collate_cp_func      00000001801540b0 f   libucrtd:initctype.obj
 0002:000d7100       ___lc_locale_name_func     0000000180154100 f   libucrtd:initctype.obj
 0002:000d7150       ___mb_cur_max_func         0000000180154150 f   libucrtd:initctype.obj
 0002:000d71a0       ___mb_cur_max_l_func       00000001801541a0 f   libucrtd:initctype.obj
 0002:000d71f0       __acrt_locale_initialize_ctype 00000001801541f0 f   libucrtd:initctype.obj
 0002:000d7f50       ??$?RUlconv@@@__crt_internal_free_policy@@QEBAXQEBUlconv@@@Z 0000000180154f50 f i libucrtd:initmon.obj
 0002:000d7f80       ??0?$__crt_unique_heap_ptr@Ulconv@@U__crt_internal_free_policy@@@@QEAA@QEAUlconv@@@Z 0000000180154f80 f i libucrtd:initmon.obj
 0002:000d7fb0       ??1?$__crt_unique_heap_ptr@Ulconv@@U__crt_internal_free_policy@@@@QEAA@XZ 0000000180154fb0 f i libucrtd:initmon.obj
 0002:000d7fd0       ?detach@?$__crt_unique_heap_ptr@Ulconv@@U__crt_internal_free_policy@@@@QEAAPEAUlconv@@XZ 0000000180154fd0 f i libucrtd:initmon.obj
 0002:000d8010       ?release@?$__crt_unique_heap_ptr@Ulconv@@U__crt_internal_free_policy@@@@QEAAXXZ 0000000180155010 f i libucrtd:initmon.obj
 0002:000d8050       __acrt_locale_free_monetary 0000000180155050 f   libucrtd:initmon.obj
 0002:000d82f0       __acrt_locale_initialize_monetary 00000001801552f0 f   libucrtd:initmon.obj
 0002:000d8f00       __acrt_locale_free_numeric 0000000180155f00 f   libucrtd:initnum.obj
 0002:000d9010       __acrt_locale_initialize_numeric 0000000180156010 f   libucrtd:initnum.obj
 0002:000d9790       ??$?RU__crt_lc_time_data@@@__crt_internal_free_policy@@QEBAXQEBU__crt_lc_time_data@@@Z 0000000180156790 f i libucrtd:inittime.obj
 0002:000d98e0       ??0?$__crt_unique_heap_ptr@U__crt_lc_time_data@@U__crt_internal_free_policy@@@@QEAA@QEAU__crt_lc_time_data@@@Z 00000001801568e0 f i libucrtd:inittime.obj
 0002:000d9910       ??1?$__crt_unique_heap_ptr@U__crt_lc_time_data@@U__crt_internal_free_policy@@@@QEAA@XZ 0000000180156910 f i libucrtd:inittime.obj
 0002:000d9930       ??B?$__crt_unique_heap_ptr@U__crt_lc_time_data@@U__crt_internal_free_policy@@@@QEBA_NXZ 0000000180156930 f i libucrtd:inittime.obj
 0002:000d9950       ?detach@?$__crt_unique_heap_ptr@U__crt_lc_time_data@@U__crt_internal_free_policy@@@@QEAAPEAU__crt_lc_time_data@@XZ 0000000180156950 f i libucrtd:inittime.obj
 0002:000d9a00       ?get@?$__crt_unique_heap_ptr@U__crt_lc_time_data@@U__crt_internal_free_policy@@@@QEBAPEAU__crt_lc_time_data@@XZ 0000000180156a00 f i libucrtd:inittime.obj
 0002:000da210       ?is_valid@?$__crt_unique_heap_ptr@U__crt_lc_time_data@@U__crt_internal_free_policy@@@@QEBA_NXZ 0000000180157210 f i libucrtd:inittime.obj
 0002:000da250       ?release@?$__crt_unique_heap_ptr@U__crt_lc_time_data@@U__crt_internal_free_policy@@@@QEAAXXZ 0000000180157250 f i libucrtd:inittime.obj
 0002:000da290       __acrt_locale_free_time    0000000180157290 f   libucrtd:inittime.obj
 0002:000da460       __acrt_locale_initialize_time 0000000180157460 f   libucrtd:inittime.obj
 0002:000da520       __pctype_func              0000000180157520 f   libucrtd:ctype.obj
 0002:000da570       __pwctype_func             0000000180157570 f   libucrtd:ctype.obj
 0002:000dadb0       wcscat_s                   0000000180157db0 f   libucrtd:wcscat_s.obj
 0002:000db780       wcsncat_s                  0000000180158780 f   libucrtd:wcsncat_s.obj
 0002:000db7d0       wcscmp                     00000001801587d0 f   libucrtd:wcscmp.obj
 0002:000db8a0       wcscspn                    00000001801588a0 f   libucrtd:wcscspn.obj
 0002:000db960       wcspbrk                    0000000180158960 f   libucrtd:wcspbrk.obj
 0002:000dba00       ??0?$__crt_scoped_stack_ptr@_W@@QEAA@U?$__crt_scoped_stack_ptr_tag@_W@@@Z 0000000180158a00 f i libucrtd:getstringtypea.obj
 0002:000dba30       ??0?$__crt_scoped_stack_ptr_tag@_W@@QEAA@QEA_W@Z 0000000180158a30 f i libucrtd:getstringtypea.obj
 0002:000dba60       ??1?$__crt_scoped_stack_ptr@_W@@QEAA@XZ 0000000180158a60 f i libucrtd:getstringtypea.obj
 0002:000dba90       ?get@?$__crt_scoped_stack_ptr@_W@@QEBAPEA_WXZ 0000000180158a90 f i libucrtd:getstringtypea.obj
 0002:000dbab0       _MallocaComputeSize        0000000180158ab0 f i libucrtd:getstringtypea.obj
 0002:000dbb00       _MarkAllocaS               0000000180158b00 f i libucrtd:getstringtypea.obj
 0002:000dbb40       __acrt_GetStringTypeA      0000000180158b40 f   libucrtd:getstringtypea.obj
 0002:000dbe40       _freea_crt                 0000000180158e40 f i libucrtd:getstringtypea.obj
 0002:000dcf20       __acrt_get_qualified_locale 0000000180159f20 f   libucrtd:get_qualified_locale.obj
 0002:000de4a0       __acrt_get_qualified_locale_downlevel 000000018015b4a0 f   libucrtd:getqloc_downlevel.obj
 0002:000de8f0       localeconv                 000000018015b8f0 f   libucrtd:localeconv.obj
 0002:000de940       ??$?RU__crt_lowio_handle_data@@@__crt_internal_free_policy@@QEBAXQEBU__crt_lowio_handle_data@@@Z 000000018015b940 f i libucrtd:osfinfo.obj
 0002:000de970       ??0?$__crt_unique_heap_ptr@U__crt_lowio_handle_data@@U__crt_internal_free_policy@@@@QEAA@QEAU__crt_lowio_handle_data@@@Z 000000018015b970 f i libucrtd:osfinfo.obj
 0002:000de9a0       ??1?$__crt_unique_heap_ptr@U__crt_lowio_handle_data@@U__crt_internal_free_policy@@@@QEAA@XZ 000000018015b9a0 f i libucrtd:osfinfo.obj
 0002:000de9c0       ??B?$__crt_unique_heap_ptr@U__crt_lowio_handle_data@@U__crt_internal_free_policy@@@@QEBA_NXZ 000000018015b9c0 f i libucrtd:osfinfo.obj
 0002:000de9e0       ?detach@?$__crt_unique_heap_ptr@U__crt_lowio_handle_data@@U__crt_internal_free_policy@@@@QEAAPEAU__crt_lowio_handle_data@@XZ 000000018015b9e0 f i libucrtd:osfinfo.obj
 0002:000dea20       ?get@?$__crt_unique_heap_ptr@U__crt_lowio_handle_data@@U__crt_internal_free_policy@@@@QEBAPEAU__crt_lowio_handle_data@@XZ 000000018015ba20 f i libucrtd:osfinfo.obj
 0002:000dea40       ?is_valid@?$__crt_unique_heap_ptr@U__crt_lowio_handle_data@@U__crt_internal_free_policy@@@@QEBA_NXZ 000000018015ba40 f i libucrtd:osfinfo.obj
 0002:000dea80       ?release@?$__crt_unique_heap_ptr@U__crt_lowio_handle_data@@U__crt_internal_free_policy@@@@QEAAXXZ 000000018015ba80 f i libucrtd:osfinfo.obj
 0002:000deac0       __acrt_lowio_create_handle_array 000000018015bac0 f   libucrtd:osfinfo.obj
 0002:000decf0       __acrt_lowio_destroy_handle_array 000000018015bcf0 f   libucrtd:osfinfo.obj
 0002:000ded90       __acrt_lowio_ensure_fh_exists 000000018015bd90 f   libucrtd:osfinfo.obj
 0002:000def40       __acrt_lowio_lock_fh       000000018015bf40 f   libucrtd:osfinfo.obj
 0002:000def90       __acrt_lowio_set_os_handle 000000018015bf90 f   libucrtd:osfinfo.obj
 0002:000df0f0       __acrt_lowio_unlock_fh     000000018015c0f0 f   libucrtd:osfinfo.obj
 0002:000df140       _alloc_osfhnd              000000018015c140 f   libucrtd:osfinfo.obj
 0002:000df3d0       _free_osfhnd               000000018015c3d0 f   libucrtd:osfinfo.obj
 0002:000df550       _get_osfhandle             000000018015c550 f   libucrtd:osfinfo.obj
 0002:000df7d0       _open_osfhandle            000000018015c7d0 f   libucrtd:osfinfo.obj
 0002:000dfd20       _commit                    000000018015cd20 f   libucrtd:commit.obj
 0002:000e1d80       _write                     000000018015ed80 f   libucrtd:write.obj
 0002:000e1df0       _write_internal            000000018015edf0 f   libucrtd:write.obj
 0002:000e2270       _write_nolock              000000018015f270 f   libucrtd:write.obj
 0002:000e2b00       __ascii_wcsnicmp           000000018015fb00 f   libucrtd:wcsnicmp.obj
 0002:000e2c10       _towlower_fast_internal    000000018015fc10 f i libucrtd:wcsnicmp.obj
 0002:000e2c70       _towlower_internal         000000018015fc70 f i libucrtd:wcsnicmp.obj
 0002:000e2cc0       _wcsnicmp                  000000018015fcc0 f   libucrtd:wcsnicmp.obj
 0002:000e2ed0       _wcsnicmp_l                000000018015fed0 f   libucrtd:wcsnicmp.obj
 0002:000e32b0       __ascii_strnicmp           00000001801602b0 f   libucrtd:strnicmp.obj
 0002:000e33b0       _strnicmp                  00000001801603b0 f   libucrtd:strnicmp.obj
 0002:000e3690       _strnicmp_l                0000000180160690 f   libucrtd:strnicmp.obj
 0002:000e4790       ??$tsopen_nolock@PEAHAEBQEAHAEBQEBDAEBHAEBHAEBHAEBH@?$__crt_char_traits@D@@SAH$$QEAPEAHAEBQEAHAEBQEBDAEBH333@Z 0000000180161790 f i libucrtd:open.obj
 0002:000e4810       ??$tsopen_nolock@PEAHAEBQEAHAEBQEB_WAEBHAEBHAEBHAEBH@?$__crt_char_traits@_W@@SAH$$QEAPEAHAEBQEAHAEBQEB_WAEBH333@Z 0000000180161810 f i libucrtd:open.obj
 0002:000e4890       ??$tsopen_nolock@PEAHPEAHAEBQEBDAEBHHAEBHH@?$__crt_char_traits@D@@SAH$$QEAPEAH0AEBQEBDAEBH$$QEAH23@Z 0000000180161890 f i libucrtd:open.obj
 0002:000e4910       ??$tsopen_nolock@PEAHPEAHAEBQEB_WAEBHHAEBHH@?$__crt_char_traits@_W@@SAH$$QEAPEAH0AEBQEB_WAEBH$$QEAH23@Z 0000000180161910 f i libucrtd:open.obj
 0002:000e5980       _open                      0000000180162980 f   libucrtd:open.obj
 0002:000e5a30       _sopen                     0000000180162a30 f   libucrtd:open.obj
 0002:000e5b30       _sopen_dispatch            0000000180162b30 f   libucrtd:open.obj
 0002:000e5b90       _sopen_nolock              0000000180162b90 f   libucrtd:open.obj
 0002:000e5c90       _sopen_s                   0000000180162c90 f   libucrtd:open.obj
 0002:000e5cf0       _wopen                     0000000180162cf0 f   libucrtd:open.obj
 0002:000e5da0       _wsopen                    0000000180162da0 f   libucrtd:open.obj
 0002:000e5ea0       _wsopen_dispatch           0000000180162ea0 f   libucrtd:open.obj
 0002:000e5f00       _wsopen_nolock             0000000180162f00 f   libucrtd:open.obj
 0002:000e6830       _wsopen_s                  0000000180163830 f   libucrtd:open.obj
 0002:000e6890       __p__commode               0000000180163890 f   libucrtd:ncommode.obj
 0002:000e68a0       _isatty                    00000001801638a0 f   libucrtd:isatty.obj
 0002:000e69f0       __acrt_stdio_allocate_buffer_nolock 00000001801639f0 f   libucrtd:_getbuf.obj
 0002:000e8a00       _i64toa                    0000000180165a00 f   libucrtd:xtoa.obj
 0002:000e8a80       _i64toa_s                  0000000180165a80 f   libucrtd:xtoa.obj
 0002:000e8b00       _i64tow                    0000000180165b00 f   libucrtd:xtoa.obj
 0002:000e8b80       _i64tow_s                  0000000180165b80 f   libucrtd:xtoa.obj
 0002:000e8c00       _itoa                      0000000180165c00 f   libucrtd:xtoa.obj
 0002:000e8c80       _itoa_s                    0000000180165c80 f   libucrtd:xtoa.obj
 0002:000e8d00       _itow                      0000000180165d00 f   libucrtd:xtoa.obj
 0002:000e8d80       _itow_s                    0000000180165d80 f   libucrtd:xtoa.obj
 0002:000e8e00       _ltoa                      0000000180165e00 f   libucrtd:xtoa.obj
 0002:000e8e80       _ltoa_s                    0000000180165e80 f   libucrtd:xtoa.obj
 0002:000e8f00       _ltow                      0000000180165f00 f   libucrtd:xtoa.obj
 0002:000e8f80       _ltow_s                    0000000180165f80 f   libucrtd:xtoa.obj
 0002:000e9000       _ui64toa                   0000000180166000 f   libucrtd:xtoa.obj
 0002:000e9050       _ui64toa_s                 0000000180166050 f   libucrtd:xtoa.obj
 0002:000e90a0       _ui64tow                   00000001801660a0 f   libucrtd:xtoa.obj
 0002:000e90f0       _ui64tow_s                 00000001801660f0 f   libucrtd:xtoa.obj
 0002:000e9140       _ultoa                     0000000180166140 f   libucrtd:xtoa.obj
 0002:000e9190       _ultoa_s                   0000000180166190 f   libucrtd:xtoa.obj
 0002:000e91e0       _ultow                     00000001801661e0 f   libucrtd:xtoa.obj
 0002:000e9230       _ultow_s                   0000000180166230 f   libucrtd:xtoa.obj
 0002:000ea050       _mbstowcs_l                0000000180167050 f   libucrtd:mbstowcs.obj
 0002:000ea0d0       _mbstowcs_s_l              00000001801670d0 f   libucrtd:mbstowcs.obj
 0002:000ea180       mbstowcs                   0000000180167180 f   libucrtd:mbstowcs.obj
 0002:000ea1f0       mbstowcs_s                 00000001801671f0 f   libucrtd:mbstowcs.obj
 0002:000eb3f0       _wcstombs_l                00000001801683f0 f   libucrtd:wcstombs.obj
 0002:000eb470       _wcstombs_s_l              0000000180168470 f   libucrtd:wcstombs.obj
 0002:000eb520       wcstombs                   0000000180168520 f   libucrtd:wcstombs.obj
 0002:000eb590       wcstombs_s                 0000000180168590 f   libucrtd:wcstombs.obj
 0002:000eb630       __acrt_OutputDebugStringA  0000000180168630 f   libucrtd:outputdebugstringa.obj
 0002:000eb900       qsort                      0000000180168900 f   libucrtd:qsort.obj
 0002:000ec460       strpbrk                    0000000180169460 f   libucrtd:strpbrk.obj
 0002:000ecf90       ??B?$__crt_scoped_stack_ptr@_W@@QEBA_NXZ 0000000180169f90 f i libucrtd:lcmapstringa.obj
 0002:000ed750       __acrt_LCMapStringA        000000018016a750 f   libucrtd:lcmapstringa.obj
 0002:000ed870       _wcsnicoll                 000000018016a870 f   libucrtd:wcsnicol.obj
 0002:000edb60       _wcsnicoll_l               000000018016ab60 f   libucrtd:wcsnicol.obj
 0002:000edf70       _strnicoll                 000000018016af70 f   libucrtd:strnicol.obj
 0002:000edfe0       _strnicoll_l               000000018016afe0 f   libucrtd:strnicol.obj
 0002:000ee4e0       __acrt_SetEnvironmentVariableA 000000018016b4e0 f   libucrtd:setenvironmentvariablea.obj
 0002:000ee7c0       __acrt_DownlevelLCIDToLocaleName 000000018016b7c0 f   libucrtd:lcidtoname_downlevel.obj
 0002:000ee900       __acrt_DownlevelLocaleNameToLCID 000000018016b900 f   libucrtd:lcidtoname_downlevel.obj
 0002:000ee970       _malloc_base               000000018016b970 f   libucrtd:malloc_base.obj
 0002:000eec70       __acrt_fp_strflt_to_string 000000018016bc70 f   libucrtd:_fptostr.obj
 0002:000efb20       ??0big_integer@__crt_strtox@@QEAA@AEBU01@@Z 000000018016cb20 f i libucrtd:cfout.obj
 0002:000efba0       ??0big_integer@__crt_strtox@@QEAA@XZ 000000018016cba0 f i libucrtd:cfout.obj
 0002:000efd50       ??4big_integer@__crt_strtox@@QEAAAEAU01@AEBU01@@Z 000000018016cd50 f i libucrtd:cfout.obj
 0002:000efdd0       ??8__crt_strtox@@YA_NAEBUbig_integer@0@0@Z 000000018016cdd0 f i libucrtd:cfout.obj
 0002:000efe50       ??9__crt_strtox@@YA_NAEBUbig_integer@0@0@Z 000000018016ce50 f i libucrtd:cfout.obj
 0002:000efea0       ?add_carry@__crt_strtox@@YAIAEAIII@Z 000000018016cea0 f i libucrtd:cfout.obj
 0002:000eff00       ?add_multiply_carry@__crt_strtox@@YAIAEAIIII@Z 000000018016cf00 f i libucrtd:cfout.obj
 0002:000eff70       ?bit_scan_reverse@__crt_strtox@@YAII@Z 000000018016cf70 f i libucrtd:cfout.obj
 0002:000effb0       ?count_sequential_high_zeroes@__crt_strtox@@YAII@Z 000000018016cfb0 f i libucrtd:cfout.obj
 0002:000f0000       ?divide@__crt_strtox@@YA_KAEAUbig_integer@1@AEBU21@@Z 000000018016d000 f i libucrtd:cfout.obj
 0002:000f0c40       ?is_zero@__crt_strtox@@YA_NAEBUbig_integer@1@@Z 000000018016dc40 f i libucrtd:cfout.obj
 0002:000f0c80       ?make_big_integer@__crt_strtox@@YA?AUbig_integer@1@_K@Z 000000018016dc80 f i libucrtd:cfout.obj
 0002:000f0d80       ?make_big_integer_power_of_two@__crt_strtox@@YA?AUbig_integer@1@I@Z 000000018016dd80 f i libucrtd:cfout.obj
 0002:000f0e90       ?multiply@__crt_strtox@@YA_NAEAUbig_integer@1@AEBU21@@Z 000000018016de90 f i libucrtd:cfout.obj
 0002:000f12e0       ?multiply@__crt_strtox@@YA_NAEAUbig_integer@1@I@Z 000000018016e2e0 f i libucrtd:cfout.obj
 0002:000f1450       ?multiply_64_32@__crt_strtox@@YA_K_KI@Z 000000018016e450 f i libucrtd:cfout.obj
 0002:000f1470       ?multiply_by_power_of_ten@__crt_strtox@@YA_NAEAUbig_integer@1@I@Z 000000018016e470 f i libucrtd:cfout.obj
 0002:000f1690       ?multiply_core@__crt_strtox@@YAIQEAIII@Z 000000018016e690 f i libucrtd:cfout.obj
 0002:000f1730       ?shift_left@__crt_strtox@@YA_NAEAUbig_integer@1@I@Z 000000018016e730 f i libucrtd:cfout.obj
 0002:000f1ac0       __acrt_fltout              000000018016eac0 f   libucrtd:cfout.obj
 0002:000f2130       __fpe_flt_rounds           000000018016f130 f   libucrtd:fegetround.obj
 0002:000f21a0       fegetround                 000000018016f1a0 f   libucrtd:fegetround.obj
 0002:000f21c0       ?__c32rtomb_utf8@__crt_mbstring@@YA_KPEAD_UPEAU_Mbstatet@@AEAV__crt_cached_ptd_host@@@Z 000000018016f1c0 f   libucrtd:c32rtomb.obj
 0002:000f2500       c32rtomb                   000000018016f500 f   libucrtd:c32rtomb.obj
 0002:000f2600       ?__mbrtowc_utf8@__crt_mbstring@@YA_KPEA_WPEBD_KPEAU_Mbstatet@@AEAV__crt_cached_ptd_host@@@Z 000000018016f600 f   libucrtd:mbrtowc.obj
 0002:000f26a0       ?__mbsrtowcs_utf8@__crt_mbstring@@YA_KPEA_WPEAPEBD_KPEAU_Mbstatet@@AEAV__crt_cached_ptd_host@@@Z 000000018016f6a0 f   libucrtd:mbrtowc.obj
 0002:000f3ce0       btowc                      0000000180170ce0 f   libucrtd:mbrtowc.obj
 0002:000f3de0       mbrlen                     0000000180170de0 f   libucrtd:mbrtowc.obj
 0002:000f3eb0       mbrtowc                    0000000180170eb0 f   libucrtd:mbrtowc.obj
 0002:000f4000       mbsrtowcs                  0000000180171000 f   libucrtd:mbrtowc.obj
 0002:000f4090       mbsrtowcs_s                0000000180171090 f   libucrtd:mbrtowc.obj
 0002:000f4140       _set_error_mode            0000000180171140 f   libucrtd:set_error_mode.obj
 0002:000f4280       __acrt_GetStringTypeW      0000000180171280 f   libucrtd:getstringtypew.obj
 0002:000f4570       __acrt_GetLocaleInfoA      0000000180171570 f   libucrtd:getlocaleinfoa.obj
 0002:000f4ae0       __ascii_wcsicmp            0000000180171ae0 f   libucrtd:wcsicmp.obj
 0002:000f4ba0       _wcsicmp                   0000000180171ba0 f   libucrtd:wcsicmp.obj
 0002:000f4da0       _wcsicmp_l                 0000000180171da0 f   libucrtd:wcsicmp.obj
 0002:000f5310       _putwch                    0000000180172310 f   libucrtd:putwch.obj
 0002:000f5350       _putwch_nolock             0000000180172350 f   libucrtd:putwch.obj
 0002:000f53b0       _putwch_nolock_internal    00000001801723b0 f   libucrtd:putwch.obj
 0002:000f53e0       _towlower_l                00000001801723e0 f   libucrtd:towlower.obj
 0002:000f55e0       towlower                   00000001801725e0 f   libucrtd:towlower.obj
 0002:000f5600       ??$__crt_interlocked_read@H@@YAHPEDH@Z 0000000180172600 f i libucrtd:setmode.obj
 0002:000f5620       ?value@?$dual_state_global@H@__crt_state_management@@QEAAAEAHXZ 0000000180172620 f i libucrtd:setmode.obj
 0002:000f5650       _get_fmode                 0000000180172650 f   libucrtd:setmode.obj
 0002:000f5760       _set_fmode                 0000000180172760 f   libucrtd:setmode.obj
 0002:000f5880       _setmode                   0000000180172880 f   libucrtd:setmode.obj
 0002:000f5c80       _setmode_nolock            0000000180172c80 f   libucrtd:setmode.obj
 0002:000f6190       ??0__crt_seek_guard@@QEAA@H_J@Z 0000000180173190 f i libucrtd:chsize.obj
 0002:000f6230       ??1__crt_seek_guard@@QEAA@XZ 0000000180173230 f i libucrtd:chsize.obj
 0002:000f6840       ?check@?$cached@K@__crt_cached_ptd_host@@QEBA_NK@Z 0000000180173840 f i libucrtd:chsize.obj
 0002:000f6890       _chsize                    0000000180173890 f   libucrtd:chsize.obj
 0002:000f68e0       _chsize_nolock             00000001801738e0 f   libucrtd:chsize.obj
 0002:000f6940       _chsize_nolock_internal    0000000180173940 f   libucrtd:chsize.obj
 0002:000f6d90       _chsize_s                  0000000180173d90 f   libucrtd:chsize.obj
 0002:000f6df0       _umask                     0000000180173df0 f   libucrtd:umask.obj
 0002:000f6e40       _umask_s                   0000000180173e40 f   libucrtd:umask.obj
 0002:000f7020       ?__wcsrtombs_utf8@__crt_mbstring@@YA_KPEADPEAPEB_W_KPEAU_Mbstatet@@AEAV__crt_cached_ptd_host@@@Z 0000000180174020 f   libucrtd:wcrtomb.obj
 0002:000f7fc0       wcrtomb                    0000000180174fc0 f   libucrtd:wcrtomb.obj
 0002:000f8050       wcrtomb_s                  0000000180175050 f   libucrtd:wcrtomb.obj
 0002:000f80f0       wcsrtombs                  00000001801750f0 f   libucrtd:wcrtomb.obj
 0002:000f8180       wcsrtombs_s                0000000180175180 f   libucrtd:wcrtomb.obj
 0002:000f8940       wctob                      0000000180175940 f   libucrtd:wcrtomb.obj
 0002:000f8a90       __strncnt                  0000000180175a90 f   libucrtd:strncnt.obj
 0002:000f8b10       __acrt_CompareStringW      0000000180175b10 f   libucrtd:comparestringw.obj
 0002:000f94f0       __acrt_CompareStringA      00000001801764f0 f   libucrtd:comparestringa.obj
 0002:000f95b0       log10                      00000001801765b0 f   libucrtd:log10.obj
 0002:000f9cd0       ceil                       0000000180176cd0 f   libucrtd:ceil.obj
 0002:000f9f10       _controlfp_s               0000000180176f10 f   libucrtd:contrlfp.obj
 0002:000fa080       fegetenv                   0000000180177080 f   libucrtd:fegetenv.obj
 0002:000fa0c0       fesetenv                   00000001801770c0 f   libucrtd:fesetenv.obj
 0002:000fa150       feholdexcept               0000000180177150 f   libucrtd:feholdexcept.obj
 0002:000fa1d0       ??$__acrt_fenv_shift_bits@W4__acrt_fenv_abstract_control@@@@YA?AW4__acrt_fenv_abstract_control@@W40@0I@Z 00000001801771d0 f i libucrtd:_fenvutils.obj
 0002:000fa210       ??$__acrt_fenv_shift_bits@W4__acrt_fenv_abstract_status@@@@YA?AW4__acrt_fenv_abstract_status@@W40@0I@Z 0000000180177210 f i libucrtd:_fenvutils.obj
 0002:000fa250       ??$__acrt_fenv_translate_bit@W4__acrt_fenv_abstract_control@@W4__acrt_fenv_machine_sse_control@@@@YA?AW4__acrt_fenv_abstract_control@@W4__acrt_fenv_machine_sse_control@@0W40@1@Z 0000000180177250 f i libucrtd:_fenvutils.obj
 0002:000fa2c0       ??$__acrt_fenv_translate_bit@W4__acrt_fenv_abstract_status@@W4__acrt_fenv_machine_sse_status@@@@YA?AW4__acrt_fenv_abstract_status@@W4__acrt_fenv_machine_sse_status@@0W40@1@Z 00000001801772c0 f i libucrtd:_fenvutils.obj
 0002:000fa320       ??$__acrt_fenv_translate_bit@W4__acrt_fenv_machine_sse_control@@W4__acrt_fenv_abstract_control@@@@YA?AW4__acrt_fenv_machine_sse_control@@W4__acrt_fenv_abstract_control@@0W40@1@Z 0000000180177320 f i libucrtd:_fenvutils.obj
 0002:000fa390       ??$__acrt_fenv_translate_bit@W4__acrt_fenv_machine_sse_status@@W4__acrt_fenv_abstract_status@@@@YA?AW4__acrt_fenv_machine_sse_status@@W4__acrt_fenv_abstract_status@@0W40@1@Z 0000000180177390 f i libucrtd:_fenvutils.obj
 0002:000fa3f0       ??$__acrt_fenv_unshift_bits@W4__acrt_fenv_abstract_control@@@@YA?AW4__acrt_fenv_abstract_control@@W40@0I@Z 00000001801773f0 f i libucrtd:_fenvutils.obj
 0002:000fa430       ??$__acrt_fenv_unshift_bits@W4__acrt_fenv_abstract_status@@@@YA?AW4__acrt_fenv_abstract_status@@W40@0I@Z 0000000180177430 f i libucrtd:_fenvutils.obj
 0002:000faa50       ??I@YA?AW4__acrt_fenv_abstract_control@@W40@0@Z 0000000180177a50 f i libucrtd:_fenvutils.obj
 0002:000faa70       ??I@YA?AW4__acrt_fenv_abstract_status@@W40@0@Z 0000000180177a70 f i libucrtd:_fenvutils.obj
 0002:000faa90       ??I@YA?AW4__acrt_fenv_machine_sse_control@@W40@0@Z 0000000180177a90 f i libucrtd:_fenvutils.obj
 0002:000faab0       ??I@YA?AW4__acrt_fenv_machine_sse_status@@W40@0@Z 0000000180177ab0 f i libucrtd:_fenvutils.obj
 0002:000faad0       ??U@YA?AW4__acrt_fenv_abstract_control@@W40@0@Z 0000000180177ad0 f i libucrtd:_fenvutils.obj
 0002:000faaf0       ??U@YA?AW4__acrt_fenv_abstract_status@@W40@0@Z 0000000180177af0 f i libucrtd:_fenvutils.obj
 0002:000fab10       ??U@YA?AW4__acrt_fenv_machine_sse_control@@W40@0@Z 0000000180177b10 f i libucrtd:_fenvutils.obj
 0002:000fab30       ??_5@YAAEAW4__acrt_fenv_abstract_control@@AEAW40@W40@@Z 0000000180177b30 f i libucrtd:_fenvutils.obj
 0002:000fab60       ??_5@YAAEAW4__acrt_fenv_abstract_status@@AEAW40@W40@@Z 0000000180177b60 f i libucrtd:_fenvutils.obj
 0002:000fab90       ??_5@YAAEAW4__acrt_fenv_machine_sse_control@@AEAW40@W40@@Z 0000000180177b90 f i libucrtd:_fenvutils.obj
 0002:000fabd0       ??_5@YAAEAW4__acrt_fenv_machine_sse_status@@AEAW40@W40@@Z 0000000180177bd0 f i libucrtd:_fenvutils.obj
 0002:000fac00       ?__acrt_fenv_shift_abstract_sse_control@@YA?AW4__acrt_fenv_abstract_control@@W41@@Z 0000000180177c00 f i libucrtd:_fenvutils.obj
 0002:000fac60       ?__acrt_fenv_shift_abstract_sse_status@@YA?AW4__acrt_fenv_abstract_status@@W41@@Z 0000000180177c60 f i libucrtd:_fenvutils.obj
 0002:000fac90       ?__acrt_fenv_unshift_abstract_sse_control@@YA?AW4__acrt_fenv_abstract_control@@W41@@Z 0000000180177c90 f i libucrtd:_fenvutils.obj
 0002:000facf0       ?__acrt_fenv_unshift_abstract_sse_status@@YA?AW4__acrt_fenv_abstract_status@@W41@@Z 0000000180177cf0 f i libucrtd:_fenvutils.obj
 0002:000fb080       __acrt_fenv_expand_round_control 0000000180178080 f   libucrtd:_fenvutils.obj
 0002:000fb0b0       __acrt_fenv_get_common_round_control 00000001801780b0 f   libucrtd:_fenvutils.obj
 0002:000fb0e0       __acrt_fenv_get_control    00000001801780e0 f   libucrtd:_fenvutils.obj
 0002:000fb120       __acrt_fenv_get_fp_status_word_from_exception_mask 0000000180178120 f   libucrtd:_fenvutils.obj
 0002:000fb150       __acrt_fenv_get_status     0000000180178150 f   libucrtd:_fenvutils.obj
